
ledos.elf:     file format elf32-littlenios2
ledos.elf
architecture: nios2, flags 0x00000112:
EXEC_P, HAS_SYMS, D_PAGED
start address 0x018001c4

Program Header:
    LOAD off    0x00001000 vaddr 0x01800000 paddr 0x01800000 align 2**12
         filesz 0x00000020 memsz 0x00000020 flags r-x
    LOAD off    0x00001020 vaddr 0x01800020 paddr 0x01800020 align 2**12
         filesz 0x00009440 memsz 0x00009440 flags r-x
    LOAD off    0x0000a460 vaddr 0x01809460 paddr 0x0180af6c align 2**12
         filesz 0x00001b0c memsz 0x00001b0c flags rw-
    LOAD off    0x0000ca78 vaddr 0x0180ca78 paddr 0x0180ca78 align 2**12
         filesz 0x00000000 memsz 0x0000053c flags rw-

Sections:
Idx Name          Size      VMA       LMA       File off  Algn
  0 .entry        00000020  01800000  01800000  00001000  2**5
                  CONTENTS, ALLOC, LOAD, READONLY, CODE
  1 .exceptions   000001a4  01800020  01800020  00001020  2**2
                  CONTENTS, ALLOC, LOAD, READONLY, CODE
  2 .text         000091e8  018001c4  018001c4  000011c4  2**2
                  CONTENTS, ALLOC, LOAD, READONLY, CODE
  3 .rodata       000000b4  018093ac  018093ac  0000a3ac  2**2
                  CONTENTS, ALLOC, LOAD, READONLY, DATA
  4 .rwdata       00001b0c  01809460  0180af6c  0000a460  2**2
                  CONTENTS, ALLOC, LOAD, DATA, SMALL_DATA
  5 .bss          0000053c  0180ca78  0180ca78  0000ca78  2**2
                  ALLOC, SMALL_DATA
  6 .comment      00000026  00000000  00000000  0000bf6c  2**0
                  CONTENTS, READONLY
  7 .debug_aranges 00000bb8  00000000  00000000  0000bf98  2**3
                  CONTENTS, READONLY, DEBUGGING
  8 .debug_pubnames 0000146a  00000000  00000000  0000cb50  2**0
                  CONTENTS, READONLY, DEBUGGING
  9 .debug_info   0002280d  00000000  00000000  0000dfba  2**0
                  CONTENTS, READONLY, DEBUGGING
 10 .debug_abbrev 00006bf0  00000000  00000000  000307c7  2**0
                  CONTENTS, READONLY, DEBUGGING
 11 .debug_line   0001224f  00000000  00000000  000373b7  2**0
                  CONTENTS, READONLY, DEBUGGING
 12 .debug_frame  00001b54  00000000  00000000  00049608  2**2
                  CONTENTS, READONLY, DEBUGGING
 13 .debug_str    00001b83  00000000  00000000  0004b15c  2**0
                  CONTENTS, READONLY, DEBUGGING
 14 .debug_loc    00005070  00000000  00000000  0004ccdf  2**0
                  CONTENTS, READONLY, DEBUGGING
 15 .debug_alt_sim_info 00000010  00000000  00000000  00051d50  2**2
                  CONTENTS, READONLY, DEBUGGING
 16 .debug_ranges 000002f8  00000000  00000000  00051d60  2**3
                  CONTENTS, READONLY, DEBUGGING
 17 .thread_model 0000000c  00000000  00000000  000552e1  2**0
                  CONTENTS, READONLY
 18 .cpu          00000004  00000000  00000000  000552ed  2**0
                  CONTENTS, READONLY
 19 .qsys         00000001  00000000  00000000  000552f1  2**0
                  CONTENTS, READONLY
 20 .simulation_enabled 00000001  00000000  00000000  000552f2  2**0
                  CONTENTS, READONLY
 21 .sysid_hash   00000004  00000000  00000000  000552f3  2**0
                  CONTENTS, READONLY
 22 .sysid_base   00000004  00000000  00000000  000552f7  2**0
                  CONTENTS, READONLY
 23 .sysid_time   00000004  00000000  00000000  000552fb  2**0
                  CONTENTS, READONLY
 24 .stderr_dev   00000009  00000000  00000000  000552ff  2**0
                  CONTENTS, READONLY
 25 .stdin_dev    00000009  00000000  00000000  00055308  2**0
                  CONTENTS, READONLY
 26 .stdout_dev   00000009  00000000  00000000  00055311  2**0
                  CONTENTS, READONLY
 27 .sopc_system_name 00000006  00000000  00000000  0005531a  2**0
                  CONTENTS, READONLY
 28 .quartus_project_dir 00000036  00000000  00000000  00055320  2**0
                  CONTENTS, READONLY
 29 .jdi          0000476e  00000000  00000000  00055356  2**0
                  CONTENTS, READONLY
SYMBOL TABLE:
01800000 l    d  .entry	00000000 .entry
01800020 l    d  .exceptions	00000000 .exceptions
018001c4 l    d  .text	00000000 .text
018093ac l    d  .rodata	00000000 .rodata
01809460 l    d  .rwdata	00000000 .rwdata
0180ca78 l    d  .bss	00000000 .bss
00000000 l    d  .comment	00000000 .comment
00000000 l    d  .debug_aranges	00000000 .debug_aranges
00000000 l    d  .debug_pubnames	00000000 .debug_pubnames
00000000 l    d  .debug_info	00000000 .debug_info
00000000 l    d  .debug_abbrev	00000000 .debug_abbrev
00000000 l    d  .debug_line	00000000 .debug_line
00000000 l    d  .debug_frame	00000000 .debug_frame
00000000 l    d  .debug_str	00000000 .debug_str
00000000 l    d  .debug_loc	00000000 .debug_loc
00000000 l    d  .debug_alt_sim_info	00000000 .debug_alt_sim_info
00000000 l    d  .debug_ranges	00000000 .debug_ranges
018001fc l       .text	00000000 alt_after_alt_main
00000000 l    df *ABS*	00000000 alt_irq_handler.c
00000000 l    df *ABS*	00000000 gpu.c
00000000 l    df *ABS*	00000000 vga.c
00000000 l    df *ABS*	00000000 graphics.c
00000000 l    df *ABS*	00000000 main.c
00000000 l    df *ABS*	00000000 chthreads.c
018010b0 l     F .text	00000040 list_remove
0180118c l     F .text	00000040 list_insert
00000000 l    df *ABS*	00000000 chvt.c
01801484 l       .text	00000000 _port_thread_start_loop
00000000 l    df *ABS*	00000000 alt_load.c
01801580 l     F .text	0000006c alt_load_section
00000000 l    df *ABS*	00000000 alt_main.c
00000000 l    df *ABS*	00000000 alt_printf.c
00000000 l    df *ABS*	00000000 alt_putchar.c
00000000 l    df *ABS*	00000000 alt_putstr.c
00000000 l    df *ABS*	00000000 alt_sys_init.c
01809460 l     O .rwdata	00001060 jtag_uart
0180a4c0 l     O .rwdata	000000c4 uart_0
018019fc l     F .text	00000038 alt_dev_reg
00000000 l    df *ABS*	00000000 altera_avalon_jtag_uart_fd.c
00000000 l    df *ABS*	00000000 altera_avalon_jtag_uart_init.c
01801c3c l     F .text	00000228 altera_avalon_jtag_uart_irq
01801e64 l     F .text	000000b0 altera_avalon_jtag_uart_timeout
00000000 l    df *ABS*	00000000 altera_avalon_jtag_uart_ioctl.c
00000000 l    df *ABS*	00000000 altera_avalon_jtag_uart_read.c
00000000 l    df *ABS*	00000000 altera_avalon_jtag_uart_write.c
00000000 l    df *ABS*	00000000 altera_avalon_timer_sc.c
018024e0 l     F .text	00000070 alt_avalon_timer_sc_irq
00000000 l    df *ABS*	00000000 altera_avalon_uart_fd.c
00000000 l    df *ABS*	00000000 altera_avalon_uart_init.c
018027a0 l     F .text	0000009c altera_avalon_uart_irq
0180283c l     F .text	000000e0 altera_avalon_uart_rxirq
0180291c l     F .text	0000015c altera_avalon_uart_txirq
00000000 l    df *ABS*	00000000 altera_avalon_uart_read.c
01802d08 l     F .text	00000060 alt_get_errno
00000000 l    df *ABS*	00000000 altera_avalon_uart_write.c
01802f30 l     F .text	00000060 alt_get_errno
00000000 l    df *ABS*	00000000 chdynamic.c
00000000 l    df *ABS*	00000000 chheap.c
0180caa8 l     O .bss	0000001c default_heap
00000000 l    df *ABS*	00000000 chmemcore.c
0180ca84 l     O .bss	00000004 nextmem
0180ca88 l     O .bss	00000004 endmem
00000000 l    df *ABS*	00000000 chmempools.c
00000000 l    df *ABS*	00000000 chmtx.c
01803d04 l     F .text	0000004c dequeue
01803d50 l     F .text	00000094 prio_insert
01804014 l     F .text	00000050 fifo_remove
00000000 l    df *ABS*	00000000 chschd.c
01804458 l     F .text	00000050 fifo_remove
018044a8 l     F .text	000000b8 wakeup
01804560 l     F .text	0000004c dequeue
00000000 l    df *ABS*	00000000 chsys.c
0180cac4 l     O .bss	00000048 mainthread.2251
00000000 l    df *ABS*	00000000 alt_alarm_start.c
00000000 l    df *ABS*	00000000 alt_close.c
01804ca4 l     F .text	00000060 alt_get_errno
00000000 l    df *ABS*	00000000 alt_dcache_flush_all.c
00000000 l    df *ABS*	00000000 alt_dev.c
01804d20 l     F .text	0000002c alt_dev_null_write
00000000 l    df *ABS*	00000000 alt_dev_llist_insert.c
01804e00 l     F .text	00000060 alt_get_errno
00000000 l    df *ABS*	00000000 alt_do_ctors.c
00000000 l    df *ABS*	00000000 alt_do_dtors.c
00000000 l    df *ABS*	00000000 alt_errno.c
00000000 l    df *ABS*	00000000 alt_icache_flush_all.c
00000000 l    df *ABS*	00000000 alt_iic.c
00000000 l    df *ABS*	00000000 alt_iic_isr_register.c
00000000 l    df *ABS*	00000000 alt_io_redirect.c
01805210 l     F .text	000000d8 alt_open_fd
00000000 l    df *ABS*	00000000 alt_irq_vars.c
00000000 l    df *ABS*	00000000 alt_open.c
01805360 l     F .text	000000f8 alt_file_locked
018055e4 l     F .text	00000060 alt_get_errno
00000000 l    df *ABS*	00000000 alt_release_fd.c
00000000 l    df *ABS*	00000000 alt_tick.c
00000000 l    df *ABS*	00000000 altera_nios2_qsys_irq.c
00000000 l    df *ABS*	00000000 chcore.c
00000000 l    df *ABS*	00000000 alt_find_dev.c
00000000 l    df *ABS*	00000000 alt_find_file.c
00000000 l    df *ABS*	00000000 alt_get_fd.c
00000000 l    df *ABS*	00000000 atexit.c
00000000 l    df *ABS*	00000000 exit.c
00000000 l    df *ABS*	00000000 fputs.c
00000000 l    df *ABS*	00000000 fvwrite.c
00000000 l    df *ABS*	00000000 impure.c
0180a72c l     O .rwdata	00000400 impure_data
00000000 l    df *ABS*	00000000 int_errno.c
00000000 l    df *ABS*	00000000 mallocr.c
00000000 l    df *ABS*	00000000 memchr.c
00000000 l    df *ABS*	00000000 memcmp.c
00000000 l    df *ABS*	00000000 memcpy.c
00000000 l    df *ABS*	00000000 memmove.c
00000000 l    df *ABS*	00000000 putc.c
00000000 l    df *ABS*	00000000 mallocr.c
00000000 l    df *ABS*	00000000 sbrkr.c
00000000 l    df *ABS*	00000000 strlen.c
00000000 l    df *ABS*	00000000 wbuf.c
00000000 l    df *ABS*	00000000 wsetup.c
00000000 l    df *ABS*	00000000 __atexit.c
00000000 l    df *ABS*	00000000 __call_atexit.c
01807768 l     F .text	00000004 register_fini
00000000 l    df *ABS*	00000000 fflush.c
00000000 l    df *ABS*	00000000 findfp.c
01807b4c l     F .text	00000058 std
01807c58 l     F .text	00000008 __fp_lock
01807c60 l     F .text	00000008 __fp_unlock
00000000 l    df *ABS*	00000000 mallocr.c
00000000 l    df *ABS*	00000000 fwalk.c
00000000 l    df *ABS*	00000000 makebuf.c
00000000 l    df *ABS*	00000000 memset.c
00000000 l    df *ABS*	00000000 stdio.c
00000000 l    df *ABS*	00000000 writer.c
00000000 l    df *ABS*	00000000 closer.c
00000000 l    df *ABS*	00000000 fclose.c
00000000 l    df *ABS*	00000000 fstatr.c
00000000 l    df *ABS*	00000000 isattyr.c
00000000 l    df *ABS*	00000000 lseekr.c
00000000 l    df *ABS*	00000000 readr.c
00000000 l    df *ABS*	00000000 lib2-mul.c
00000000 l    df *ABS*	00000000 alt_exit.c
01808b90 l     F .text	00000040 alt_sim_halt
00000000 l    df *ABS*	00000000 alt_fstat.c
01808ccc l     F .text	00000060 alt_get_errno
00000000 l    df *ABS*	00000000 alt_isatty.c
01808df0 l     F .text	00000060 alt_get_errno
00000000 l    df *ABS*	00000000 alt_lseek.c
01808f44 l     F .text	00000060 alt_get_errno
00000000 l    df *ABS*	00000000 alt_malloc_lock.c
00000000 l    df *ABS*	00000000 alt_read.c
01809108 l     F .text	00000060 alt_get_errno
00000000 l    df *ABS*	00000000 alt_sbrk.c
0180af68 l     O .rwdata	00000004 heap_end
00000000 l    df *ABS*	00000000 alt_write.c
01809348 l     F .text	00000060 alt_get_errno
018038fc g     F .text	00000060 chPoolInit
018007d8 g     F .text	00000010 enable_gpu
018089f8 g     F .text	00000070 _isatty_r
018015ec g     F .text	00000088 alt_main
01804924 g     F .text	0000012c chSysTimerHandlerI
01800fb0 g     F .text	00000048 chThdExit
018045ac g     F .text	00000090 chSchGoSleepTimeoutS
0180cd24 g     O .bss	00000100 alt_irq
01808a68 g     F .text	00000078 _lseek_r
0180af6c g       *ABS*	00000000 __flash_rwdata_start
01803ba0 g     F .text	00000164 chMtxLockS
018031ec g     F .text	000000d0 chThdCreateFromMemoryPool
0180cfb4 g       *ABS*	00000000 __alt_heap_start
01803e44 g     F .text	00000084 chMtxTryLockS
01803558 g     F .text	00000188 chHeapFree
01808634 g     F .text	00000068 __sseek
01807bb4 g     F .text	000000a4 __sinit
018073ac g     F .text	00000130 __swbuf_r
01807cb4 g     F .text	0000009c __sfmoreglue
01808fc4 g     F .text	00000020 __malloc_unlock
01806a08 g     F .text	000000e0 memmove
01807ca4 g     F .text	00000010 _cleanup
0180190c g     F .text	00000040 alt_putstr
018043c0 g     F .text	00000098 chSchGoSleepS
00000000  w      *UND*	00000000 __errno
01800000 g     F .entry	0000000c __reset
01800020 g       *ABS*	00000000 __flash_exceptions_start
01808984 g     F .text	00000074 _fstat_r
0180ca98 g     O .bss	00000004 errno
01800aec g     F .text	00000158 chThdCreateI
0180ca7c g     O .bss	00000004 alt_argv
01812f34 g       *ABS*	00000000 _gp
0180463c g     F .text	000000ac chSchWakeupS
01804288 g     F .text	00000090 _scheduler_init
018046e8 g     F .text	0000004c chSchRescheduleS
01800c44 g     F .text	0000008c chThdCreateStatic
0180a5ac g     O .rwdata	00000180 alt_fd_list
018058d4 g     F .text	00000094 alt_find_dev
01806968 g     F .text	000000a0 memcpy
01807c98 g     F .text	0000000c _cleanup_r
018052e8 g     F .text	00000078 alt_io_redirect
018093ac g       *ABS*	00000000 __DTOR_END__
01804318 g     F .text	000000a8 chSchReadyI
01805884  w    F .text	00000028 port_halt
018011cc g     F .text	00000064 _vt_init
01803854 g     F .text	0000007c chCoreAllocI
0180207c g     F .text	00000224 altera_avalon_jtag_uart_read
00000000  w      *UND*	00000000 malloc
01808d2c g     F .text	000000c4 isatty
018032bc g     F .text	0000005c _heap_init
0180ca9c g     O .bss	00000004 __malloc_top_pad
01803128 g     F .text	000000c4 chThdCreateFromHeap
01805c34 g     F .text	0000049c __sfvwrite_r
018072c8 g     F .text	00000070 _sbrk_r
018003c8 g     F .text	0000014c gpu_fill
01808ae0 g     F .text	00000078 _read_r
018036e0 g     F .text	000000c8 chHeapStatus
0180af44 g     O .rwdata	00000004 alt_max_fd
01808860 g     F .text	00000110 _fclose_r
01807b18 g     F .text	00000034 fflush
0180caa0 g     O .bss	00000004 __malloc_max_sbrked_mem
01800ff8 g     F .text	000000b8 chThdExitS
01808e50 g     F .text	000000f4 lseek
0180af5c g     O .rwdata	00000004 _global_impure_ptr
01806cd4 g     F .text	000005f4 _realloc_r
0180cfb4 g       *ABS*	00000000 __bss_end
01805118 g     F .text	000000f8 alt_iic_isr_register
01805754 g     F .text	00000110 alt_tick
018026d8 g     F .text	000000c8 altera_avalon_uart_init
01807c80 g     F .text	00000018 __fp_lock_all
018050d0 g     F .text	00000048 alt_ic_irq_enabled
018056bc g     F .text	00000098 alt_alarm_stop
0180ca8c g     O .bss	00000004 alt_irq_active
01801230 g     F .text	00000114 chVTSetI
018000ec g     F .exceptions	000000d8 alt_irq_handler
0180a584 g     O .rwdata	00000028 alt_dev_null
01800248 g     F .text	00000018 vga_en
01804d04 g     F .text	0000001c alt_dcache_flush_all
0180af6c g       *ABS*	00000000 __ram_rwdata_end
0180af3c g     O .rwdata	00000008 alt_dev_list
01809224 g     F .text	00000124 write
01806bec g     F .text	000000e8 _putc_r
01809460 g       *ABS*	00000000 __ram_rodata_end
01808bf4 g     F .text	000000d8 fstat
01803b48 g     F .text	00000058 chMtxLock
018038d0 g     F .text	0000002c chCoreStatus
018047b4 g     F .text	00000090 chSchDoReschedule
01804874 g     F .text	000000b0 chSysInit
01800e60 g     F .text	0000005c chThdSleep
0180cfb4 g       *ABS*	00000000 end
018013cc g     F .text	000000a8 chTimeIsWithin
01802d68 g     F .text	000001c8 altera_avalon_uart_write
01801b7c g     F .text	000000c0 altera_avalon_jtag_uart_init
018093a8 g       *ABS*	00000000 __CTOR_LIST__
02000000 g       *ABS*	00000000 __alt_stack_pointer
01802550 g     F .text	00000090 alt_avalon_timer_sc_init
01802638 g     F .text	00000058 altera_avalon_uart_write_fd
01802690 g     F .text	00000048 altera_avalon_uart_close_fd
018022a0 g     F .text	00000240 altera_avalon_jtag_uart_write
01807ba4 g     F .text	00000004 __sfp_lock_acquire
01806810 g     F .text	000000e4 memchr
018007c8 g     F .text	00000010 disable_gpu
01807f6c g     F .text	00000314 _free_r
01801674 g     F .text	00000258 alt_printf
0180395c g     F .text	00000084 chPoolAllocI
0180776c g     F .text	000001b0 __call_exitprocs
0180af64 g     O .rwdata	00000004 __malloc_sbrk_base
018001c4 g     F .text	0000003c _start
018037a8 g     F .text	0000004c _core_init
01804064 g     F .text	00000120 chMtxUnlockS
0180ca90 g     O .bss	00000004 _alt_tick_rate
018058ac g     F .text	00000028 port_time_tick
01800da0 g     F .text	00000060 chThdResume
01803de4 g     F .text	00000060 chMtxTryLock
0180ca94 g     O .bss	00000004 _alt_nticks
01808fe4 g     F .text	00000124 read
01801980 g     F .text	0000007c alt_sys_init
01807634 g     F .text	00000134 __register_exitproc
01804184 g     F .text	00000104 chMtxUnlockAll
018039e0 g     F .text	00000060 chPoolAlloc
01801f14 g     F .text	00000074 altera_avalon_jtag_uart_close
01808b58 g     F .text	00000038 __mulsi3
01809460 g       *ABS*	00000000 __ram_rwdata_start
018093ac g       *ABS*	00000000 __ram_rodata_start
0180cb0c g     O .bss	00000028 __malloc_current_mallinfo
0180cb34 g     O .bss	00000010 vtlist
0180022c g     F .text	0000001c vga_disable
01801a34 g     F .text	00000058 altera_avalon_jtag_uart_read_fd
01805a88 g     F .text	000000d0 alt_get_fd
018037f4 g     F .text	00000060 chCoreAlloc
018087f0 g     F .text	00000070 _close_r
018033a0 g     F .text	000001b8 chHeapAlloc
01802f90 g     F .text	00000064 chThdAddRef
018068f4 g     F .text	00000074 memcmp
01800200 g     F .text	0000002c set_vga_mode
01801ae4 g     F .text	00000048 altera_avalon_jtag_uart_close_fd
0180cfb4 g       *ABS*	00000000 __alt_stack_base
01801b2c g     F .text	00000050 altera_avalon_jtag_uart_ioctl_fd
01801488 g       .text	00000000 port_switch
018074f8 g     F .text	0000013c __swsetup_r
01807d50 g     F .text	000000f0 __sfp
0180ab2c g     O .rwdata	00000408 __malloc_av_
01807bb0 g     F .text	00000004 __sinit_lock_release
01808718 g     F .text	00000060 __sread
01805968 g     F .text	00000120 alt_find_file
01804d4c g     F .text	000000b4 alt_dev_llist_insert
01808fa4 g     F .text	00000020 __malloc_lock
01809168 g     F .text	000000bc sbrk
0180791c g     F .text	000001fc _fflush_r
0180ca78 g       *ABS*	00000000 __bss_start
01800ebc g     F .text	00000080 chThdSleepUntil
01808594 g     F .text	00000098 memset
018007e8 g     F .text	00000200 main
0180ca80 g     O .bss	00000004 alt_envp
0180caa4 g     O .bss	00000004 __malloc_max_total_mem
01801a8c g     F .text	00000058 altera_avalon_jtag_uart_write_fd
0180cb44 g     O .bss	00000020 rlist
018074dc g     F .text	0000001c __swbuf
0180862c g     F .text	00000008 __sclose
02000000 g       *ABS*	00000000 __alt_heap_limit
01808970 g     F .text	00000014 fclose
0180ce24 g     O .bss	00000190 _atexit0
018060d0 g     F .text	00000740 _malloc_r
0180af48 g     O .rwdata	00000004 alt_errno
01808348 g     F .text	000000b8 _fwalk
01803b00 g     F .text	00000048 chMtxInit
01804844 g     F .text	00000030 _idle_thread
01806ae8 g     F .text	00000104 putc
01807e40 g     F .text	0000012c _malloc_trim_r
018093ac g       *ABS*	00000000 __CTOR_END__
018093ac g       *ABS*	00000000 __flash_rodata_start
018093ac g       *ABS*	00000000 __DTOR_LIST__
01801474 g       .text	00000000 _port_thread_start
01803a40 g     F .text	00000060 chPoolFreeI
0180194c g     F .text	00000034 alt_irq_init
01805644 g     F .text	00000078 alt_release_fd
01805b58 g     F .text	00000014 atexit
01808778 g     F .text	00000078 _write_r
0180af58 g     O .rwdata	00000004 _impure_ptr
0180ca78 g     O .bss	00000004 alt_argc
01804ec4 g     F .text	00000064 _do_dtors
01802ff4 g     F .text	00000134 chThdRelease
01800020 g       .exceptions	00000000 alt_irq_entry
0180cb64 g     O .bss	000001c0 _idle_thread_wa
01807c68 g     F .text	00000018 __fp_unlock_all
01803aa0 g     F .text	00000060 chPoolFree
0180af34 g     O .rwdata	00000008 alt_fs_list
01800020 g       *ABS*	00000000 __ram_exceptions_start
01803ec8 g     F .text	0000014c chMtxUnlock
01804f44 g     F .text	00000050 alt_ic_isr_register
0180af6c g       *ABS*	00000000 _edata
018025e0 g     F .text	00000058 altera_avalon_uart_read_fd
0180cfb4 g       *ABS*	00000000 _end
018001c4 g       *ABS*	00000000 __ram_exceptions_end
01801344 g     F .text	00000088 chVTResetI
01801f88 g     F .text	000000f4 altera_avalon_jtag_uart_ioctl
01805ba4 g     F .text	00000074 _fputs_r
01805030 g     F .text	000000a0 alt_ic_irq_disable
0180869c g     F .text	0000007c __swrite
0180af60 g     O .rwdata	00000004 __malloc_trim_threshold
01805864 g     F .text	00000020 altera_nios2_qsys_irq_init
01805b6c g     F .text	00000038 exit
01808280 g     F .text	000000c8 _fwalk_reent
02000000 g       *ABS*	00000000 __alt_data_end
01800020 g     F .exceptions	00000000 alt_exception
01807ba8 g     F .text	00000004 __sfp_lock_release
01800000 g       *ABS*	00000000 __alt_mem_sdram
01800cd0 g     F .text	000000d0 chThdSetPriority
018010f0 g     F .text	0000009c chThdWait
01802a78 g     F .text	00000060 altera_avalon_uart_close
01804734 g     F .text	00000080 chSchIsPreemptionRequired
01808bd0 g     F .text	00000024 _exit
01804a50 g     F .text	00000154 alt_alarm_start
018009e8 g     F .text	00000104 _thread_init
01808400 g     F .text	00000194 __smakebuf_r
01807338 g     F .text	00000074 strlen
01805458 g     F .text	0000018c open
018018cc g     F .text	00000040 alt_putchar
01800f3c g     F .text	00000074 chThdYield
01804f28 g     F .text	0000001c alt_icache_flush_all
01805c18 g     F .text	0000001c fputs
0180af4c g     O .rwdata	00000004 alt_priority_mask
01803318 g     F .text	00000088 chHeapInit
01804f94 g     F .text	0000009c alt_ic_irq_enable
01802ad8 g     F .text	00000230 altera_avalon_uart_read
01800514 g     F .text	0000017c gpu_draw_bezier
0180af50 g     O .rwdata	00000008 alt_alarm_list
01800690 g     F .text	00000138 gpu_draw_line
01804e60 g     F .text	00000064 _do_ctors
01804ba4 g     F .text	00000100 close
01800260 g     F .text	00000168 gpu_hst_acc
01800e00 g     F .text	00000060 chThdTerminate
01801500 g     F .text	00000080 alt_load
00000000  w      *UND*	00000000 free
01807bac g     F .text	00000004 __sinit_lock_acquire



Disassembly of section .entry:

01800000 <__reset>:
 * Jump to the _start entry point in the .text section if reset code
 * is allowed or if optimizing for RTL simulation.
 */
#if defined(ALT_ALLOW_CODE_AT_RESET) || defined(ALT_SIM_OPTIMIZE)
    /* Jump to the _start entry point in the .text section. */
    movhi r1, %hi(_start)
 1800000:	00406034 	movhi	at,384
    ori r1, r1, %lo(_start)
 1800004:	08407114 	ori	at,at,452
    jmp r1
 1800008:	0800683a 	jmp	at
	...

Disassembly of section .exceptions:

01800020 <alt_exception>:
         * Process an exception.  For all exceptions we must preserve all
         * caller saved registers on the stack (See the Nios2 ABI
         * documentation for details).
         */

        addi  sp, sp, -76
 1800020:	deffed04 	addi	sp,sp,-76

#endif

#endif

        stw   ra,  0(sp)
 1800024:	dfc00015 	stw	ra,0(sp)
        /*
         * Leave a gap in the stack frame at 4(sp) for the muldiv handler to
         * store zero into.
         */

        stw   r1,   8(sp)
 1800028:	d8400215 	stw	at,8(sp)
        stw   r2,  12(sp)
 180002c:	d8800315 	stw	r2,12(sp)
        stw   r3,  16(sp)
 1800030:	d8c00415 	stw	r3,16(sp)
        stw   r4,  20(sp)
 1800034:	d9000515 	stw	r4,20(sp)
        stw   r5,  24(sp)
 1800038:	d9400615 	stw	r5,24(sp)
        stw   r6,  28(sp)
 180003c:	d9800715 	stw	r6,28(sp)
        stw   r7,  32(sp)
 1800040:	d9c00815 	stw	r7,32(sp)

        rdctl r5, estatus
 1800044:	000b307a 	rdctl	r5,estatus

        stw   r8,  36(sp)
 1800048:	da000915 	stw	r8,36(sp)
        stw   r9,  40(sp)
 180004c:	da400a15 	stw	r9,40(sp)
        stw   r10, 44(sp)
 1800050:	da800b15 	stw	r10,44(sp)
        stw   r11, 48(sp)
 1800054:	dac00c15 	stw	r11,48(sp)
        stw   r12, 52(sp)
 1800058:	db000d15 	stw	r12,52(sp)
        stw   r13, 56(sp)
 180005c:	db400e15 	stw	r13,56(sp)
        stw   r14, 60(sp)
 1800060:	db800f15 	stw	r14,60(sp)
        stw   r15, 64(sp)
 1800064:	dbc01015 	stw	r15,64(sp)
        /*
         * ea-4 contains the address of the instruction being executed
         * when the exception occured. For interrupt exceptions, we will
         * will be re-issue the isntruction. Store it in 72(sp)
         */
        stw   r5,  68(sp)  /* estatus */
 1800068:	d9401115 	stw	r5,68(sp)
        addi  r15, ea, -4  /* instruction that caused exception */
 180006c:	ebffff04 	addi	r15,ea,-4
        stw   r15,  72(sp)
 1800070:	dbc01215 	stw	r15,72(sp)
#else
        /*
         * Test to see if the exception was a software exception or caused 
         * by an external interrupt, and vector accordingly.
         */
        rdctl r4, ipending
 1800074:	0009313a 	rdctl	r4,ipending
        andi  r2, r5, 1
 1800078:	2880004c 	andi	r2,r5,1
        beq   r2, zero, .Lnot_irq
 180007c:	10000326 	beq	r2,zero,180008c <alt_exception+0x6c>
        beq   r4, zero, .Lnot_irq
 1800080:	20000226 	beq	r4,zero,180008c <alt_exception+0x6c>
        /*
         * Now that all necessary registers have been preserved, call 
         * alt_irq_handler() to process the interrupts.
         */

        call alt_irq_handler
 1800084:	18000ec0 	call	18000ec <alt_irq_handler>

        .section .exceptions.irqreturn, "xa"

        br    .Lexception_exit
 1800088:	00000306 	br	1800098 <alt_exception+0x78>
         * upon completion, so we write ea (address of instruction *after*
         * the one where the exception occured) into 72(sp). The actual
         * instruction that caused the exception is written in r2, which these
         * handlers will utilize.
         */
        stw   ea,  72(sp)  /* Don't re-issue */
 180008c:	df401215 	stw	ea,72(sp)
        ldw   r2, -4(ea)   /* Instruction that caused exception */
 1800090:	e8bfff17 	ldw	r2,-4(ea)
#ifdef NIOS2_HAS_DEBUG_STUB
       /*
        *  Either tell the user now (if there is a debugger attached) or go into
        *  the debug monitor which will loop until a debugger is attached.
        */
        break
 1800094:	003da03a 	break	0
        /* 
         * Restore the saved registers, so that all general purpose registers 
         * have been restored to their state at the time the interrupt occured.
         */

        ldw   r5,  68(sp)
 1800098:	d9401117 	ldw	r5,68(sp)
        ldw   ea,  72(sp)  /* This becomes the PC once eret is executed */
 180009c:	df401217 	ldw	ea,72(sp)
        ldw   ra,   0(sp)
 18000a0:	dfc00017 	ldw	ra,0(sp)

        wrctl estatus, r5
 18000a4:	2801707a 	wrctl	estatus,r5

        ldw   r1,   8(sp)
 18000a8:	d8400217 	ldw	at,8(sp)
        ldw   r2,  12(sp)
 18000ac:	d8800317 	ldw	r2,12(sp)
        ldw   r3,  16(sp)
 18000b0:	d8c00417 	ldw	r3,16(sp)
        ldw   r4,  20(sp)
 18000b4:	d9000517 	ldw	r4,20(sp)
        ldw   r5,  24(sp)
 18000b8:	d9400617 	ldw	r5,24(sp)
        ldw   r6,  28(sp)
 18000bc:	d9800717 	ldw	r6,28(sp)
        ldw   r7,  32(sp)
 18000c0:	d9c00817 	ldw	r7,32(sp)
#ifdef ALT_STACK_CHECK
        ldw   et, %gprel(alt_exception_old_stack_limit)(gp)
#endif
#endif

        ldw   r8,  36(sp)
 18000c4:	da000917 	ldw	r8,36(sp)
        ldw   r9,  40(sp)
 18000c8:	da400a17 	ldw	r9,40(sp)
        ldw   r10, 44(sp)
 18000cc:	da800b17 	ldw	r10,44(sp)
        ldw   r11, 48(sp)
 18000d0:	dac00c17 	ldw	r11,48(sp)
        ldw   r12, 52(sp)
 18000d4:	db000d17 	ldw	r12,52(sp)
        ldw   r13, 56(sp)
 18000d8:	db400e17 	ldw	r13,56(sp)
        ldw   r14, 60(sp)
 18000dc:	db800f17 	ldw	r14,60(sp)
        ldw   r15, 64(sp)
 18000e0:	dbc01017 	ldw	r15,64(sp)
#endif

        ldw   sp,  76(sp)

#else
        addi  sp, sp, 76
 18000e4:	dec01304 	addi	sp,sp,76

        /*
         * Return to the interrupted instruction.
         */

        eret
 18000e8:	ef80083a 	eret

018000ec <alt_irq_handler>:
 * instruction is present if the macro ALT_CI_INTERRUPT_VECTOR defined.
 */

void alt_irq_handler (void) __attribute__ ((section (".exceptions")));
void alt_irq_handler (void)
{
 18000ec:	defff904 	addi	sp,sp,-28
 18000f0:	dfc00615 	stw	ra,24(sp)
 18000f4:	df000515 	stw	fp,20(sp)
 18000f8:	df000504 	addi	fp,sp,20
#ifndef NIOS2_EIC_PRESENT
static ALT_INLINE alt_u32 ALT_ALWAYS_INLINE alt_irq_pending (void)
{
  alt_u32 active;

  NIOS2_READ_IPENDING (active);
 18000fc:	0005313a 	rdctl	r2,ipending
 1800100:	e0bffc15 	stw	r2,-16(fp)

  return active;
 1800104:	e0bffc17 	ldw	r2,-16(fp)
   * Consider the case where the high priority interupt is asserted during
   * the interrupt entry sequence for a lower priority interrupt to see why
   * this is the case.
   */

  active = alt_irq_pending ();
 1800108:	e0bfff15 	stw	r2,-4(fp)

  do
  {
    i = 0;
 180010c:	e03ffd15 	stw	zero,-12(fp)
    mask = 1;
 1800110:	00800044 	movi	r2,1
 1800114:	e0bffe15 	stw	r2,-8(fp)
     * called to clear the interrupt condition.
     */

    do
    {
      if (active & mask)
 1800118:	e0ffff17 	ldw	r3,-4(fp)
 180011c:	e0bffe17 	ldw	r2,-8(fp)
 1800120:	1884703a 	and	r2,r3,r2
 1800124:	1005003a 	cmpeq	r2,r2,zero
 1800128:	1000161e 	bne	r2,zero,1800184 <alt_irq_handler+0x98>
      { 
#ifdef ALT_ENHANCED_INTERRUPT_API_PRESENT
        alt_irq[i].handler(alt_irq[i].context); 
 180012c:	e0bffd17 	ldw	r2,-12(fp)
 1800130:	00c06074 	movhi	r3,385
 1800134:	18f34904 	addi	r3,r3,-13020
 1800138:	100490fa 	slli	r2,r2,3
 180013c:	10c5883a 	add	r2,r2,r3
 1800140:	11400017 	ldw	r5,0(r2)
 1800144:	e0bffd17 	ldw	r2,-12(fp)
 1800148:	00c06074 	movhi	r3,385
 180014c:	18f34904 	addi	r3,r3,-13020
 1800150:	100490fa 	slli	r2,r2,3
 1800154:	10c5883a 	add	r2,r2,r3
 1800158:	10800104 	addi	r2,r2,4
 180015c:	11000017 	ldw	r4,0(r2)
 1800160:	283ee83a 	callr	r5
#ifndef NIOS2_EIC_PRESENT
static ALT_INLINE alt_u32 ALT_ALWAYS_INLINE alt_irq_pending (void)
{
  alt_u32 active;

  NIOS2_READ_IPENDING (active);
 1800164:	0005313a 	rdctl	r2,ipending
 1800168:	e0bffb15 	stw	r2,-20(fp)

  return active;
 180016c:	e0bffb17 	ldw	r2,-20(fp)
      mask <<= 1;
      i++;

    } while (1);

    active = alt_irq_pending ();
 1800170:	e0bfff15 	stw	r2,-4(fp)
    
  } while (active);
 1800174:	e0bfff17 	ldw	r2,-4(fp)
 1800178:	1004c03a 	cmpne	r2,r2,zero
 180017c:	103fe31e 	bne	r2,zero,180010c <alt_irq_handler+0x20>
 1800180:	00000706 	br	18001a0 <alt_irq_handler+0xb4>
#else
        alt_irq[i].handler(alt_irq[i].context, i); 
#endif
        break;
      }
      mask <<= 1;
 1800184:	e0bffe17 	ldw	r2,-8(fp)
 1800188:	1085883a 	add	r2,r2,r2
 180018c:	e0bffe15 	stw	r2,-8(fp)
      i++;
 1800190:	e0bffd17 	ldw	r2,-12(fp)
 1800194:	10800044 	addi	r2,r2,1
 1800198:	e0bffd15 	stw	r2,-12(fp)

    } while (1);
 180019c:	003fde06 	br	1800118 <alt_irq_handler+0x2c>

  /*
   * Notify the operating system that interrupt processing is complete.
   */ 

  ALT_OS_INT_EXIT();
 18001a0:	18047340 	call	1804734 <chSchIsPreemptionRequired>
 18001a4:	1005003a 	cmpeq	r2,r2,zero
 18001a8:	1000011e 	bne	r2,zero,18001b0 <alt_irq_handler+0xc4>
 18001ac:	18047b40 	call	18047b4 <chSchDoReschedule>
}
 18001b0:	e037883a 	mov	sp,fp
 18001b4:	dfc00117 	ldw	ra,4(sp)
 18001b8:	df000017 	ldw	fp,0(sp)
 18001bc:	dec00204 	addi	sp,sp,8
 18001c0:	f800283a 	ret

Disassembly of section .text:

018001c4 <_start>:
#if (NIOS2_NUM_OF_SHADOW_REG_SETS == 0)    
    /*
     * Now that the caches are initialized, set up the stack pointer.
     * The value provided by the linker is assumed to be correctly aligned.
     */
    movhi sp, %hi(__alt_stack_pointer)
 18001c4:	06c08034 	movhi	sp,512
    ori sp, sp, %lo(__alt_stack_pointer)
 18001c8:	dec00014 	ori	sp,sp,0

    /* Set up the global pointer. */
    movhi gp, %hi(_gp)
 18001cc:	06806074 	movhi	gp,385
    ori gp, gp, %lo(_gp)
 18001d0:	d68bcd14 	ori	gp,gp,12084
 */
#ifndef ALT_SIM_OPTIMIZE
    /* Log that the BSS is about to be cleared. */
    ALT_LOG_PUTS(alt_log_msg_bss)

    movhi r2, %hi(__bss_start)
 18001d4:	00806034 	movhi	r2,384
    ori r2, r2, %lo(__bss_start)
 18001d8:	10b29e14 	ori	r2,r2,51832

    movhi r3, %hi(__bss_end)
 18001dc:	00c06034 	movhi	r3,384
    ori r3, r3, %lo(__bss_end)
 18001e0:	18f3ed14 	ori	r3,r3,53172

    beq r2, r3, 1f
 18001e4:	10c00326 	beq	r2,r3,18001f4 <_start+0x30>

0:
    stw zero, (r2)
 18001e8:	10000015 	stw	zero,0(r2)
    addi r2, r2, 4
 18001ec:	10800104 	addi	r2,r2,4
    bltu r2, r3, 0b
 18001f0:	10fffd36 	bltu	r2,r3,18001e8 <_start+0x24>
     * section aren't defined until alt_load() has been called).
     */
    mov   et, zero
#endif

    call alt_load
 18001f4:	18015000 	call	1801500 <alt_load>

    /* Log that alt_main is about to be called. */
    ALT_LOG_PUTS(alt_log_msg_alt_main)

    /* Call the C entry point. It should never return. */
    call alt_main
 18001f8:	18015ec0 	call	18015ec <alt_main>

018001fc <alt_after_alt_main>:

    /* Wait in infinite loop in case alt_main does return. */
alt_after_alt_main:
    br alt_after_alt_main
 18001fc:	003fff06 	br	18001fc <alt_after_alt_main>

01800200 <set_vga_mode>:
	IOWR_VCORTEX_VGA_CONTROL(IORD_VCORTEX_VGA_CONTROL & ~VCORTEX_VGA_EN_MSK);
	return;
}

void set_vga_mode(VGA_MODE_T mode){
	IOWR_VCORTEX_VGA_CONTROL(IORD_VCORTEX_VGA_CONTROL & ~VCORTEX_VGA_MODE_MSK);
 1800200:	01400074 	movhi	r5,1
 1800204:	29440004 	addi	r5,r5,4096
 1800208:	28800037 	ldwio	r2,0(r5)
 180020c:	00ffff44 	movi	r3,-3
 1800210:	10c4703a 	and	r2,r2,r3
 1800214:	28800035 	stwio	r2,0(r5)
	IOWR_VCORTEX_VGA_CONTROL(IORD_VCORTEX_VGA_CONTROL | (mode & VCORTEX_VGA_MODE_MSK));
 1800218:	28800037 	ldwio	r2,0(r5)
 180021c:	2100008c 	andi	r4,r4,2
 1800220:	1104b03a 	or	r2,r2,r4
 1800224:	28800035 	stwio	r2,0(r5)
	return;
}
 1800228:	f800283a 	ret

0180022c <vga_disable>:
	IOWR_VCORTEX_VGA_CONTROL(IORD_VCORTEX_VGA_CONTROL | VCORTEX_VGA_EN_MSK);
	return;
}

void vga_disable() {
	IOWR_VCORTEX_VGA_CONTROL(IORD_VCORTEX_VGA_CONTROL & ~VCORTEX_VGA_EN_MSK);
 180022c:	00800074 	movhi	r2,1
 1800230:	10840004 	addi	r2,r2,4096
 1800234:	10c00037 	ldwio	r3,0(r2)
 1800238:	013fff84 	movi	r4,-2
 180023c:	1906703a 	and	r3,r3,r4
 1800240:	10c00035 	stwio	r3,0(r2)
	return;
}
 1800244:	f800283a 	ret

01800248 <vga_en>:
*/

#include "vga.h"

void vga_en() {
	IOWR_VCORTEX_VGA_CONTROL(IORD_VCORTEX_VGA_CONTROL | VCORTEX_VGA_EN_MSK);
 1800248:	00c00074 	movhi	r3,1
 180024c:	18c40004 	addi	r3,r3,4096
 1800250:	18800037 	ldwio	r2,0(r3)
 1800254:	10800054 	ori	r2,r2,1
 1800258:	18800035 	stwio	r2,0(r3)
	return;
}
 180025c:	f800283a 	ret

01800260 <gpu_hst_acc>:
	}

	return;
}

GPU_HST_ACC_JOB_T gpu_hst_acc(GPU_HST_ACC_JOB_T job, alt_u8 wait) {
 1800260:	defff404 	addi	sp,sp,-48
 1800264:	d9c00215 	stw	r7,8(sp)
 1800268:	d9800115 	stw	r6,4(sp)
 180026c:	ddc00a15 	stw	r23,40(sp)
 1800270:	dd800915 	stw	r22,36(sp)
 1800274:	dd400815 	stw	r21,32(sp)
 1800278:	dd000715 	stw	r20,28(sp)
 180027c:	dcc00615 	stw	r19,24(sp)
 1800280:	dc800515 	stw	r18,20(sp)
 1800284:	ddc00c03 	ldbu	r23,48(sp)
 1800288:	dd000283 	ldbu	r20,10(sp)
 180028c:	dc800243 	ldbu	r18,9(sp)
 1800290:	dcc00203 	ldbu	r19,8(sp)
 1800294:	dd80018b 	ldhu	r22,6(sp)
 1800298:	dd40010b 	ldhu	r21,4(sp)
 180029c:	dc400415 	stw	r17,16(sp)
 18002a0:	dc000315 	stw	r16,12(sp)
 18002a4:	2823883a 	mov	r17,r5
 18002a8:	2021883a 	mov	r16,r4
 18002ac:	dfc00b15 	stw	ra,44(sp)
 18002b0:	d9400015 	stw	r5,0(sp)
 18002b4:	00000106 	br	18002bc <gpu_hst_acc+0x5c>
									 VCORTEX_GPU_STATUS_HST_MUL_DONE_MSK + \
									 VCORTEX_GPU_STATUS_PICASSO_BUSY_MSK + \
									 VCORTEX_GPU_STATUS_EUCLID_BUSY_MSK))   \
			!= (VCORTEX_GPU_STATUS_HST_MUL_DONE_MSK+VCORTEX_GPU_STATUS_HST_ACC_DONE_MSK))
	{
		chThdSleepMilliseconds(1);
 18002b8:	1800e600 	call	1800e60 <chThdSleep>

GPU_HST_ACC_JOB_T gpu_hst_acc(GPU_HST_ACC_JOB_T job, alt_u8 wait) {
	alt_u32 res;

	//wait for GPU to be free
	while((IORD_VCORTEX_GPU_STATUS &(VCORTEX_GPU_STATUS_HST_ACC_DONE_MSK + \
 18002bc:	00800074 	movhi	r2,1
 18002c0:	10800404 	addi	r2,r2,16
 18002c4:	10800037 	ldwio	r2,0(r2)
 18002c8:	00c00304 	movi	r3,12
 18002cc:	108003cc 	andi	r2,r2,15
									 VCORTEX_GPU_STATUS_HST_MUL_DONE_MSK + \
									 VCORTEX_GPU_STATUS_PICASSO_BUSY_MSK + \
									 VCORTEX_GPU_STATUS_EUCLID_BUSY_MSK))   \
			!= (VCORTEX_GPU_STATUS_HST_MUL_DONE_MSK+VCORTEX_GPU_STATUS_HST_ACC_DONE_MSK))
	{
		chThdSleepMilliseconds(1);
 18002d0:	01000044 	movi	r4,1

GPU_HST_ACC_JOB_T gpu_hst_acc(GPU_HST_ACC_JOB_T job, alt_u8 wait) {
	alt_u32 res;

	//wait for GPU to be free
	while((IORD_VCORTEX_GPU_STATUS &(VCORTEX_GPU_STATUS_HST_ACC_DONE_MSK + \
 18002d4:	10fff81e 	bne	r2,r3,18002b8 <gpu_hst_acc+0x58>
	{
		chThdSleepMilliseconds(1);
	}


	IOWR_VCORTEX_GPU_JOB_BFFR_1(job.action);
 18002d8:	00800074 	movhi	r2,1
 18002dc:	10800c04 	addi	r2,r2,48
 18002e0:	14400035 	stwio	r17,0(r2)
	IOWR_VCORTEX_GPU_JOB_BFFR_2(job.ptr.x);
 18002e4:	a8ffffcc 	andi	r3,r21,65535
 18002e8:	10800404 	addi	r2,r2,16
 18002ec:	10c00035 	stwio	r3,0(r2)
	IOWR_VCORTEX_GPU_JOB_BFFR_3(job.ptr.y);
 18002f0:	b0ffffcc 	andi	r3,r22,65535
 18002f4:	10800404 	addi	r2,r2,16
 18002f8:	10c00035 	stwio	r3,0(r2)
	IOWR_VCORTEX_GPU_JOB_BFFR_4(PACK_HSI_PXL(job.color));
 18002fc:	98803fcc 	andi	r2,r19,255
 1800300:	90c03fcc 	andi	r3,r18,255
 1800304:	1004917a 	slli	r2,r2,5
 1800308:	180690fa 	slli	r3,r3,3
 180030c:	a1003fcc 	andi	r4,r20,255
 1800310:	1105883a 	add	r2,r2,r4
 1800314:	1887883a 	add	r3,r3,r2
 1800318:	00800074 	movhi	r2,1
 180031c:	10801804 	addi	r2,r2,96
 1800320:	10c00035 	stwio	r3,0(r2)
	IOWR_VCORTEX_GPU_JOB_BFFR_0(DEBUG);
 1800324:	00c000c4 	movi	r3,3
 1800328:	10bff004 	addi	r2,r2,-64
 180032c:	10c00035 	stwio	r3,0(r2)

	if(wait || (job.action == READ)) {
 1800330:	b800041e 	bne	r23,zero,1800344 <gpu_hst_acc+0xe4>
 1800334:	00800044 	movi	r2,1
 1800338:	8880111e 	bne	r17,r2,1800380 <gpu_hst_acc+0x120>
 180033c:	00000106 	br	1800344 <gpu_hst_acc+0xe4>
		while(!(IORD_VCORTEX_GPU_STATUS & VCORTEX_GPU_STATUS_HST_ACC_DONE_MSK)) {
			chThdSleepMilliseconds(1);
 1800340:	1800e600 	call	1800e60 <chThdSleep>
	IOWR_VCORTEX_GPU_JOB_BFFR_3(job.ptr.y);
	IOWR_VCORTEX_GPU_JOB_BFFR_4(PACK_HSI_PXL(job.color));
	IOWR_VCORTEX_GPU_JOB_BFFR_0(DEBUG);

	if(wait || (job.action == READ)) {
		while(!(IORD_VCORTEX_GPU_STATUS & VCORTEX_GPU_STATUS_HST_ACC_DONE_MSK)) {
 1800344:	00800074 	movhi	r2,1
 1800348:	10800404 	addi	r2,r2,16
 180034c:	10800037 	ldwio	r2,0(r2)
			chThdSleepMilliseconds(1);
 1800350:	01000044 	movi	r4,1
	IOWR_VCORTEX_GPU_JOB_BFFR_3(job.ptr.y);
	IOWR_VCORTEX_GPU_JOB_BFFR_4(PACK_HSI_PXL(job.color));
	IOWR_VCORTEX_GPU_JOB_BFFR_0(DEBUG);

	if(wait || (job.action == READ)) {
		while(!(IORD_VCORTEX_GPU_STATUS & VCORTEX_GPU_STATUS_HST_ACC_DONE_MSK)) {
 1800354:	1080010c 	andi	r2,r2,4
 1800358:	103ff926 	beq	r2,zero,1800340 <gpu_hst_acc+0xe0>
			chThdSleepMilliseconds(1);
		}
	}

	if(job.action == READ) {
 180035c:	8900081e 	bne	r17,r4,1800380 <gpu_hst_acc+0x120>
		res = IORD_VCORTEX_GPU_JOB_BFFR_4;
 1800360:	00800074 	movhi	r2,1
 1800364:	10801804 	addi	r2,r2,96
 1800368:	10800037 	ldwio	r2,0(r2)

		job.color.i = res & 0x7;
		job.color.s = (res >> INTENSITY_W) & 0x3;
		job.color.h = (res >> (SATURATION_W+INTENSITY_W)) & 0x7;
 180036c:	1006d17a 	srli	r3,r2,5

	if(job.action == READ) {
		res = IORD_VCORTEX_GPU_JOB_BFFR_4;

		job.color.i = res & 0x7;
		job.color.s = (res >> INTENSITY_W) & 0x3;
 1800370:	1008d0fa 	srli	r4,r2,3
	}

	if(job.action == READ) {
		res = IORD_VCORTEX_GPU_JOB_BFFR_4;

		job.color.i = res & 0x7;
 1800374:	150001cc 	andi	r20,r2,7
		job.color.s = (res >> INTENSITY_W) & 0x3;
		job.color.h = (res >> (SATURATION_W+INTENSITY_W)) & 0x7;
 1800378:	1cc001cc 	andi	r19,r3,7

	if(job.action == READ) {
		res = IORD_VCORTEX_GPU_JOB_BFFR_4;

		job.color.i = res & 0x7;
		job.color.s = (res >> INTENSITY_W) & 0x3;
 180037c:	248000cc 	andi	r18,r4,3

	//alt_printf("[gpu_hst_acc] Done RD/WR:%c ptr.x:0x%x ptr.y0x%x\n",job.action,job.ptr.x,job.ptr.y);


	return job;
}
 1800380:	8005883a 	mov	r2,r16
	}

	//alt_printf("[gpu_hst_acc] Done RD/WR:%c ptr.x:0x%x ptr.y0x%x\n",job.action,job.ptr.x,job.ptr.y);


	return job;
 1800384:	85000285 	stb	r20,10(r16)
 1800388:	84800245 	stb	r18,9(r16)
 180038c:	84c00205 	stb	r19,8(r16)
 1800390:	8580018d 	sth	r22,6(r16)
 1800394:	8540010d 	sth	r21,4(r16)
 1800398:	84400015 	stw	r17,0(r16)
}
 180039c:	dfc00b17 	ldw	ra,44(sp)
 18003a0:	ddc00a17 	ldw	r23,40(sp)
 18003a4:	dd800917 	ldw	r22,36(sp)
 18003a8:	dd400817 	ldw	r21,32(sp)
 18003ac:	dd000717 	ldw	r20,28(sp)
 18003b0:	dcc00617 	ldw	r19,24(sp)
 18003b4:	dc800517 	ldw	r18,20(sp)
 18003b8:	dc400417 	ldw	r17,16(sp)
 18003bc:	dc000317 	ldw	r16,12(sp)
 18003c0:	dec00c04 	addi	sp,sp,48
 18003c4:	f800283a 	ret

018003c8 <gpu_fill>:
	}

	return;
}

void gpu_fill(GPU_FILL_JOB_T job, alt_u8 wait) {
 18003c8:	defff304 	addi	sp,sp,-52
 18003cc:	d9000015 	stw	r4,0(sp)
 18003d0:	d9400115 	stw	r5,4(sp)
 18003d4:	d9800215 	stw	r6,8(sp)
 18003d8:	df000b15 	stw	fp,44(sp)
 18003dc:	dd800915 	stw	r22,36(sp)
 18003e0:	dd400815 	stw	r21,32(sp)
 18003e4:	dd000715 	stw	r20,28(sp)
 18003e8:	dcc00615 	stw	r19,24(sp)
 18003ec:	dc800515 	stw	r18,20(sp)
 18003f0:	dc400415 	stw	r17,16(sp)
 18003f4:	dc000315 	stw	r16,12(sp)
 18003f8:	df00020b 	ldhu	fp,8(sp)
 18003fc:	dd80018b 	ldhu	r22,6(sp)
 1800400:	dd400143 	ldbu	r21,5(sp)
 1800404:	dd000103 	ldbu	r20,4(sp)
 1800408:	dcc000c3 	ldbu	r19,3(sp)
 180040c:	dc800083 	ldbu	r18,2(sp)
 1800410:	dc400043 	ldbu	r17,1(sp)
 1800414:	dc000003 	ldbu	r16,0(sp)
 1800418:	ddc00a15 	stw	r23,40(sp)
 180041c:	382f883a 	mov	r23,r7
 1800420:	dfc00c15 	stw	ra,48(sp)
 1800424:	00000106 	br	180042c <gpu_fill+0x64>
									 VCORTEX_GPU_STATUS_HST_MUL_DONE_MSK + \
									 VCORTEX_GPU_STATUS_PICASSO_BUSY_MSK + \
									 VCORTEX_GPU_STATUS_EUCLID_BUSY_MSK))   \
			!= (VCORTEX_GPU_STATUS_HST_MUL_DONE_MSK+VCORTEX_GPU_STATUS_HST_ACC_DONE_MSK))
	{
		chThdSleepMilliseconds(1);
 1800428:	1800e600 	call	1800e60 <chThdSleep>
	return;
}

void gpu_fill(GPU_FILL_JOB_T job, alt_u8 wait) {
	//wait for GPU to be free
	while((IORD_VCORTEX_GPU_STATUS &(VCORTEX_GPU_STATUS_HST_ACC_DONE_MSK + \
 180042c:	00800074 	movhi	r2,1
 1800430:	10800404 	addi	r2,r2,16
 1800434:	10800037 	ldwio	r2,0(r2)
 1800438:	00c00304 	movi	r3,12
 180043c:	108003cc 	andi	r2,r2,15
									 VCORTEX_GPU_STATUS_HST_MUL_DONE_MSK + \
									 VCORTEX_GPU_STATUS_PICASSO_BUSY_MSK + \
									 VCORTEX_GPU_STATUS_EUCLID_BUSY_MSK))   \
			!= (VCORTEX_GPU_STATUS_HST_MUL_DONE_MSK+VCORTEX_GPU_STATUS_HST_ACC_DONE_MSK))
	{
		chThdSleepMilliseconds(1);
 1800440:	01000044 	movi	r4,1
	return;
}

void gpu_fill(GPU_FILL_JOB_T job, alt_u8 wait) {
	//wait for GPU to be free
	while((IORD_VCORTEX_GPU_STATUS &(VCORTEX_GPU_STATUS_HST_ACC_DONE_MSK + \
 1800444:	10fff81e 	bne	r2,r3,1800428 <gpu_fill+0x60>
	{
		chThdSleepMilliseconds(1);
	}


	IOWR_VCORTEX_GPU_JOB_BFFR_1(PACK_HSI_PXL(job.fill_color));
 1800448:	80803fcc 	andi	r2,r16,255
 180044c:	89003fcc 	andi	r4,r17,255
 1800450:	1004917a 	slli	r2,r2,5
 1800454:	200890fa 	slli	r4,r4,3
 1800458:	90c03fcc 	andi	r3,r18,255
 180045c:	10c5883a 	add	r2,r2,r3
 1800460:	2089883a 	add	r4,r4,r2
 1800464:	00800074 	movhi	r2,1
 1800468:	10800c04 	addi	r2,r2,48
 180046c:	11000035 	stwio	r4,0(r2)
	IOWR_VCORTEX_GPU_JOB_BFFR_2(PACK_HSI_PXL(job.line_color));
 1800470:	98803fcc 	andi	r2,r19,255
 1800474:	a1003fcc 	andi	r4,r20,255
 1800478:	1004917a 	slli	r2,r2,5
 180047c:	200890fa 	slli	r4,r4,3
 1800480:	a8c03fcc 	andi	r3,r21,255
 1800484:	10c5883a 	add	r2,r2,r3
 1800488:	2089883a 	add	r4,r4,r2
 180048c:	00800074 	movhi	r2,1
 1800490:	10801004 	addi	r2,r2,64
 1800494:	11000035 	stwio	r4,0(r2)
	IOWR_VCORTEX_GPU_JOB_BFFR_3(job.seed.x);
 1800498:	b0ffffcc 	andi	r3,r22,65535
 180049c:	10800404 	addi	r2,r2,16
 18004a0:	10c00035 	stwio	r3,0(r2)
	IOWR_VCORTEX_GPU_JOB_BFFR_4(job.seed.y);
 18004a4:	e0ffffcc 	andi	r3,fp,65535
 18004a8:	10800404 	addi	r2,r2,16
 18004ac:	10c00035 	stwio	r3,0(r2)
	IOWR_VCORTEX_GPU_JOB_BFFR_0(FILL);
 18004b0:	00c00044 	movi	r3,1
 18004b4:	10bff004 	addi	r2,r2,-64
 18004b8:	10c00035 	stwio	r3,0(r2)

	if(wait) {
 18004bc:	b8803fcc 	andi	r2,r23,255
 18004c0:	10000826 	beq	r2,zero,18004e4 <gpu_fill+0x11c>
 18004c4:	00000106 	br	18004cc <gpu_fill+0x104>
		while(IORD_VCORTEX_GPU_STATUS & VCORTEX_GPU_STATUS_PICASSO_BUSY_MSK) {
			chThdSleepMilliseconds(1);
 18004c8:	1800e600 	call	1800e60 <chThdSleep>
	IOWR_VCORTEX_GPU_JOB_BFFR_3(job.seed.x);
	IOWR_VCORTEX_GPU_JOB_BFFR_4(job.seed.y);
	IOWR_VCORTEX_GPU_JOB_BFFR_0(FILL);

	if(wait) {
		while(IORD_VCORTEX_GPU_STATUS & VCORTEX_GPU_STATUS_PICASSO_BUSY_MSK) {
 18004cc:	00800074 	movhi	r2,1
 18004d0:	10800404 	addi	r2,r2,16
 18004d4:	10800037 	ldwio	r2,0(r2)
			chThdSleepMilliseconds(1);
 18004d8:	01000044 	movi	r4,1
	IOWR_VCORTEX_GPU_JOB_BFFR_3(job.seed.x);
	IOWR_VCORTEX_GPU_JOB_BFFR_4(job.seed.y);
	IOWR_VCORTEX_GPU_JOB_BFFR_0(FILL);

	if(wait) {
		while(IORD_VCORTEX_GPU_STATUS & VCORTEX_GPU_STATUS_PICASSO_BUSY_MSK) {
 18004dc:	1080008c 	andi	r2,r2,2
 18004e0:	103ff91e 	bne	r2,zero,18004c8 <gpu_fill+0x100>
			chThdSleepMilliseconds(1);
		}
	}

	return;
}
 18004e4:	dfc00c17 	ldw	ra,48(sp)
 18004e8:	df000b17 	ldw	fp,44(sp)
 18004ec:	ddc00a17 	ldw	r23,40(sp)
 18004f0:	dd800917 	ldw	r22,36(sp)
 18004f4:	dd400817 	ldw	r21,32(sp)
 18004f8:	dd000717 	ldw	r20,28(sp)
 18004fc:	dcc00617 	ldw	r19,24(sp)
 1800500:	dc800517 	ldw	r18,20(sp)
 1800504:	dc400417 	ldw	r17,16(sp)
 1800508:	dc000317 	ldw	r16,12(sp)
 180050c:	dec00d04 	addi	sp,sp,52
 1800510:	f800283a 	ret

01800514 <gpu_draw_bezier>:
	}

	return;
}

void gpu_draw_bezier(GPU_DRAW_BEZIER_T job, alt_u8 wait){
 1800514:	defff004 	addi	sp,sp,-64
 1800518:	d8801003 	ldbu	r2,64(sp)
 180051c:	d9c00315 	stw	r7,12(sp)
 1800520:	d9000015 	stw	r4,0(sp)
 1800524:	d9400115 	stw	r5,4(sp)
 1800528:	d9800215 	stw	r6,8(sp)
 180052c:	df000e15 	stw	fp,56(sp)
 1800530:	ddc00d15 	stw	r23,52(sp)
 1800534:	dd800c15 	stw	r22,48(sp)
 1800538:	dd400b15 	stw	r21,44(sp)
 180053c:	dd000a15 	stw	r20,40(sp)
 1800540:	dcc00915 	stw	r19,36(sp)
 1800544:	dc800815 	stw	r18,32(sp)
 1800548:	dc400715 	stw	r17,28(sp)
 180054c:	dc000615 	stw	r16,24(sp)
 1800550:	d8800505 	stb	r2,20(sp)
 1800554:	df000383 	ldbu	fp,14(sp)
 1800558:	d88003c3 	ldbu	r2,15(sp)
 180055c:	ddc00343 	ldbu	r23,13(sp)
 1800560:	dd800303 	ldbu	r22,12(sp)
 1800564:	dd40028b 	ldhu	r21,10(sp)
 1800568:	dd00020b 	ldhu	r20,8(sp)
 180056c:	dcc0018b 	ldhu	r19,6(sp)
 1800570:	dc80010b 	ldhu	r18,4(sp)
 1800574:	dc40008b 	ldhu	r17,2(sp)
 1800578:	dc00000b 	ldhu	r16,0(sp)
 180057c:	dfc00f15 	stw	ra,60(sp)
 1800580:	d8800405 	stb	r2,16(sp)
 1800584:	00000106 	br	180058c <gpu_draw_bezier+0x78>
									 VCORTEX_GPU_STATUS_HST_MUL_DONE_MSK + \
									 VCORTEX_GPU_STATUS_PICASSO_BUSY_MSK + \
									 VCORTEX_GPU_STATUS_EUCLID_BUSY_MSK))   \
			!= (VCORTEX_GPU_STATUS_HST_MUL_DONE_MSK+VCORTEX_GPU_STATUS_HST_ACC_DONE_MSK))
	{
		chThdSleepMilliseconds(1);
 1800588:	1800e600 	call	1800e60 <chThdSleep>
	return;
}

void gpu_draw_bezier(GPU_DRAW_BEZIER_T job, alt_u8 wait){
	//wait for GPU to be free
	while((IORD_VCORTEX_GPU_STATUS &(VCORTEX_GPU_STATUS_HST_ACC_DONE_MSK + \
 180058c:	00800074 	movhi	r2,1
 1800590:	10800404 	addi	r2,r2,16
 1800594:	10800037 	ldwio	r2,0(r2)
 1800598:	00c00304 	movi	r3,12
 180059c:	108003cc 	andi	r2,r2,15
									 VCORTEX_GPU_STATUS_HST_MUL_DONE_MSK + \
									 VCORTEX_GPU_STATUS_PICASSO_BUSY_MSK + \
									 VCORTEX_GPU_STATUS_EUCLID_BUSY_MSK))   \
			!= (VCORTEX_GPU_STATUS_HST_MUL_DONE_MSK+VCORTEX_GPU_STATUS_HST_ACC_DONE_MSK))
	{
		chThdSleepMilliseconds(1);
 18005a0:	01000044 	movi	r4,1
	return;
}

void gpu_draw_bezier(GPU_DRAW_BEZIER_T job, alt_u8 wait){
	//wait for GPU to be free
	while((IORD_VCORTEX_GPU_STATUS &(VCORTEX_GPU_STATUS_HST_ACC_DONE_MSK + \
 18005a4:	10fff81e 	bne	r2,r3,1800588 <gpu_draw_bezier+0x74>
	{
		chThdSleepMilliseconds(1);
	}


	IOWR_VCORTEX_GPU_JOB_BFFR_1(BEZIER);
 18005a8:	00800074 	movhi	r2,1
 18005ac:	10800c04 	addi	r2,r2,48
 18005b0:	11000035 	stwio	r4,0(r2)
	IOWR_VCORTEX_GPU_JOB_BFFR_2(job.p0.x);
 18005b4:	80ffffcc 	andi	r3,r16,65535
 18005b8:	10800404 	addi	r2,r2,16
 18005bc:	10c00035 	stwio	r3,0(r2)
	IOWR_VCORTEX_GPU_JOB_BFFR_3(job.p0.y);
 18005c0:	88ffffcc 	andi	r3,r17,65535
 18005c4:	10800404 	addi	r2,r2,16
 18005c8:	10c00035 	stwio	r3,0(r2)
	IOWR_VCORTEX_GPU_JOB_BFFR_4(job.p1.x);
 18005cc:	90ffffcc 	andi	r3,r18,65535
 18005d0:	10800404 	addi	r2,r2,16
 18005d4:	10c00035 	stwio	r3,0(r2)
	IOWR_VCORTEX_GPU_JOB_BFFR_5(job.p1.y);
 18005d8:	98ffffcc 	andi	r3,r19,65535
 18005dc:	10800404 	addi	r2,r2,16
 18005e0:	10c00035 	stwio	r3,0(r2)
	IOWR_VCORTEX_GPU_JOB_BFFR_6(job.p2.x);
 18005e4:	a0ffffcc 	andi	r3,r20,65535
 18005e8:	10800404 	addi	r2,r2,16
 18005ec:	10c00035 	stwio	r3,0(r2)
	IOWR_VCORTEX_GPU_JOB_BFFR_7(job.p2.y);
 18005f0:	a8ffffcc 	andi	r3,r21,65535
 18005f4:	10800404 	addi	r2,r2,16
 18005f8:	10c00035 	stwio	r3,0(r2)
	IOWR_VCORTEX_GPU_JOB_BFFR_8(PACK_HSI_PXL(job.color));
 18005fc:	b0803fcc 	andi	r2,r22,255
 1800600:	b9003fcc 	andi	r4,r23,255
 1800604:	1004917a 	slli	r2,r2,5
 1800608:	200890fa 	slli	r4,r4,3
 180060c:	e0c03fcc 	andi	r3,fp,255
 1800610:	10c5883a 	add	r2,r2,r3
 1800614:	2089883a 	add	r4,r4,r2
 1800618:	00800074 	movhi	r2,1
 180061c:	10802804 	addi	r2,r2,160
 1800620:	11000035 	stwio	r4,0(r2)
	IOWR_VCORTEX_GPU_JOB_BFFR_9(job.depth);
 1800624:	d8c00403 	ldbu	r3,16(sp)
 1800628:	10800404 	addi	r2,r2,16
 180062c:	10c00035 	stwio	r3,0(r2)
	IOWR_VCORTEX_GPU_JOB_BFFR_0(DRAW);
 1800630:	10bfdc04 	addi	r2,r2,-144
 1800634:	10000035 	stwio	zero,0(r2)

	if(wait) {
 1800638:	d8800503 	ldbu	r2,20(sp)
 180063c:	10000826 	beq	r2,zero,1800660 <gpu_draw_bezier+0x14c>
 1800640:	00000106 	br	1800648 <gpu_draw_bezier+0x134>
		while(IORD_VCORTEX_GPU_STATUS & VCORTEX_GPU_STATUS_EUCLID_BUSY_MSK) {
			chThdSleepMilliseconds(1);
 1800644:	1800e600 	call	1800e60 <chThdSleep>
	IOWR_VCORTEX_GPU_JOB_BFFR_8(PACK_HSI_PXL(job.color));
	IOWR_VCORTEX_GPU_JOB_BFFR_9(job.depth);
	IOWR_VCORTEX_GPU_JOB_BFFR_0(DRAW);

	if(wait) {
		while(IORD_VCORTEX_GPU_STATUS & VCORTEX_GPU_STATUS_EUCLID_BUSY_MSK) {
 1800648:	00800074 	movhi	r2,1
 180064c:	10800404 	addi	r2,r2,16
 1800650:	10800037 	ldwio	r2,0(r2)
			chThdSleepMilliseconds(1);
 1800654:	01000044 	movi	r4,1
	IOWR_VCORTEX_GPU_JOB_BFFR_8(PACK_HSI_PXL(job.color));
	IOWR_VCORTEX_GPU_JOB_BFFR_9(job.depth);
	IOWR_VCORTEX_GPU_JOB_BFFR_0(DRAW);

	if(wait) {
		while(IORD_VCORTEX_GPU_STATUS & VCORTEX_GPU_STATUS_EUCLID_BUSY_MSK) {
 1800658:	1104703a 	and	r2,r2,r4
 180065c:	103ff91e 	bne	r2,zero,1800644 <gpu_draw_bezier+0x130>
			chThdSleepMilliseconds(1);
		}
	}

	return;
}
 1800660:	dfc00f17 	ldw	ra,60(sp)
 1800664:	df000e17 	ldw	fp,56(sp)
 1800668:	ddc00d17 	ldw	r23,52(sp)
 180066c:	dd800c17 	ldw	r22,48(sp)
 1800670:	dd400b17 	ldw	r21,44(sp)
 1800674:	dd000a17 	ldw	r20,40(sp)
 1800678:	dcc00917 	ldw	r19,36(sp)
 180067c:	dc800817 	ldw	r18,32(sp)
 1800680:	dc400717 	ldw	r17,28(sp)
 1800684:	dc000617 	ldw	r16,24(sp)
 1800688:	dec01004 	addi	sp,sp,64
 180068c:	f800283a 	ret

01800690 <gpu_draw_line>:
void disable_gpu() {
	IOWR_VCORTEX_GPU_CONTROL(~VCORTEX_GPU_EN_MSK);
	return;
}

void gpu_draw_line(GPU_DRAW_LINE_JOB_T job, alt_u8 wait) {
 1800690:	defff404 	addi	sp,sp,-48
 1800694:	d9800215 	stw	r6,8(sp)
 1800698:	d9000015 	stw	r4,0(sp)
 180069c:	d9400115 	stw	r5,4(sp)
 18006a0:	dd800915 	stw	r22,36(sp)
 18006a4:	dd400815 	stw	r21,32(sp)
 18006a8:	dd000715 	stw	r20,28(sp)
 18006ac:	dcc00615 	stw	r19,24(sp)
 18006b0:	dc800515 	stw	r18,20(sp)
 18006b4:	dc400415 	stw	r17,16(sp)
 18006b8:	dc000315 	stw	r16,12(sp)
 18006bc:	dd800283 	ldbu	r22,10(sp)
 18006c0:	dd400243 	ldbu	r21,9(sp)
 18006c4:	dd000203 	ldbu	r20,8(sp)
 18006c8:	dcc0018b 	ldhu	r19,6(sp)
 18006cc:	dc80010b 	ldhu	r18,4(sp)
 18006d0:	dc40008b 	ldhu	r17,2(sp)
 18006d4:	dc00000b 	ldhu	r16,0(sp)
 18006d8:	ddc00a15 	stw	r23,40(sp)
 18006dc:	382f883a 	mov	r23,r7
 18006e0:	dfc00b15 	stw	ra,44(sp)
 18006e4:	00000106 	br	18006ec <gpu_draw_line+0x5c>
				  	  	  	  	  	 VCORTEX_GPU_STATUS_HST_MUL_DONE_MSK + \
				  	  	  	  	  	 VCORTEX_GPU_STATUS_PICASSO_BUSY_MSK + \
				  	  	  	  	  	 VCORTEX_GPU_STATUS_EUCLID_BUSY_MSK))   \
			!= (VCORTEX_GPU_STATUS_HST_MUL_DONE_MSK+VCORTEX_GPU_STATUS_HST_ACC_DONE_MSK))
	{
		chThdSleepMilliseconds(1);
 18006e8:	1800e600 	call	1800e60 <chThdSleep>
	return;
}

void gpu_draw_line(GPU_DRAW_LINE_JOB_T job, alt_u8 wait) {
	//wait for GPU to be free
	while((IORD_VCORTEX_GPU_STATUS &(VCORTEX_GPU_STATUS_HST_ACC_DONE_MSK + \
 18006ec:	00800074 	movhi	r2,1
 18006f0:	10800404 	addi	r2,r2,16
 18006f4:	10800037 	ldwio	r2,0(r2)
 18006f8:	00c00304 	movi	r3,12
 18006fc:	108003cc 	andi	r2,r2,15
				  	  	  	  	  	 VCORTEX_GPU_STATUS_HST_MUL_DONE_MSK + \
				  	  	  	  	  	 VCORTEX_GPU_STATUS_PICASSO_BUSY_MSK + \
				  	  	  	  	  	 VCORTEX_GPU_STATUS_EUCLID_BUSY_MSK))   \
			!= (VCORTEX_GPU_STATUS_HST_MUL_DONE_MSK+VCORTEX_GPU_STATUS_HST_ACC_DONE_MSK))
	{
		chThdSleepMilliseconds(1);
 1800700:	01000044 	movi	r4,1
	return;
}

void gpu_draw_line(GPU_DRAW_LINE_JOB_T job, alt_u8 wait) {
	//wait for GPU to be free
	while((IORD_VCORTEX_GPU_STATUS &(VCORTEX_GPU_STATUS_HST_ACC_DONE_MSK + \
 1800704:	10fff81e 	bne	r2,r3,18006e8 <gpu_draw_line+0x58>
	{
		chThdSleepMilliseconds(1);
	}


	IOWR_VCORTEX_GPU_JOB_BFFR_1(LINE);
 1800708:	00800074 	movhi	r2,1
 180070c:	10800c04 	addi	r2,r2,48
 1800710:	10000035 	stwio	zero,0(r2)
	IOWR_VCORTEX_GPU_JOB_BFFR_2(job.start.x);
 1800714:	80ffffcc 	andi	r3,r16,65535
 1800718:	10800404 	addi	r2,r2,16
 180071c:	10c00035 	stwio	r3,0(r2)
	IOWR_VCORTEX_GPU_JOB_BFFR_3(job.start.y);
 1800720:	88ffffcc 	andi	r3,r17,65535
 1800724:	10800404 	addi	r2,r2,16
 1800728:	10c00035 	stwio	r3,0(r2)
	IOWR_VCORTEX_GPU_JOB_BFFR_4(job.end.x);
 180072c:	90ffffcc 	andi	r3,r18,65535
 1800730:	10800404 	addi	r2,r2,16
 1800734:	10c00035 	stwio	r3,0(r2)
	IOWR_VCORTEX_GPU_JOB_BFFR_5(job.end.y);
 1800738:	98ffffcc 	andi	r3,r19,65535
 180073c:	10800404 	addi	r2,r2,16
 1800740:	10c00035 	stwio	r3,0(r2)
	IOWR_VCORTEX_GPU_JOB_BFFR_8(PACK_HSI_PXL(job.color));
 1800744:	a0803fcc 	andi	r2,r20,255
 1800748:	a9003fcc 	andi	r4,r21,255
 180074c:	1004917a 	slli	r2,r2,5
 1800750:	200890fa 	slli	r4,r4,3
 1800754:	b0c03fcc 	andi	r3,r22,255
 1800758:	10c5883a 	add	r2,r2,r3
 180075c:	2089883a 	add	r4,r4,r2
 1800760:	00800074 	movhi	r2,1
 1800764:	10802804 	addi	r2,r2,160
 1800768:	11000035 	stwio	r4,0(r2)
	IOWR_VCORTEX_GPU_JOB_BFFR_0(DRAW);
 180076c:	10bfe004 	addi	r2,r2,-128
 1800770:	10000035 	stwio	zero,0(r2)

	if(wait) {
 1800774:	b8803fcc 	andi	r2,r23,255
 1800778:	10000826 	beq	r2,zero,180079c <gpu_draw_line+0x10c>
 180077c:	00000106 	br	1800784 <gpu_draw_line+0xf4>
		while(IORD_VCORTEX_GPU_STATUS & VCORTEX_GPU_STATUS_EUCLID_BUSY_MSK) {
			chThdSleepMilliseconds(1);
 1800780:	1800e600 	call	1800e60 <chThdSleep>
	IOWR_VCORTEX_GPU_JOB_BFFR_5(job.end.y);
	IOWR_VCORTEX_GPU_JOB_BFFR_8(PACK_HSI_PXL(job.color));
	IOWR_VCORTEX_GPU_JOB_BFFR_0(DRAW);

	if(wait) {
		while(IORD_VCORTEX_GPU_STATUS & VCORTEX_GPU_STATUS_EUCLID_BUSY_MSK) {
 1800784:	00800074 	movhi	r2,1
 1800788:	10800404 	addi	r2,r2,16
 180078c:	10800037 	ldwio	r2,0(r2)
			chThdSleepMilliseconds(1);
 1800790:	01000044 	movi	r4,1
	IOWR_VCORTEX_GPU_JOB_BFFR_5(job.end.y);
	IOWR_VCORTEX_GPU_JOB_BFFR_8(PACK_HSI_PXL(job.color));
	IOWR_VCORTEX_GPU_JOB_BFFR_0(DRAW);

	if(wait) {
		while(IORD_VCORTEX_GPU_STATUS & VCORTEX_GPU_STATUS_EUCLID_BUSY_MSK) {
 1800794:	1104703a 	and	r2,r2,r4
 1800798:	103ff91e 	bne	r2,zero,1800780 <gpu_draw_line+0xf0>
			chThdSleepMilliseconds(1);
		}
	}

	return;
}
 180079c:	dfc00b17 	ldw	ra,44(sp)
 18007a0:	ddc00a17 	ldw	r23,40(sp)
 18007a4:	dd800917 	ldw	r22,36(sp)
 18007a8:	dd400817 	ldw	r21,32(sp)
 18007ac:	dd000717 	ldw	r20,28(sp)
 18007b0:	dcc00617 	ldw	r19,24(sp)
 18007b4:	dc800517 	ldw	r18,20(sp)
 18007b8:	dc400417 	ldw	r17,16(sp)
 18007bc:	dc000317 	ldw	r16,12(sp)
 18007c0:	dec00c04 	addi	sp,sp,48
 18007c4:	f800283a 	ret

018007c8 <disable_gpu>:
	IOWR_VCORTEX_GPU_CONTROL(VCORTEX_GPU_EN_MSK);
	return;
}

void disable_gpu() {
	IOWR_VCORTEX_GPU_CONTROL(~VCORTEX_GPU_EN_MSK);
 18007c8:	00ffff84 	movi	r3,-2
 18007cc:	00800074 	movhi	r2,1
 18007d0:	10c00035 	stwio	r3,0(r2)
	return;
}
 18007d4:	f800283a 	ret

018007d8 <enable_gpu>:
#include "ch.h"
#include "sys/alt_stdio.h"


void enable_gpu() {
	IOWR_VCORTEX_GPU_CONTROL(VCORTEX_GPU_EN_MSK);
 18007d8:	00c00044 	movi	r3,1
 18007dc:	00800074 	movhi	r2,1
 18007e0:	10c00035 	stwio	r3,0(r2)
	return;
}
 18007e4:	f800283a 	ret

018007e8 <main>:
#include "ledos/ledos.h"
#include "ch.h"


int main()
{ 
 18007e8:	deffef04 	addi	sp,sp,-68
  GPU_HST_ACC_JOB_T job,rd_job;
  GPU_DRAW_LINE_JOB_T line_job;

  alt_putstr("Hello from Nios II!\n");
 18007ec:	01006074 	movhi	r4,385
 18007f0:	2124eb04 	addi	r4,r4,-27732
#include "ledos/ledos.h"
#include "ch.h"


int main()
{ 
 18007f4:	dfc01015 	stw	ra,64(sp)
 18007f8:	dd400f15 	stw	r21,60(sp)
 18007fc:	dd000e15 	stw	r20,56(sp)
 1800800:	dcc00d15 	stw	r19,52(sp)
 1800804:	dc800c15 	stw	r18,48(sp)
 1800808:	dc400b15 	stw	r17,44(sp)
 180080c:	dc000a15 	stw	r16,40(sp)
  GPU_HST_ACC_JOB_T job,rd_job;
  GPU_DRAW_LINE_JOB_T line_job;

  alt_putstr("Hello from Nios II!\n");
 1800810:	180190c0 	call	180190c <alt_putstr>

  alt_printf("GPU STATUS REG:0x%x\n",IORD_VCORTEX_GPU_STATUS);
 1800814:	00800074 	movhi	r2,1
 1800818:	10800404 	addi	r2,r2,16
 180081c:	11400037 	ldwio	r5,0(r2)
 1800820:	01006074 	movhi	r4,385
 1800824:	2124f104 	addi	r4,r4,-27708
 1800828:	18016740 	call	1801674 <alt_printf>


  vga_disable();

  job.color.h =0; job.color.s =0; job.color.i =0;
 180082c:	0023883a 	mov	r17,zero
  alt_putstr("Hello from Nios II!\n");

  alt_printf("GPU STATUS REG:0x%x\n",IORD_VCORTEX_GPU_STATUS);


  vga_disable();
 1800830:	180022c0 	call	180022c <vga_disable>

  job.color.h =0; job.color.s =0; job.color.i =0;
 1800834:	0025883a 	mov	r18,zero
 1800838:	d8000605 	stb	zero,24(sp)
 180083c:	d8000645 	stb	zero,25(sp)
 1800840:	d8000685 	stb	zero,26(sp)
 1800844:	0021883a 	mov	r16,zero
 1800848:	0009883a 	mov	r4,zero

  for(job.ptr.x=0; job.ptr.x<CANVAS_W; job.ptr.x++){
	  for(job.ptr.y=0; job.ptr.y<CANVAS_H; job.ptr.y++){
		  job.action = WRITE;

		  gpu_hst_acc(job, 1);
 180084c:	d900058d 	sth	r4,22(sp)
 1800850:	dc80050d 	sth	r18,20(sp)
 1800854:	d9800517 	ldw	r6,20(sp)
 1800858:	d9c00617 	ldw	r7,24(sp)
 180085c:	05400044 	movi	r21,1
 1800860:	d9000704 	addi	r4,sp,28
 1800864:	000b883a 	mov	r5,zero
  job.ptr.x=0; job.ptr.y=0;
  job.action = WRITE;

  for(job.ptr.x=0; job.ptr.x<CANVAS_W; job.ptr.x++){
	  for(job.ptr.y=0; job.ptr.y<CANVAS_H; job.ptr.y++){
		  job.action = WRITE;
 1800868:	d8000415 	stw	zero,16(sp)

		  gpu_hst_acc(job, 1);
 180086c:	dd400015 	stw	r21,0(sp)
 1800870:	18002600 	call	1800260 <gpu_hst_acc>
  job.color.h =0; job.color.s =0; job.color.i =0;
  job.ptr.x=0; job.ptr.y=0;
  job.action = WRITE;

  for(job.ptr.x=0; job.ptr.x<CANVAS_W; job.ptr.x++){
	  for(job.ptr.y=0; job.ptr.y<CANVAS_H; job.ptr.y++){
 1800874:	8545883a 	add	r2,r16,r21
 1800878:	1009883a 	mov	r4,r2
 180087c:	1021883a 	mov	r16,r2
 1800880:	10ffffcc 	andi	r3,r2,65535
 1800884:	00807804 	movi	r2,480
 1800888:	18bff01e 	bne	r3,r2,180084c <main+0x64>

  job.color.h =0; job.color.s =0; job.color.i =0;
  job.ptr.x=0; job.ptr.y=0;
  job.action = WRITE;

  for(job.ptr.x=0; job.ptr.x<CANVAS_W; job.ptr.x++){
 180088c:	89000044 	addi	r4,r17,1
 1800890:	20ffffcc 	andi	r3,r4,65535
 1800894:	0080a004 	movi	r2,640
 1800898:	2023883a 	mov	r17,r4
 180089c:	18800226 	beq	r3,r2,18008a8 <main+0xc0>
 18008a0:	2025883a 	mov	r18,r4
 18008a4:	003fe706 	br	1800844 <main+0x5c>
  line_job.start.x = 10;
  line_job.start.y = 10;
  line_job.end.x = 400;
  line_job.end.y = 400;

  gpu_draw_line(line_job, 1);
 18008a8:	04406404 	movi	r17,400
 18008ac:	04000284 	movi	r16,10
 18008b0:	048000c4 	movi	r18,3
 18008b4:	04c001c4 	movi	r19,7

		  gpu_hst_acc(job, 1);
	  }
  }

  alt_putstr("FB Init Done\n");
 18008b8:	01006074 	movhi	r4,385
 18008bc:	2124f704 	addi	r4,r4,-27684
 18008c0:	180190c0 	call	180190c <alt_putstr>
  line_job.start.x = 10;
  line_job.start.y = 10;
  line_job.end.x = 400;
  line_job.end.y = 400;

  gpu_draw_line(line_job, 1);
 18008c4:	dd400305 	stb	r21,12(sp)
 18008c8:	dc40028d 	sth	r17,10(sp)
 18008cc:	dc40020d 	sth	r17,8(sp)
 18008d0:	dc00018d 	sth	r16,6(sp)
 18008d4:	dc00010d 	sth	r16,4(sp)
 18008d8:	dcc00385 	stb	r19,14(sp)
 18008dc:	dc800345 	stb	r18,13(sp)
 18008e0:	d9000117 	ldw	r4,4(sp)
 18008e4:	d9400217 	ldw	r5,8(sp)
 18008e8:	d9800317 	ldw	r6,12(sp)
 18008ec:	a80f883a 	mov	r7,r21
 18008f0:	18006900 	call	1800690 <gpu_draw_line>
  line_job.start.x = 10;
  line_job.start.y = 400;
  line_job.end.x = 400;
  line_job.end.y = 10;

  gpu_draw_line(line_job, 1);
 18008f4:	dcc00385 	stb	r19,14(sp)
 18008f8:	dc00028d 	sth	r16,10(sp)
 18008fc:	dc40020d 	sth	r17,8(sp)
 1800900:	dc40018d 	sth	r17,6(sp)
 1800904:	dc00010d 	sth	r16,4(sp)
 1800908:	dc800345 	stb	r18,13(sp)
 180090c:	dc800305 	stb	r18,12(sp)
 1800910:	d9400217 	ldw	r5,8(sp)
 1800914:	d9800317 	ldw	r6,12(sp)
 1800918:	d9000117 	ldw	r4,4(sp)
 180091c:	a80f883a 	mov	r7,r21
 1800920:	18006900 	call	1800690 <gpu_draw_line>

  alt_putstr("Enabling VGA\n");
 1800924:	01006074 	movhi	r4,385
 1800928:	2124fb04 	addi	r4,r4,-27668
 180092c:	180190c0 	call	180190c <alt_putstr>

  set_vga_mode(NORMAL);
 1800930:	0009883a 	mov	r4,zero
 1800934:	18002000 	call	1800200 <set_vga_mode>
  vga_en();
 1800938:	18002480 	call	1800248 <vga_en>

  alt_printf("VGA Control Reg:0x%x\n",IORD_VCORTEX_VGA_CONTROL);
 180093c:	00800074 	movhi	r2,1
 1800940:	10840004 	addi	r2,r2,4096
 1800944:	11400037 	ldwio	r5,0(r2)
 1800948:	01006074 	movhi	r4,385
 180094c:	2124ff04 	addi	r4,r4,-27652
 1800950:	18016740 	call	1801674 <alt_printf>
 1800954:	882b883a 	mov	r21,r17
 1800958:	8029883a 	mov	r20,r16
 180095c:	9027883a 	mov	r19,r18

  while(1){
	  line_job.color.h= (line_job.color.h + 1) & 0x7;
 1800960:	98c00044 	addi	r3,r19,1
	  line_job.color.s= (line_job.color.s + 1) & 0x3;
 1800964:	92000044 	addi	r8,r18,1
	  line_job.color.i= 0x7;
	  line_job.start.x = (line_job.start.x + 1) & 0xff;
 1800968:	a2400044 	addi	r9,r20,1
	  line_job.start.y = (line_job.start.y + 1) & 0xff;
 180096c:	aa800044 	addi	r10,r21,1
	  line_job.end.x = (line_job.end.x + 1) & 0xff;
 1800970:	8ac00044 	addi	r11,r17,1
	  line_job.end.y = (line_job.end.y + 1) & 0xff;
 1800974:	83000044 	addi	r12,r16,1
  vga_en();

  alt_printf("VGA Control Reg:0x%x\n",IORD_VCORTEX_VGA_CONTROL);

  while(1){
	  line_job.color.h= (line_job.color.h + 1) & 0x7;
 1800978:	18c001cc 	andi	r3,r3,7
	  line_job.color.s= (line_job.color.s + 1) & 0x3;
 180097c:	420000cc 	andi	r8,r8,3
	  line_job.color.i= 0x7;
	  line_job.start.x = (line_job.start.x + 1) & 0xff;
 1800980:	4a403fcc 	andi	r9,r9,255
	  line_job.start.y = (line_job.start.y + 1) & 0xff;
 1800984:	52803fcc 	andi	r10,r10,255
	  line_job.end.x = (line_job.end.x + 1) & 0xff;
 1800988:	5ac03fcc 	andi	r11,r11,255
	  line_job.end.y = (line_job.end.y + 1) & 0xff;
 180098c:	63003fcc 	andi	r12,r12,255

	  gpu_draw_line(line_job, 1);
 1800990:	008001c4 	movi	r2,7
 1800994:	db00028d 	sth	r12,10(sp)
 1800998:	dac0020d 	sth	r11,8(sp)
 180099c:	da80018d 	sth	r10,6(sp)
 18009a0:	da40010d 	sth	r9,4(sp)
 18009a4:	d8800385 	stb	r2,14(sp)
 18009a8:	da000345 	stb	r8,13(sp)
 18009ac:	d8c00305 	stb	r3,12(sp)
 18009b0:	d9000117 	ldw	r4,4(sp)
 18009b4:	d9400217 	ldw	r5,8(sp)
 18009b8:	d9800317 	ldw	r6,12(sp)
 18009bc:	01c00044 	movi	r7,1
  vga_en();

  alt_printf("VGA Control Reg:0x%x\n",IORD_VCORTEX_VGA_CONTROL);

  while(1){
	  line_job.color.h= (line_job.color.h + 1) & 0x7;
 18009c0:	1827883a 	mov	r19,r3
	  line_job.color.s= (line_job.color.s + 1) & 0x3;
 18009c4:	4025883a 	mov	r18,r8
	  line_job.color.i= 0x7;
	  line_job.start.x = (line_job.start.x + 1) & 0xff;
 18009c8:	4829883a 	mov	r20,r9
	  line_job.start.y = (line_job.start.y + 1) & 0xff;
 18009cc:	502b883a 	mov	r21,r10
	  line_job.end.x = (line_job.end.x + 1) & 0xff;
 18009d0:	5823883a 	mov	r17,r11
	  line_job.end.y = (line_job.end.y + 1) & 0xff;
 18009d4:	6021883a 	mov	r16,r12

	  gpu_draw_line(line_job, 1);
 18009d8:	18006900 	call	1800690 <gpu_draw_line>

	  chThdSleepMilliseconds(30);
 18009dc:	01000784 	movi	r4,30
 18009e0:	1800e600 	call	1800e60 <chThdSleep>
 18009e4:	003fde06 	br	1800960 <main+0x178>

018009e8 <_thread_init>:
 * @param[in] prio      the priority level for the new thread
 * @return              The same thread pointer passed as parameter.
 *
 * @notapi
 */
Thread *_thread_init(Thread *tp, tprio_t prio) {
 18009e8:	defffd04 	addi	sp,sp,-12
 18009ec:	df000215 	stw	fp,8(sp)
 18009f0:	df000204 	addi	fp,sp,8
 18009f4:	e13ffe15 	stw	r4,-8(fp)
 18009f8:	e17fff15 	stw	r5,-4(fp)

  tp->p_prio = prio;
 18009fc:	e0fffe17 	ldw	r3,-8(fp)
 1800a00:	e0bfff17 	ldw	r2,-4(fp)
 1800a04:	18800215 	stw	r2,8(r3)
  tp->p_state = THD_STATE_SUSPENDED;
 1800a08:	e0fffe17 	ldw	r3,-8(fp)
 1800a0c:	00800084 	movi	r2,2
 1800a10:	18800705 	stb	r2,28(r3)
  tp->p_flags = THD_MEM_MODE_STATIC;
 1800a14:	e0bffe17 	ldw	r2,-8(fp)
 1800a18:	10000745 	stb	zero,29(r2)
#if CH_USE_MUTEXES
  tp->p_realprio = prio;
 1800a1c:	e0fffe17 	ldw	r3,-8(fp)
 1800a20:	e0bfff17 	ldw	r2,-4(fp)
 1800a24:	18801015 	stw	r2,64(r3)
  tp->p_mtxlist = NULL;
 1800a28:	e0bffe17 	ldw	r2,-8(fp)
 1800a2c:	10000f15 	stw	zero,60(r2)
#endif
#if CH_USE_EVENTS
  tp->p_epending = 0;
 1800a30:	e0bffe17 	ldw	r2,-8(fp)
 1800a34:	10000e15 	stw	zero,56(r2)
#endif
#if CH_DBG_THREADS_PROFILING
  tp->p_time = 0;
 1800a38:	e0bffe17 	ldw	r2,-8(fp)
 1800a3c:	10000815 	stw	zero,32(r2)
#endif
#if CH_USE_DYNAMIC
  tp->p_refs = 1;
 1800a40:	e0fffe17 	ldw	r3,-8(fp)
 1800a44:	00800044 	movi	r2,1
 1800a48:	18800785 	stb	r2,30(r3)
#endif
#if CH_USE_REGISTRY
  tp->p_name = NULL;
 1800a4c:	e0bffe17 	ldw	r2,-8(fp)
 1800a50:	10000615 	stw	zero,24(r2)
  REG_INSERT(tp);
 1800a54:	00c06074 	movhi	r3,385
 1800a58:	18f2d104 	addi	r3,r3,-13500
 1800a5c:	e0bffe17 	ldw	r2,-8(fp)
 1800a60:	10c00415 	stw	r3,16(r2)
 1800a64:	00806074 	movhi	r2,385
 1800a68:	10b2d104 	addi	r2,r2,-13500
 1800a6c:	10c00517 	ldw	r3,20(r2)
 1800a70:	e0bffe17 	ldw	r2,-8(fp)
 1800a74:	10c00515 	stw	r3,20(r2)
 1800a78:	e0bffe17 	ldw	r2,-8(fp)
 1800a7c:	11000517 	ldw	r4,20(r2)
 1800a80:	00c06074 	movhi	r3,385
 1800a84:	18f2d104 	addi	r3,r3,-13500
 1800a88:	e0bffe17 	ldw	r2,-8(fp)
 1800a8c:	18800515 	stw	r2,20(r3)
 1800a90:	00806074 	movhi	r2,385
 1800a94:	10b2d104 	addi	r2,r2,-13500
 1800a98:	10800517 	ldw	r2,20(r2)
 1800a9c:	20800415 	stw	r2,16(r4)
#endif
#if CH_USE_WAITEXIT
  list_init(&tp->p_waiting);
 1800aa0:	e0bffe17 	ldw	r2,-8(fp)
 1800aa4:	10800a04 	addi	r2,r2,40
 1800aa8:	1007883a 	mov	r3,r2
 1800aac:	e0bffe17 	ldw	r2,-8(fp)
 1800ab0:	10c00a15 	stw	r3,40(r2)
#endif
#if CH_USE_MESSAGES
  queue_init(&tp->p_msgqueue);
 1800ab4:	e0bffe17 	ldw	r2,-8(fp)
 1800ab8:	10800b04 	addi	r2,r2,44
 1800abc:	1007883a 	mov	r3,r2
 1800ac0:	e0bffe17 	ldw	r2,-8(fp)
 1800ac4:	10c00c15 	stw	r3,48(r2)
 1800ac8:	e0bffe17 	ldw	r2,-8(fp)
 1800acc:	10c00c17 	ldw	r3,48(r2)
 1800ad0:	e0bffe17 	ldw	r2,-8(fp)
 1800ad4:	10c00b15 	stw	r3,44(r2)
  tp->p_stklimit = (stkalign_t *)(tp + 1);
#endif
#if defined(THREAD_EXT_INIT_HOOK)
  THREAD_EXT_INIT_HOOK(tp);
#endif
  return tp;
 1800ad8:	e0bffe17 	ldw	r2,-8(fp)
}
 1800adc:	e037883a 	mov	sp,fp
 1800ae0:	df000017 	ldw	fp,0(sp)
 1800ae4:	dec00104 	addi	sp,sp,4
 1800ae8:	f800283a 	ret

01800aec <chThdCreateI>:
 *                      the thread into the working space area.
 *
 * @iclass
 */
Thread *chThdCreateI(void *wsp, size_t size,
                     tprio_t prio, tfunc_t pf, void *arg) {
 1800aec:	defff904 	addi	sp,sp,-28
 1800af0:	dfc00615 	stw	ra,24(sp)
 1800af4:	df000515 	stw	fp,20(sp)
 1800af8:	df000504 	addi	fp,sp,20
 1800afc:	e13ffc15 	stw	r4,-16(fp)
 1800b00:	e17ffd15 	stw	r5,-12(fp)
 1800b04:	e1bffe15 	stw	r6,-8(fp)
 1800b08:	e1ffff15 	stw	r7,-4(fp)
  /* Thread structure is layed out in the lower part of the thread workspace */
  Thread *tp = wsp;
 1800b0c:	e0bffc17 	ldw	r2,-16(fp)
 1800b10:	e0bffb15 	stw	r2,-20(fp)

  chDbgCheckClassI();

  chDbgCheck((wsp != NULL) && (size >= THD_WA_SIZE(0)) &&
 1800b14:	e0bffc17 	ldw	r2,-16(fp)
 1800b18:	1005003a 	cmpeq	r2,r2,zero
 1800b1c:	1000061e 	bne	r2,zero,1800b38 <chThdCreateI+0x4c>
 1800b20:	e0bffd17 	ldw	r2,-12(fp)
 1800b24:	10805030 	cmpltui	r2,r2,320
 1800b28:	1000031e 	bne	r2,zero,1800b38 <chThdCreateI+0x4c>
 1800b2c:	e0bffe17 	ldw	r2,-8(fp)
 1800b30:	10802028 	cmpgeui	r2,r2,128
 1800b34:	1000001e 	bne	r2,zero,1800b38 <chThdCreateI+0x4c>
             (prio <= HIGHPRIO) && (pf != NULL),
             "chThdCreateI");
  SETUP_CONTEXT(wsp, size, pf, arg);
 1800b38:	e0fffc17 	ldw	r3,-16(fp)
 1800b3c:	e0bffd17 	ldw	r2,-12(fp)
 1800b40:	1885883a 	add	r2,r3,r2
 1800b44:	10bff504 	addi	r2,r2,-44
 1800b48:	1007883a 	mov	r3,r2
 1800b4c:	e0bffb17 	ldw	r2,-20(fp)
 1800b50:	10c00315 	stw	r3,12(r2)
 1800b54:	e0bffb17 	ldw	r2,-20(fp)
 1800b58:	10c00317 	ldw	r3,12(r2)
 1800b5c:	e0bfff17 	ldw	r2,-4(fp)
 1800b60:	18800215 	stw	r2,8(r3)
 1800b64:	e0bffb17 	ldw	r2,-20(fp)
 1800b68:	10c00317 	ldw	r3,12(r2)
 1800b6c:	e0800217 	ldw	r2,8(fp)
 1800b70:	18800315 	stw	r2,12(r3)
 1800b74:	e0bffb17 	ldw	r2,-20(fp)
 1800b78:	10c00317 	ldw	r3,12(r2)
 1800b7c:	00860634 	movhi	r2,6168
 1800b80:	10860604 	addi	r2,r2,6168
 1800b84:	18800415 	stw	r2,16(r3)
 1800b88:	e0bffb17 	ldw	r2,-20(fp)
 1800b8c:	10c00317 	ldw	r3,12(r2)
 1800b90:	00864674 	movhi	r2,6425
 1800b94:	10864644 	addi	r2,r2,6425
 1800b98:	18800515 	stw	r2,20(r3)
 1800b9c:	e0bffb17 	ldw	r2,-20(fp)
 1800ba0:	10c00317 	ldw	r3,12(r2)
 1800ba4:	00880834 	movhi	r2,8224
 1800ba8:	10880804 	addi	r2,r2,8224
 1800bac:	18800615 	stw	r2,24(r3)
 1800bb0:	e0bffb17 	ldw	r2,-20(fp)
 1800bb4:	10c00317 	ldw	r3,12(r2)
 1800bb8:	00884874 	movhi	r2,8481
 1800bbc:	10884844 	addi	r2,r2,8481
 1800bc0:	18800715 	stw	r2,28(r3)
 1800bc4:	e0bffb17 	ldw	r2,-20(fp)
 1800bc8:	10c00317 	ldw	r3,12(r2)
 1800bcc:	008888b4 	movhi	r2,8738
 1800bd0:	10888884 	addi	r2,r2,8738
 1800bd4:	18800815 	stw	r2,32(r3)
 1800bd8:	e0bffb17 	ldw	r2,-20(fp)
 1800bdc:	10c00317 	ldw	r3,12(r2)
 1800be0:	0088c8f4 	movhi	r2,8995
 1800be4:	1088c8c4 	addi	r2,r2,8995
 1800be8:	18800915 	stw	r2,36(r3)
 1800bec:	e0bffb17 	ldw	r2,-20(fp)
 1800bf0:	10c00317 	ldw	r3,12(r2)
 1800bf4:	00800044 	movi	r2,1
 1800bf8:	18800a15 	stw	r2,40(r3)
 1800bfc:	e0bffb17 	ldw	r2,-20(fp)
 1800c00:	10c00317 	ldw	r3,12(r2)
 1800c04:	008a0a34 	movhi	r2,10280
 1800c08:	108a0a04 	addi	r2,r2,10280
 1800c0c:	18800115 	stw	r2,4(r3)
 1800c10:	e0bffb17 	ldw	r2,-20(fp)
 1800c14:	10c00317 	ldw	r3,12(r2)
 1800c18:	00806034 	movhi	r2,384
 1800c1c:	10851d04 	addi	r2,r2,5236
 1800c20:	18800015 	stw	r2,0(r3)
  return _thread_init(tp, prio);
 1800c24:	e13ffb17 	ldw	r4,-20(fp)
 1800c28:	e17ffe17 	ldw	r5,-8(fp)
 1800c2c:	18009e80 	call	18009e8 <_thread_init>
}
 1800c30:	e037883a 	mov	sp,fp
 1800c34:	dfc00117 	ldw	ra,4(sp)
 1800c38:	df000017 	ldw	fp,0(sp)
 1800c3c:	dec00204 	addi	sp,sp,8
 1800c40:	f800283a 	ret

01800c44 <chThdCreateStatic>:
 *                      the thread into the working space area.
 *
 * @api
 */
Thread *chThdCreateStatic(void *wsp, size_t size,
                          tprio_t prio, tfunc_t pf, void *arg) {
 1800c44:	defff604 	addi	sp,sp,-40
 1800c48:	dfc00915 	stw	ra,36(sp)
 1800c4c:	df000815 	stw	fp,32(sp)
 1800c50:	df000804 	addi	fp,sp,32
 1800c54:	e13ffc15 	stw	r4,-16(fp)
 1800c58:	e17ffd15 	stw	r5,-12(fp)
 1800c5c:	e1bffe15 	stw	r6,-8(fp)
 1800c60:	e1ffff15 	stw	r7,-4(fp)
static ALT_INLINE alt_irq_context ALT_ALWAYS_INLINE 
       alt_irq_disable_all (void)
{
  alt_irq_context context;

  NIOS2_READ_STATUS (context);
 1800c64:	0005303a 	rdctl	r2,status
 1800c68:	e0bffa15 	stw	r2,-24(fp)

  NIOS2_WRITE_STATUS (context & ~NIOS2_STATUS_PIE_MSK);
 1800c6c:	e0fffa17 	ldw	r3,-24(fp)
 1800c70:	00bfff84 	movi	r2,-2
 1800c74:	1884703a 	and	r2,r3,r2
 1800c78:	1001703a 	wrctl	status,r2
  _thread_memfill((uint8_t *)wsp + sizeof(Thread),
                  (uint8_t *)wsp + size,
                  CH_STACK_FILL_VALUE);
#endif
  chSysLock();
  chSchWakeupS(tp = chThdCreateI(wsp, size, prio, pf, arg), RDY_OK);
 1800c7c:	e0800217 	ldw	r2,8(fp)
 1800c80:	d8800015 	stw	r2,0(sp)
 1800c84:	e13ffc17 	ldw	r4,-16(fp)
 1800c88:	e17ffd17 	ldw	r5,-12(fp)
 1800c8c:	e1bffe17 	ldw	r6,-8(fp)
 1800c90:	e1ffff17 	ldw	r7,-4(fp)
 1800c94:	1800aec0 	call	1800aec <chThdCreateI>
 1800c98:	e0bffb15 	stw	r2,-20(fp)
 1800c9c:	e13ffb17 	ldw	r4,-20(fp)
 1800ca0:	000b883a 	mov	r5,zero
 1800ca4:	180463c0 	call	180463c <chSchWakeupS>
 1800ca8:	00800044 	movi	r2,1
 1800cac:	e0bff915 	stw	r2,-28(fp)
  status &= ~NIOS2_STATUS_PIE_MSK;
  status |= (context & NIOS2_STATUS_PIE_MSK);
  
  NIOS2_WRITE_STATUS (status);
#else
  NIOS2_WRITE_STATUS (context);
 1800cb0:	e0bff917 	ldw	r2,-28(fp)
 1800cb4:	1001703a 	wrctl	status,r2
  chSysUnlock();
  return tp;
 1800cb8:	e0bffb17 	ldw	r2,-20(fp)
}
 1800cbc:	e037883a 	mov	sp,fp
 1800cc0:	dfc00117 	ldw	ra,4(sp)
 1800cc4:	df000017 	ldw	fp,0(sp)
 1800cc8:	dec00204 	addi	sp,sp,8
 1800ccc:	f800283a 	ret

01800cd0 <chThdSetPriority>:
 * @param[in] newprio   the new priority level of the running thread
 * @return              The old priority level.
 *
 * @api
 */
tprio_t chThdSetPriority(tprio_t newprio) {
 1800cd0:	defffa04 	addi	sp,sp,-24
 1800cd4:	dfc00515 	stw	ra,20(sp)
 1800cd8:	df000415 	stw	fp,16(sp)
 1800cdc:	df000404 	addi	fp,sp,16
 1800ce0:	e13fff15 	stw	r4,-4(fp)
static ALT_INLINE alt_irq_context ALT_ALWAYS_INLINE 
       alt_irq_disable_all (void)
{
  alt_irq_context context;

  NIOS2_READ_STATUS (context);
 1800ce4:	0005303a 	rdctl	r2,status
 1800ce8:	e0bffd15 	stw	r2,-12(fp)

  NIOS2_WRITE_STATUS (context & ~NIOS2_STATUS_PIE_MSK);
 1800cec:	e0fffd17 	ldw	r3,-12(fp)
 1800cf0:	00bfff84 	movi	r2,-2
 1800cf4:	1884703a 	and	r2,r3,r2
 1800cf8:	1001703a 	wrctl	status,r2

  chDbgCheck(newprio <= HIGHPRIO, "chThdSetPriority");

  chSysLock();
#if CH_USE_MUTEXES
  oldprio = currp->p_realprio;
 1800cfc:	00806074 	movhi	r2,385
 1800d00:	10b2d104 	addi	r2,r2,-13500
 1800d04:	10800717 	ldw	r2,28(r2)
 1800d08:	10801017 	ldw	r2,64(r2)
 1800d0c:	e0bffe15 	stw	r2,-8(fp)
  if ((currp->p_prio == currp->p_realprio) || (newprio > currp->p_prio))
 1800d10:	00806074 	movhi	r2,385
 1800d14:	10b2d104 	addi	r2,r2,-13500
 1800d18:	10800717 	ldw	r2,28(r2)
 1800d1c:	10c00217 	ldw	r3,8(r2)
 1800d20:	00806074 	movhi	r2,385
 1800d24:	10b2d104 	addi	r2,r2,-13500
 1800d28:	10800717 	ldw	r2,28(r2)
 1800d2c:	10801017 	ldw	r2,64(r2)
 1800d30:	18800626 	beq	r3,r2,1800d4c <chThdSetPriority+0x7c>
 1800d34:	00806074 	movhi	r2,385
 1800d38:	10b2d104 	addi	r2,r2,-13500
 1800d3c:	10800717 	ldw	r2,28(r2)
 1800d40:	10c00217 	ldw	r3,8(r2)
 1800d44:	e0bfff17 	ldw	r2,-4(fp)
 1800d48:	1880052e 	bgeu	r3,r2,1800d60 <chThdSetPriority+0x90>
    currp->p_prio = newprio;
 1800d4c:	00806074 	movhi	r2,385
 1800d50:	10b2d104 	addi	r2,r2,-13500
 1800d54:	10c00717 	ldw	r3,28(r2)
 1800d58:	e0bfff17 	ldw	r2,-4(fp)
 1800d5c:	18800215 	stw	r2,8(r3)
  currp->p_realprio = newprio;
 1800d60:	00806074 	movhi	r2,385
 1800d64:	10b2d104 	addi	r2,r2,-13500
 1800d68:	10c00717 	ldw	r3,28(r2)
 1800d6c:	e0bfff17 	ldw	r2,-4(fp)
 1800d70:	18801015 	stw	r2,64(r3)
#else
  oldprio = currp->p_prio;
  currp->p_prio = newprio;
#endif
  chSchRescheduleS();
 1800d74:	18046e80 	call	18046e8 <chSchRescheduleS>
 1800d78:	00800044 	movi	r2,1
 1800d7c:	e0bffc15 	stw	r2,-16(fp)
  status &= ~NIOS2_STATUS_PIE_MSK;
  status |= (context & NIOS2_STATUS_PIE_MSK);
  
  NIOS2_WRITE_STATUS (status);
#else
  NIOS2_WRITE_STATUS (context);
 1800d80:	e0bffc17 	ldw	r2,-16(fp)
 1800d84:	1001703a 	wrctl	status,r2
  chSysUnlock();
  return oldprio;
 1800d88:	e0bffe17 	ldw	r2,-8(fp)
}
 1800d8c:	e037883a 	mov	sp,fp
 1800d90:	dfc00117 	ldw	ra,4(sp)
 1800d94:	df000017 	ldw	fp,0(sp)
 1800d98:	dec00204 	addi	sp,sp,8
 1800d9c:	f800283a 	ret

01800da0 <chThdResume>:
 * @param[in] tp        pointer to the thread
 * @return              The pointer to the thread.
 *
 * @api
 */
Thread *chThdResume(Thread *tp) {
 1800da0:	defffb04 	addi	sp,sp,-20
 1800da4:	dfc00415 	stw	ra,16(sp)
 1800da8:	df000315 	stw	fp,12(sp)
 1800dac:	df000304 	addi	fp,sp,12
 1800db0:	e13fff15 	stw	r4,-4(fp)
static ALT_INLINE alt_irq_context ALT_ALWAYS_INLINE 
       alt_irq_disable_all (void)
{
  alt_irq_context context;

  NIOS2_READ_STATUS (context);
 1800db4:	0005303a 	rdctl	r2,status
 1800db8:	e0bffe15 	stw	r2,-8(fp)

  NIOS2_WRITE_STATUS (context & ~NIOS2_STATUS_PIE_MSK);
 1800dbc:	e0fffe17 	ldw	r3,-8(fp)
 1800dc0:	00bfff84 	movi	r2,-2
 1800dc4:	1884703a 	and	r2,r3,r2
 1800dc8:	1001703a 	wrctl	status,r2

  chSysLock();
  chDbgAssert(tp->p_state == THD_STATE_SUSPENDED,
              "chThdResume(), #1",
              "thread not in THD_STATE_SUSPENDED state");
  chSchWakeupS(tp, RDY_OK);
 1800dcc:	e13fff17 	ldw	r4,-4(fp)
 1800dd0:	000b883a 	mov	r5,zero
 1800dd4:	180463c0 	call	180463c <chSchWakeupS>
 1800dd8:	00800044 	movi	r2,1
 1800ddc:	e0bffd15 	stw	r2,-12(fp)
  status &= ~NIOS2_STATUS_PIE_MSK;
  status |= (context & NIOS2_STATUS_PIE_MSK);
  
  NIOS2_WRITE_STATUS (status);
#else
  NIOS2_WRITE_STATUS (context);
 1800de0:	e0bffd17 	ldw	r2,-12(fp)
 1800de4:	1001703a 	wrctl	status,r2
  chSysUnlock();
  return tp;
 1800de8:	e0bfff17 	ldw	r2,-4(fp)
}
 1800dec:	e037883a 	mov	sp,fp
 1800df0:	dfc00117 	ldw	ra,4(sp)
 1800df4:	df000017 	ldw	fp,0(sp)
 1800df8:	dec00204 	addi	sp,sp,8
 1800dfc:	f800283a 	ret

01800e00 <chThdTerminate>:
 *
 * @param[in] tp        pointer to the thread
 *
 * @api
 */
void chThdTerminate(Thread *tp) {
 1800e00:	defffc04 	addi	sp,sp,-16
 1800e04:	df000315 	stw	fp,12(sp)
 1800e08:	df000304 	addi	fp,sp,12
 1800e0c:	e13fff15 	stw	r4,-4(fp)
static ALT_INLINE alt_irq_context ALT_ALWAYS_INLINE 
       alt_irq_disable_all (void)
{
  alt_irq_context context;

  NIOS2_READ_STATUS (context);
 1800e10:	0005303a 	rdctl	r2,status
 1800e14:	e0bffe15 	stw	r2,-8(fp)

  NIOS2_WRITE_STATUS (context & ~NIOS2_STATUS_PIE_MSK);
 1800e18:	e0fffe17 	ldw	r3,-8(fp)
 1800e1c:	00bfff84 	movi	r2,-2
 1800e20:	1884703a 	and	r2,r3,r2
 1800e24:	1001703a 	wrctl	status,r2

  chSysLock();
  tp->p_flags |= THD_TERMINATE;
 1800e28:	e0bfff17 	ldw	r2,-4(fp)
 1800e2c:	10800743 	ldbu	r2,29(r2)
 1800e30:	10800114 	ori	r2,r2,4
 1800e34:	1007883a 	mov	r3,r2
 1800e38:	e0bfff17 	ldw	r2,-4(fp)
 1800e3c:	10c00745 	stb	r3,29(r2)
 1800e40:	00800044 	movi	r2,1
 1800e44:	e0bffd15 	stw	r2,-12(fp)
  status &= ~NIOS2_STATUS_PIE_MSK;
  status |= (context & NIOS2_STATUS_PIE_MSK);
  
  NIOS2_WRITE_STATUS (status);
#else
  NIOS2_WRITE_STATUS (context);
 1800e48:	e0bffd17 	ldw	r2,-12(fp)
 1800e4c:	1001703a 	wrctl	status,r2
  chSysUnlock();
}
 1800e50:	e037883a 	mov	sp,fp
 1800e54:	df000017 	ldw	fp,0(sp)
 1800e58:	dec00104 	addi	sp,sp,4
 1800e5c:	f800283a 	ret

01800e60 <chThdSleep>:
 *                      - @a TIME_IMMEDIATE this value is not allowed.
 *                      .
 *
 * @api
 */
void chThdSleep(systime_t time) {
 1800e60:	defffb04 	addi	sp,sp,-20
 1800e64:	dfc00415 	stw	ra,16(sp)
 1800e68:	df000315 	stw	fp,12(sp)
 1800e6c:	df000304 	addi	fp,sp,12
 1800e70:	e13fff15 	stw	r4,-4(fp)
static ALT_INLINE alt_irq_context ALT_ALWAYS_INLINE 
       alt_irq_disable_all (void)
{
  alt_irq_context context;

  NIOS2_READ_STATUS (context);
 1800e74:	0005303a 	rdctl	r2,status
 1800e78:	e0bffe15 	stw	r2,-8(fp)

  NIOS2_WRITE_STATUS (context & ~NIOS2_STATUS_PIE_MSK);
 1800e7c:	e0fffe17 	ldw	r3,-8(fp)
 1800e80:	00bfff84 	movi	r2,-2
 1800e84:	1884703a 	and	r2,r3,r2
 1800e88:	1001703a 	wrctl	status,r2

  chDbgCheck(time != TIME_IMMEDIATE, "chThdSleep");

  chSysLock();
  chThdSleepS(time);
 1800e8c:	01000184 	movi	r4,6
 1800e90:	e17fff17 	ldw	r5,-4(fp)
 1800e94:	18045ac0 	call	18045ac <chSchGoSleepTimeoutS>
 1800e98:	00800044 	movi	r2,1
 1800e9c:	e0bffd15 	stw	r2,-12(fp)
  status &= ~NIOS2_STATUS_PIE_MSK;
  status |= (context & NIOS2_STATUS_PIE_MSK);
  
  NIOS2_WRITE_STATUS (status);
#else
  NIOS2_WRITE_STATUS (context);
 1800ea0:	e0bffd17 	ldw	r2,-12(fp)
 1800ea4:	1001703a 	wrctl	status,r2
  chSysUnlock();
}
 1800ea8:	e037883a 	mov	sp,fp
 1800eac:	dfc00117 	ldw	ra,4(sp)
 1800eb0:	df000017 	ldw	fp,0(sp)
 1800eb4:	dec00204 	addi	sp,sp,8
 1800eb8:	f800283a 	ret

01800ebc <chThdSleepUntil>:
 *
 * @param[in] time      absolute system time
 *
 * @api
 */
void chThdSleepUntil(systime_t time) {
 1800ebc:	defffb04 	addi	sp,sp,-20
 1800ec0:	dfc00415 	stw	ra,16(sp)
 1800ec4:	df000315 	stw	fp,12(sp)
 1800ec8:	df000304 	addi	fp,sp,12
 1800ecc:	e13fff15 	stw	r4,-4(fp)
static ALT_INLINE alt_irq_context ALT_ALWAYS_INLINE 
       alt_irq_disable_all (void)
{
  alt_irq_context context;

  NIOS2_READ_STATUS (context);
 1800ed0:	0005303a 	rdctl	r2,status
 1800ed4:	e0bffe15 	stw	r2,-8(fp)

  NIOS2_WRITE_STATUS (context & ~NIOS2_STATUS_PIE_MSK);
 1800ed8:	e0fffe17 	ldw	r3,-8(fp)
 1800edc:	00bfff84 	movi	r2,-2
 1800ee0:	1884703a 	and	r2,r3,r2
 1800ee4:	1001703a 	wrctl	status,r2

  chSysLock();
  if ((time -= chTimeNow()) > 0)
 1800ee8:	00806074 	movhi	r2,385
 1800eec:	10b2cd04 	addi	r2,r2,-13516
 1800ef0:	10c00317 	ldw	r3,12(r2)
 1800ef4:	e0bfff17 	ldw	r2,-4(fp)
 1800ef8:	10c5c83a 	sub	r2,r2,r3
 1800efc:	e0bfff15 	stw	r2,-4(fp)
 1800f00:	e0bfff17 	ldw	r2,-4(fp)
 1800f04:	1005003a 	cmpeq	r2,r2,zero
 1800f08:	1000031e 	bne	r2,zero,1800f18 <chThdSleepUntil+0x5c>
    chThdSleepS(time);
 1800f0c:	01000184 	movi	r4,6
 1800f10:	e17fff17 	ldw	r5,-4(fp)
 1800f14:	18045ac0 	call	18045ac <chSchGoSleepTimeoutS>
 1800f18:	00800044 	movi	r2,1
 1800f1c:	e0bffd15 	stw	r2,-12(fp)
  status &= ~NIOS2_STATUS_PIE_MSK;
  status |= (context & NIOS2_STATUS_PIE_MSK);
  
  NIOS2_WRITE_STATUS (status);
#else
  NIOS2_WRITE_STATUS (context);
 1800f20:	e0bffd17 	ldw	r2,-12(fp)
 1800f24:	1001703a 	wrctl	status,r2
  chSysUnlock();
}
 1800f28:	e037883a 	mov	sp,fp
 1800f2c:	dfc00117 	ldw	ra,4(sp)
 1800f30:	df000017 	ldw	fp,0(sp)
 1800f34:	dec00204 	addi	sp,sp,8
 1800f38:	f800283a 	ret

01800f3c <chThdYield>:
 * @details Yields the CPU control to the next thread in the ready list with
 *          equal priority, if any.
 *
 * @api
 */
void chThdYield(void) {
 1800f3c:	defffc04 	addi	sp,sp,-16
 1800f40:	dfc00315 	stw	ra,12(sp)
 1800f44:	df000215 	stw	fp,8(sp)
 1800f48:	df000204 	addi	fp,sp,8
static ALT_INLINE alt_irq_context ALT_ALWAYS_INLINE 
       alt_irq_disable_all (void)
{
  alt_irq_context context;

  NIOS2_READ_STATUS (context);
 1800f4c:	0005303a 	rdctl	r2,status
 1800f50:	e0bfff15 	stw	r2,-4(fp)

  NIOS2_WRITE_STATUS (context & ~NIOS2_STATUS_PIE_MSK);
 1800f54:	e0ffff17 	ldw	r3,-4(fp)
 1800f58:	00bfff84 	movi	r2,-2
 1800f5c:	1884703a 	and	r2,r3,r2
 1800f60:	1001703a 	wrctl	status,r2

  chSysLock();
  chSchDoYieldS();
 1800f64:	00806074 	movhi	r2,385
 1800f68:	10b2d104 	addi	r2,r2,-13500
 1800f6c:	10800017 	ldw	r2,0(r2)
 1800f70:	10c00217 	ldw	r3,8(r2)
 1800f74:	00806074 	movhi	r2,385
 1800f78:	10b2d104 	addi	r2,r2,-13500
 1800f7c:	10800717 	ldw	r2,28(r2)
 1800f80:	10800217 	ldw	r2,8(r2)
 1800f84:	18800136 	bltu	r3,r2,1800f8c <chThdYield+0x50>
 1800f88:	18047b40 	call	18047b4 <chSchDoReschedule>
 1800f8c:	00800044 	movi	r2,1
 1800f90:	e0bffe15 	stw	r2,-8(fp)
  status &= ~NIOS2_STATUS_PIE_MSK;
  status |= (context & NIOS2_STATUS_PIE_MSK);
  
  NIOS2_WRITE_STATUS (status);
#else
  NIOS2_WRITE_STATUS (context);
 1800f94:	e0bffe17 	ldw	r2,-8(fp)
 1800f98:	1001703a 	wrctl	status,r2
  chSysUnlock();
}
 1800f9c:	e037883a 	mov	sp,fp
 1800fa0:	dfc00117 	ldw	ra,4(sp)
 1800fa4:	df000017 	ldw	fp,0(sp)
 1800fa8:	dec00204 	addi	sp,sp,8
 1800fac:	f800283a 	ret

01800fb0 <chThdExit>:
 *
 * @param[in] msg       thread exit code
 *
 * @api
 */
void chThdExit(msg_t msg) {
 1800fb0:	defffc04 	addi	sp,sp,-16
 1800fb4:	dfc00315 	stw	ra,12(sp)
 1800fb8:	df000215 	stw	fp,8(sp)
 1800fbc:	df000204 	addi	fp,sp,8
 1800fc0:	e13fff15 	stw	r4,-4(fp)
static ALT_INLINE alt_irq_context ALT_ALWAYS_INLINE 
       alt_irq_disable_all (void)
{
  alt_irq_context context;

  NIOS2_READ_STATUS (context);
 1800fc4:	0005303a 	rdctl	r2,status
 1800fc8:	e0bffe15 	stw	r2,-8(fp)

  NIOS2_WRITE_STATUS (context & ~NIOS2_STATUS_PIE_MSK);
 1800fcc:	e0fffe17 	ldw	r3,-8(fp)
 1800fd0:	00bfff84 	movi	r2,-2
 1800fd4:	1884703a 	and	r2,r3,r2
 1800fd8:	1001703a 	wrctl	status,r2

  chSysLock();
  chThdExitS(msg);
 1800fdc:	e13fff17 	ldw	r4,-4(fp)
 1800fe0:	1800ff80 	call	1800ff8 <chThdExitS>
  /* The thread never returns here.*/
}
 1800fe4:	e037883a 	mov	sp,fp
 1800fe8:	dfc00117 	ldw	ra,4(sp)
 1800fec:	df000017 	ldw	fp,0(sp)
 1800ff0:	dec00204 	addi	sp,sp,8
 1800ff4:	f800283a 	ret

01800ff8 <chThdExitS>:
 *
 * @param[in] msg       thread exit code
 *
 * @sclass
 */
void chThdExitS(msg_t msg) {
 1800ff8:	defffc04 	addi	sp,sp,-16
 1800ffc:	dfc00315 	stw	ra,12(sp)
 1801000:	df000215 	stw	fp,8(sp)
 1801004:	df000204 	addi	fp,sp,8
 1801008:	e13fff15 	stw	r4,-4(fp)
  Thread *tp = currp;
 180100c:	00806074 	movhi	r2,385
 1801010:	10b2d104 	addi	r2,r2,-13500
 1801014:	10800717 	ldw	r2,28(r2)
 1801018:	e0bffe15 	stw	r2,-8(fp)

  tp->p_u.exitcode = msg;
 180101c:	e0fffe17 	ldw	r3,-8(fp)
 1801020:	e0bfff17 	ldw	r2,-4(fp)
 1801024:	18800915 	stw	r2,36(r3)
#if defined(THREAD_EXT_EXIT_HOOK)
  THREAD_EXT_EXIT_HOOK(tp);
#endif
#if CH_USE_WAITEXIT
  while (notempty(&tp->p_waiting))
 1801028:	00000506 	br	1801040 <chThdExitS+0x48>
    chSchReadyI(list_remove(&tp->p_waiting));
 180102c:	e0bffe17 	ldw	r2,-8(fp)
 1801030:	11000a04 	addi	r4,r2,40
 1801034:	18010b00 	call	18010b0 <list_remove>
 1801038:	1009883a 	mov	r4,r2
 180103c:	18043180 	call	1804318 <chSchReadyI>
  tp->p_u.exitcode = msg;
#if defined(THREAD_EXT_EXIT_HOOK)
  THREAD_EXT_EXIT_HOOK(tp);
#endif
#if CH_USE_WAITEXIT
  while (notempty(&tp->p_waiting))
 1801040:	e0bffe17 	ldw	r2,-8(fp)
 1801044:	10c00a17 	ldw	r3,40(r2)
 1801048:	e0bffe17 	ldw	r2,-8(fp)
 180104c:	10800a04 	addi	r2,r2,40
 1801050:	18bff61e 	bne	r3,r2,180102c <chThdExitS+0x34>
    chSchReadyI(list_remove(&tp->p_waiting));
#endif
#if CH_USE_REGISTRY
  /* Static threads are immediately removed from the registry because
     there is no memory to recover.*/
  if ((tp->p_flags & THD_MEM_MODE_MASK) == THD_MEM_MODE_STATIC)
 1801054:	e0bffe17 	ldw	r2,-8(fp)
 1801058:	10800743 	ldbu	r2,29(r2)
 180105c:	10803fcc 	andi	r2,r2,255
 1801060:	108000cc 	andi	r2,r2,3
 1801064:	1004c03a 	cmpne	r2,r2,zero
 1801068:	10000a1e 	bne	r2,zero,1801094 <chThdExitS+0x9c>
    REG_REMOVE(tp);
 180106c:	e0bffe17 	ldw	r2,-8(fp)
 1801070:	10c00517 	ldw	r3,20(r2)
 1801074:	e0bffe17 	ldw	r2,-8(fp)
 1801078:	10800417 	ldw	r2,16(r2)
 180107c:	18800415 	stw	r2,16(r3)
 1801080:	e0bffe17 	ldw	r2,-8(fp)
 1801084:	10c00417 	ldw	r3,16(r2)
 1801088:	e0bffe17 	ldw	r2,-8(fp)
 180108c:	10800517 	ldw	r2,20(r2)
 1801090:	18800515 	stw	r2,20(r3)
#endif
  chSchGoSleepS(THD_STATE_FINAL);
 1801094:	01000384 	movi	r4,14
 1801098:	18043c00 	call	18043c0 <chSchGoSleepS>
  /* The thread never returns here.*/
  chDbgAssert(FALSE, "chThdExitS(), #1", "zombies apocalypse");
}
 180109c:	e037883a 	mov	sp,fp
 18010a0:	dfc00117 	ldw	ra,4(sp)
 18010a4:	df000017 	ldw	fp,0(sp)
 18010a8:	dec00204 	addi	sp,sp,8
 18010ac:	f800283a 	ret

018010b0 <list_remove>:

  tp->p_next = tlp->p_next;
  tlp->p_next = tp;
}

static INLINE Thread *list_remove(ThreadsList *tlp) {
 18010b0:	defffd04 	addi	sp,sp,-12
 18010b4:	df000215 	stw	fp,8(sp)
 18010b8:	df000204 	addi	fp,sp,8
 18010bc:	e13fff15 	stw	r4,-4(fp)

  Thread *tp = tlp->p_next;
 18010c0:	e0bfff17 	ldw	r2,-4(fp)
 18010c4:	10800017 	ldw	r2,0(r2)
 18010c8:	e0bffe15 	stw	r2,-8(fp)
  tlp->p_next = tp->p_next;
 18010cc:	e0bffe17 	ldw	r2,-8(fp)
 18010d0:	10c00017 	ldw	r3,0(r2)
 18010d4:	e0bfff17 	ldw	r2,-4(fp)
 18010d8:	10c00015 	stw	r3,0(r2)
  return tp;
 18010dc:	e0bffe17 	ldw	r2,-8(fp)
}
 18010e0:	e037883a 	mov	sp,fp
 18010e4:	df000017 	ldw	fp,0(sp)
 18010e8:	dec00104 	addi	sp,sp,4
 18010ec:	f800283a 	ret

018010f0 <chThdWait>:
 * @param[in] tp        pointer to the thread
 * @return              The exit code from the terminated thread.
 *
 * @api
 */
msg_t chThdWait(Thread *tp) {
 18010f0:	defffa04 	addi	sp,sp,-24
 18010f4:	dfc00515 	stw	ra,20(sp)
 18010f8:	df000415 	stw	fp,16(sp)
 18010fc:	df000404 	addi	fp,sp,16
 1801100:	e13fff15 	stw	r4,-4(fp)
static ALT_INLINE alt_irq_context ALT_ALWAYS_INLINE 
       alt_irq_disable_all (void)
{
  alt_irq_context context;

  NIOS2_READ_STATUS (context);
 1801104:	0005303a 	rdctl	r2,status
 1801108:	e0bffd15 	stw	r2,-12(fp)

  NIOS2_WRITE_STATUS (context & ~NIOS2_STATUS_PIE_MSK);
 180110c:	e0fffd17 	ldw	r3,-12(fp)
 1801110:	00bfff84 	movi	r2,-2
 1801114:	1884703a 	and	r2,r3,r2
 1801118:	1001703a 	wrctl	status,r2
  chSysLock();
  chDbgAssert(tp != currp, "chThdWait(), #1", "waiting self");
#if CH_USE_DYNAMIC
  chDbgAssert(tp->p_refs > 0, "chThdWait(), #2", "not referenced");
#endif
  if (tp->p_state != THD_STATE_FINAL) {
 180111c:	e0bfff17 	ldw	r2,-4(fp)
 1801120:	10800703 	ldbu	r2,28(r2)
 1801124:	10803fcc 	andi	r2,r2,255
 1801128:	108003a0 	cmpeqi	r2,r2,14
 180112c:	1000081e 	bne	r2,zero,1801150 <chThdWait+0x60>
    list_insert(currp, &tp->p_waiting);
 1801130:	00806074 	movhi	r2,385
 1801134:	10b2d104 	addi	r2,r2,-13500
 1801138:	11000717 	ldw	r4,28(r2)
 180113c:	e0bfff17 	ldw	r2,-4(fp)
 1801140:	11400a04 	addi	r5,r2,40
 1801144:	180118c0 	call	180118c <list_insert>
    chSchGoSleepS(THD_STATE_WTEXIT);
 1801148:	010001c4 	movi	r4,7
 180114c:	18043c00 	call	18043c0 <chSchGoSleepS>
  }
  msg = tp->p_u.exitcode;
 1801150:	e0bfff17 	ldw	r2,-4(fp)
 1801154:	10800917 	ldw	r2,36(r2)
 1801158:	e0bffe15 	stw	r2,-8(fp)
 180115c:	00800044 	movi	r2,1
 1801160:	e0bffc15 	stw	r2,-16(fp)
  status &= ~NIOS2_STATUS_PIE_MSK;
  status |= (context & NIOS2_STATUS_PIE_MSK);
  
  NIOS2_WRITE_STATUS (status);
#else
  NIOS2_WRITE_STATUS (context);
 1801164:	e0bffc17 	ldw	r2,-16(fp)
 1801168:	1001703a 	wrctl	status,r2
  chSysUnlock();
#if CH_USE_DYNAMIC
  chThdRelease(tp);
 180116c:	e13fff17 	ldw	r4,-4(fp)
 1801170:	1802ff40 	call	1802ff4 <chThdRelease>
#endif
  return msg;
 1801174:	e0bffe17 	ldw	r2,-8(fp)
}
 1801178:	e037883a 	mov	sp,fp
 180117c:	dfc00117 	ldw	ra,4(sp)
 1801180:	df000017 	ldw	fp,0(sp)
 1801184:	dec00204 	addi	sp,sp,8
 1801188:	f800283a 	ret

0180118c <list_insert>:
  tp->p_prev->p_next = tp->p_next;
  tp->p_next->p_prev = tp->p_prev;
  return tp;
}

static INLINE void list_insert(Thread *tp, ThreadsList *tlp) {
 180118c:	defffd04 	addi	sp,sp,-12
 1801190:	df000215 	stw	fp,8(sp)
 1801194:	df000204 	addi	fp,sp,8
 1801198:	e13ffe15 	stw	r4,-8(fp)
 180119c:	e17fff15 	stw	r5,-4(fp)

  tp->p_next = tlp->p_next;
 18011a0:	e0bfff17 	ldw	r2,-4(fp)
 18011a4:	10c00017 	ldw	r3,0(r2)
 18011a8:	e0bffe17 	ldw	r2,-8(fp)
 18011ac:	10c00015 	stw	r3,0(r2)
  tlp->p_next = tp;
 18011b0:	e0ffff17 	ldw	r3,-4(fp)
 18011b4:	e0bffe17 	ldw	r2,-8(fp)
 18011b8:	18800015 	stw	r2,0(r3)
}
 18011bc:	e037883a 	mov	sp,fp
 18011c0:	df000017 	ldw	fp,0(sp)
 18011c4:	dec00104 	addi	sp,sp,4
 18011c8:	f800283a 	ret

018011cc <_vt_init>:
 * @brief   Virtual Timers initialization.
 * @note    Internal use only.
 *
 * @notapi
 */
void _vt_init(void) {
 18011cc:	deffff04 	addi	sp,sp,-4
 18011d0:	df000015 	stw	fp,0(sp)
 18011d4:	d839883a 	mov	fp,sp

  vtlist.vt_next = vtlist.vt_prev = (void *)&vtlist;
 18011d8:	00c06074 	movhi	r3,385
 18011dc:	18f2cd04 	addi	r3,r3,-13516
 18011e0:	00806074 	movhi	r2,385
 18011e4:	10b2cd04 	addi	r2,r2,-13516
 18011e8:	10c00115 	stw	r3,4(r2)
 18011ec:	00806074 	movhi	r2,385
 18011f0:	10b2cd04 	addi	r2,r2,-13516
 18011f4:	10c00117 	ldw	r3,4(r2)
 18011f8:	00806074 	movhi	r2,385
 18011fc:	10b2cd04 	addi	r2,r2,-13516
 1801200:	10c00015 	stw	r3,0(r2)
  vtlist.vt_time = (systime_t)-1;
 1801204:	00c06074 	movhi	r3,385
 1801208:	18f2cd04 	addi	r3,r3,-13516
 180120c:	00bfffc4 	movi	r2,-1
 1801210:	18800215 	stw	r2,8(r3)
  vtlist.vt_systime = 0;
 1801214:	00806074 	movhi	r2,385
 1801218:	10b2cd04 	addi	r2,r2,-13516
 180121c:	10000315 	stw	zero,12(r2)
}
 1801220:	e037883a 	mov	sp,fp
 1801224:	df000017 	ldw	fp,0(sp)
 1801228:	dec00104 	addi	sp,sp,4
 180122c:	f800283a 	ret

01801230 <chVTSetI>:
 * @param[in] par       a parameter that will be passed to the callback
 *                      function
 *
 * @iclass
 */
void chVTSetI(VirtualTimer *vtp, systime_t time, vtfunc_t vtfunc, void *par) {
 1801230:	defffa04 	addi	sp,sp,-24
 1801234:	df000515 	stw	fp,20(sp)
 1801238:	df000504 	addi	fp,sp,20
 180123c:	e13ffc15 	stw	r4,-16(fp)
 1801240:	e17ffd15 	stw	r5,-12(fp)
 1801244:	e1bffe15 	stw	r6,-8(fp)
 1801248:	e1ffff15 	stw	r7,-4(fp)
  VirtualTimer *p;

  chDbgCheckClassI();
  chDbgCheck((vtp != NULL) && (vtfunc != NULL) && (time != TIME_IMMEDIATE),
 180124c:	e0bffc17 	ldw	r2,-16(fp)
 1801250:	1005003a 	cmpeq	r2,r2,zero
 1801254:	1000031e 	bne	r2,zero,1801264 <chVTSetI+0x34>
 1801258:	e0bffe17 	ldw	r2,-8(fp)
 180125c:	1005003a 	cmpeq	r2,r2,zero
 1801260:	1000001e 	bne	r2,zero,1801264 <chVTSetI+0x34>
             "chVTSetI");

  vtp->vt_par = par;
 1801264:	e0fffc17 	ldw	r3,-16(fp)
 1801268:	e0bfff17 	ldw	r2,-4(fp)
 180126c:	18800415 	stw	r2,16(r3)
  vtp->vt_func = vtfunc;
 1801270:	e0fffc17 	ldw	r3,-16(fp)
 1801274:	e0bffe17 	ldw	r2,-8(fp)
 1801278:	18800315 	stw	r2,12(r3)
  p = vtlist.vt_next;
 180127c:	00806074 	movhi	r2,385
 1801280:	10b2cd04 	addi	r2,r2,-13516
 1801284:	10800017 	ldw	r2,0(r2)
 1801288:	e0bffb15 	stw	r2,-20(fp)
  while (p->vt_time < time) {
 180128c:	00000806 	br	18012b0 <chVTSetI+0x80>
    time -= p->vt_time;
 1801290:	e0bffb17 	ldw	r2,-20(fp)
 1801294:	10c00217 	ldw	r3,8(r2)
 1801298:	e0bffd17 	ldw	r2,-12(fp)
 180129c:	10c5c83a 	sub	r2,r2,r3
 18012a0:	e0bffd15 	stw	r2,-12(fp)
    p = p->vt_next;
 18012a4:	e0bffb17 	ldw	r2,-20(fp)
 18012a8:	10800017 	ldw	r2,0(r2)
 18012ac:	e0bffb15 	stw	r2,-20(fp)
             "chVTSetI");

  vtp->vt_par = par;
  vtp->vt_func = vtfunc;
  p = vtlist.vt_next;
  while (p->vt_time < time) {
 18012b0:	e0bffb17 	ldw	r2,-20(fp)
 18012b4:	10c00217 	ldw	r3,8(r2)
 18012b8:	e0bffd17 	ldw	r2,-12(fp)
 18012bc:	18bff436 	bltu	r3,r2,1801290 <chVTSetI+0x60>
    time -= p->vt_time;
    p = p->vt_next;
  }

  vtp->vt_prev = (vtp->vt_next = p)->vt_prev;
 18012c0:	e0fffc17 	ldw	r3,-16(fp)
 18012c4:	e0bffb17 	ldw	r2,-20(fp)
 18012c8:	18800015 	stw	r2,0(r3)
 18012cc:	e0bffc17 	ldw	r2,-16(fp)
 18012d0:	10800017 	ldw	r2,0(r2)
 18012d4:	10c00117 	ldw	r3,4(r2)
 18012d8:	e0bffc17 	ldw	r2,-16(fp)
 18012dc:	10c00115 	stw	r3,4(r2)
  vtp->vt_prev->vt_next = p->vt_prev = vtp;
 18012e0:	e0bffc17 	ldw	r2,-16(fp)
 18012e4:	11000117 	ldw	r4,4(r2)
 18012e8:	e0fffb17 	ldw	r3,-20(fp)
 18012ec:	e0bffc17 	ldw	r2,-16(fp)
 18012f0:	18800115 	stw	r2,4(r3)
 18012f4:	e0bffb17 	ldw	r2,-20(fp)
 18012f8:	10800117 	ldw	r2,4(r2)
 18012fc:	20800015 	stw	r2,0(r4)
  vtp->vt_time = time;
 1801300:	e0fffc17 	ldw	r3,-16(fp)
 1801304:	e0bffd17 	ldw	r2,-12(fp)
 1801308:	18800215 	stw	r2,8(r3)
  if (p != (void *)&vtlist)
 180130c:	e0fffb17 	ldw	r3,-20(fp)
 1801310:	00806074 	movhi	r2,385
 1801314:	10b2cd04 	addi	r2,r2,-13516
 1801318:	18800626 	beq	r3,r2,1801334 <chVTSetI+0x104>
    p->vt_time -= time;
 180131c:	e0bffb17 	ldw	r2,-20(fp)
 1801320:	10c00217 	ldw	r3,8(r2)
 1801324:	e0bffd17 	ldw	r2,-12(fp)
 1801328:	1887c83a 	sub	r3,r3,r2
 180132c:	e0bffb17 	ldw	r2,-20(fp)
 1801330:	10c00215 	stw	r3,8(r2)
}
 1801334:	e037883a 	mov	sp,fp
 1801338:	df000017 	ldw	fp,0(sp)
 180133c:	dec00104 	addi	sp,sp,4
 1801340:	f800283a 	ret

01801344 <chVTResetI>:
 *
 * @param[in] vtp       the @p VirtualTimer structure pointer
 *
 * @iclass
 */
void chVTResetI(VirtualTimer *vtp) {
 1801344:	defffe04 	addi	sp,sp,-8
 1801348:	df000115 	stw	fp,4(sp)
 180134c:	df000104 	addi	fp,sp,4
 1801350:	e13fff15 	stw	r4,-4(fp)
  chDbgCheck(vtp != NULL, "chVTResetI");
  chDbgAssert(vtp->vt_func != NULL,
              "chVTResetI(), #1",
              "timer not set or already triggered");

  if (vtp->vt_next != (void *)&vtlist)
 1801354:	e0bfff17 	ldw	r2,-4(fp)
 1801358:	10c00017 	ldw	r3,0(r2)
 180135c:	00806074 	movhi	r2,385
 1801360:	10b2cd04 	addi	r2,r2,-13516
 1801364:	18800926 	beq	r3,r2,180138c <chVTResetI+0x48>
    vtp->vt_next->vt_time += vtp->vt_time;
 1801368:	e0bfff17 	ldw	r2,-4(fp)
 180136c:	11000017 	ldw	r4,0(r2)
 1801370:	e0bfff17 	ldw	r2,-4(fp)
 1801374:	10800017 	ldw	r2,0(r2)
 1801378:	10c00217 	ldw	r3,8(r2)
 180137c:	e0bfff17 	ldw	r2,-4(fp)
 1801380:	10800217 	ldw	r2,8(r2)
 1801384:	1885883a 	add	r2,r3,r2
 1801388:	20800215 	stw	r2,8(r4)
  vtp->vt_prev->vt_next = vtp->vt_next;
 180138c:	e0bfff17 	ldw	r2,-4(fp)
 1801390:	10c00117 	ldw	r3,4(r2)
 1801394:	e0bfff17 	ldw	r2,-4(fp)
 1801398:	10800017 	ldw	r2,0(r2)
 180139c:	18800015 	stw	r2,0(r3)
  vtp->vt_next->vt_prev = vtp->vt_prev;
 18013a0:	e0bfff17 	ldw	r2,-4(fp)
 18013a4:	10c00017 	ldw	r3,0(r2)
 18013a8:	e0bfff17 	ldw	r2,-4(fp)
 18013ac:	10800117 	ldw	r2,4(r2)
 18013b0:	18800115 	stw	r2,4(r3)
  vtp->vt_func = (vtfunc_t)NULL;
 18013b4:	e0bfff17 	ldw	r2,-4(fp)
 18013b8:	10000315 	stw	zero,12(r2)
}
 18013bc:	e037883a 	mov	sp,fp
 18013c0:	df000017 	ldw	fp,0(sp)
 18013c4:	dec00104 	addi	sp,sp,4
 18013c8:	f800283a 	ret

018013cc <chTimeIsWithin>:
 * @retval TRUE         current time within the specified time window.
 * @retval FALSE        current time not within the specified time window.
 *
 * @api
 */
bool_t chTimeIsWithin(systime_t start, systime_t end) {
 18013cc:	defff904 	addi	sp,sp,-28
 18013d0:	df000615 	stw	fp,24(sp)
 18013d4:	df000604 	addi	fp,sp,24
 18013d8:	e13ffb15 	stw	r4,-20(fp)
 18013dc:	e17ffc15 	stw	r5,-16(fp)

  systime_t time = chTimeNow();
 18013e0:	00806074 	movhi	r2,385
 18013e4:	10b2cd04 	addi	r2,r2,-13516
 18013e8:	10800317 	ldw	r2,12(r2)
 18013ec:	e0bffa15 	stw	r2,-24(fp)
  return end > start ? (time >= start) && (time < end) :
 18013f0:	e0fffc17 	ldw	r3,-16(fp)
 18013f4:	e0bffb17 	ldw	r2,-20(fp)
 18013f8:	10c00d2e 	bgeu	r2,r3,1801430 <chTimeIsWithin+0x64>
 18013fc:	e0fffa17 	ldw	r3,-24(fp)
 1801400:	e0bffb17 	ldw	r2,-20(fp)
 1801404:	18800636 	bltu	r3,r2,1801420 <chTimeIsWithin+0x54>
 1801408:	e0fffa17 	ldw	r3,-24(fp)
 180140c:	e0bffc17 	ldw	r2,-16(fp)
 1801410:	1880032e 	bgeu	r3,r2,1801420 <chTimeIsWithin+0x54>
 1801414:	00800044 	movi	r2,1
 1801418:	e0bffe15 	stw	r2,-8(fp)
 180141c:	00000106 	br	1801424 <chTimeIsWithin+0x58>
 1801420:	e03ffe15 	stw	zero,-8(fp)
 1801424:	e0bffe17 	ldw	r2,-8(fp)
 1801428:	e0bfff15 	stw	r2,-4(fp)
 180142c:	00000c06 	br	1801460 <chTimeIsWithin+0x94>
 1801430:	e0fffa17 	ldw	r3,-24(fp)
 1801434:	e0bffb17 	ldw	r2,-20(fp)
 1801438:	1880032e 	bgeu	r3,r2,1801448 <chTimeIsWithin+0x7c>
 180143c:	e0fffa17 	ldw	r3,-24(fp)
 1801440:	e0bffc17 	ldw	r2,-16(fp)
 1801444:	1880032e 	bgeu	r3,r2,1801454 <chTimeIsWithin+0x88>
 1801448:	00800044 	movi	r2,1
 180144c:	e0bffd15 	stw	r2,-12(fp)
 1801450:	00000106 	br	1801458 <chTimeIsWithin+0x8c>
 1801454:	e03ffd15 	stw	zero,-12(fp)
 1801458:	e0bffd17 	ldw	r2,-12(fp)
 180145c:	e0bfff15 	stw	r2,-4(fp)
 1801460:	e0bfff17 	ldw	r2,-4(fp)
                       (time >= start) || (time < end);
}
 1801464:	e037883a 	mov	sp,fp
 1801468:	df000017 	ldw	fp,0(sp)
 180146c:	dec00104 	addi	sp,sp,4
 1801470:	f800283a 	ret

01801474 <_port_thread_start>:
/*                                                                         */
/*  Start a thread by invoking its work function.                          */
/***************************************************************************/
_port_thread_start:

      mov   r4, r17        /* r4 = Register Arguments (First 32 bits) */
 1801474:	8809883a 	mov	r4,r17
      mov   r5, r16        /* Store thread pointer for the callr,     */
 1801478:	800b883a 	mov	r5,r16
      callr r5             /* and call the thread */
 180147c:	283ee83a 	callr	r5
      call  chThdExit      /* This is the thread exit function. */
 1801480:	1800fb00 	call	1800fb0 <chThdExit>

01801484 <_port_thread_start_loop>:
      
_port_thread_start_loop:      
      br    _port_thread_start_loop
 1801484:	003fff06 	br	1801484 <_port_thread_start_loop>

01801488 <port_switch>:
/***************************************************************************/
port_switch:

      /* r4 = ntp, r5 = otp */

      addi  sp, sp, -44    /* Size of the intctx structure */
 1801488:	defff504 	addi	sp,sp,-44
      
      stw   ra,   0(sp)
 180148c:	dfc00015 	stw	ra,0(sp)
      stw   fp,   4(sp)
 1801490:	df000115 	stw	fp,4(sp)
      stw   r16,  8(sp)
 1801494:	dc000215 	stw	r16,8(sp)
      stw   r17, 12(sp)
 1801498:	dc400315 	stw	r17,12(sp)
      stw   r18, 16(sp)
 180149c:	dc800415 	stw	r18,16(sp)
      stw   r19, 20(sp)
 18014a0:	dcc00515 	stw	r19,20(sp)
      stw   r20, 24(sp)
 18014a4:	dd000615 	stw	r20,24(sp)
      stw   r21, 28(sp)
 18014a8:	dd400715 	stw	r21,28(sp)
      stw   r22, 32(sp)
 18014ac:	dd800815 	stw	r22,32(sp)
      stw   r23, 36(sp)
 18014b0:	ddc00915 	stw	r23,36(sp)
      
      rdctl r23, status    /* r23 is not more needed and can */
 18014b4:	002f303a 	rdctl	r23,status
      stw   r23, 40(sp)    /* be used here to store the status */
 18014b8:	ddc00a15 	stw	r23,40(sp)
      
      stw   sp, 12(r5)     /* Save old stack: otp->p_ctx.sp = sp */
 18014bc:	2ec00315 	stw	sp,12(r5)
      
      ldw   sp, 12(r4)     /* Get new stack: sp = ntp->p_ctx.sp */
 18014c0:	26c00317 	ldw	sp,12(r4)
      
      ldw   ra,   0(sp)
 18014c4:	dfc00017 	ldw	ra,0(sp)
      ldw   fp,   4(sp)
 18014c8:	df000117 	ldw	fp,4(sp)
      ldw   r16,  8(sp)
 18014cc:	dc000217 	ldw	r16,8(sp)
      ldw   r17, 12(sp)
 18014d0:	dc400317 	ldw	r17,12(sp)
      ldw   r18, 16(sp)
 18014d4:	dc800417 	ldw	r18,16(sp)
      ldw   r19, 20(sp)
 18014d8:	dcc00517 	ldw	r19,20(sp)
      ldw   r20, 24(sp)
 18014dc:	dd000617 	ldw	r20,24(sp)
      ldw   r21, 28(sp)
 18014e0:	dd400717 	ldw	r21,28(sp)
      ldw   r22, 32(sp)
 18014e4:	dd800817 	ldw	r22,32(sp)
      ldw   r23, 36(sp)
 18014e8:	ddc00917 	ldw	r23,36(sp)
      
      ldw   r4,  40(sp)    /* r4 is not more needed and can */
 18014ec:	d9000a17 	ldw	r4,40(sp)
      wrctl status, r4     /* be used here to store the status */
 18014f0:	2001703a 	wrctl	status,r4
      
      addi  sp, sp, 44     /* Size of the intctx structure */
 18014f4:	dec00b04 	addi	sp,sp,44
      
      ret
 18014f8:	f800283a 	ret
   
      nop
 18014fc:	0001883a 	nop

01801500 <alt_load>:
 * there is no bootloader, so this application is responsible for loading to
 * RAM any sections that are required.
 */  

void alt_load (void)
{
 1801500:	defffe04 	addi	sp,sp,-8
 1801504:	dfc00115 	stw	ra,4(sp)
 1801508:	df000015 	stw	fp,0(sp)
 180150c:	d839883a 	mov	fp,sp
  /* 
   * Copy the .rwdata section. 
   */

  alt_load_section (&__flash_rwdata_start, 
 1801510:	01006074 	movhi	r4,385
 1801514:	212bdb04 	addi	r4,r4,-20628
 1801518:	01406074 	movhi	r5,385
 180151c:	29651804 	addi	r5,r5,-27552
 1801520:	01806074 	movhi	r6,385
 1801524:	31abdb04 	addi	r6,r6,-20628
 1801528:	18015800 	call	1801580 <alt_load_section>

  /*
   * Copy the exception handler.
   */

  alt_load_section (&__flash_exceptions_start, 
 180152c:	01006034 	movhi	r4,384
 1801530:	21000804 	addi	r4,r4,32
 1801534:	01406034 	movhi	r5,384
 1801538:	29400804 	addi	r5,r5,32
 180153c:	01806034 	movhi	r6,384
 1801540:	31807104 	addi	r6,r6,452
 1801544:	18015800 	call	1801580 <alt_load_section>

  /*
   * Copy the .rodata section.
   */

  alt_load_section (&__flash_rodata_start, 
 1801548:	01006074 	movhi	r4,385
 180154c:	2124eb04 	addi	r4,r4,-27732
 1801550:	01406074 	movhi	r5,385
 1801554:	2964eb04 	addi	r5,r5,-27732
 1801558:	01806074 	movhi	r6,385
 180155c:	31a51804 	addi	r6,r6,-27552
 1801560:	18015800 	call	1801580 <alt_load_section>
  
  /*
   * Now ensure that the caches are in synch.
   */
  
  alt_dcache_flush_all();
 1801564:	1804d040 	call	1804d04 <alt_dcache_flush_all>
  alt_icache_flush_all();
 1801568:	1804f280 	call	1804f28 <alt_icache_flush_all>
}
 180156c:	e037883a 	mov	sp,fp
 1801570:	dfc00117 	ldw	ra,4(sp)
 1801574:	df000017 	ldw	fp,0(sp)
 1801578:	dec00204 	addi	sp,sp,8
 180157c:	f800283a 	ret

01801580 <alt_load_section>:
 */

static void ALT_INLINE alt_load_section (alt_u32* from, 
                                         alt_u32* to, 
                                         alt_u32* end)
{
 1801580:	defffc04 	addi	sp,sp,-16
 1801584:	df000315 	stw	fp,12(sp)
 1801588:	df000304 	addi	fp,sp,12
 180158c:	e13ffd15 	stw	r4,-12(fp)
 1801590:	e17ffe15 	stw	r5,-8(fp)
 1801594:	e1bfff15 	stw	r6,-4(fp)
  if (to != from)
 1801598:	e0fffe17 	ldw	r3,-8(fp)
 180159c:	e0bffd17 	ldw	r2,-12(fp)
 18015a0:	18800e26 	beq	r3,r2,18015dc <alt_load_section+0x5c>
  {
    while( to != end )
 18015a4:	00000a06 	br	18015d0 <alt_load_section+0x50>
    {
      *to++ = *from++;
 18015a8:	e0bffd17 	ldw	r2,-12(fp)
 18015ac:	10c00017 	ldw	r3,0(r2)
 18015b0:	e0bffe17 	ldw	r2,-8(fp)
 18015b4:	10c00015 	stw	r3,0(r2)
 18015b8:	e0bffe17 	ldw	r2,-8(fp)
 18015bc:	10800104 	addi	r2,r2,4
 18015c0:	e0bffe15 	stw	r2,-8(fp)
 18015c4:	e0bffd17 	ldw	r2,-12(fp)
 18015c8:	10800104 	addi	r2,r2,4
 18015cc:	e0bffd15 	stw	r2,-12(fp)
                                         alt_u32* to, 
                                         alt_u32* end)
{
  if (to != from)
  {
    while( to != end )
 18015d0:	e0fffe17 	ldw	r3,-8(fp)
 18015d4:	e0bfff17 	ldw	r2,-4(fp)
 18015d8:	18bff31e 	bne	r3,r2,18015a8 <alt_load_section+0x28>
    {
      *to++ = *from++;
    }
  }
}
 18015dc:	e037883a 	mov	sp,fp
 18015e0:	df000017 	ldw	fp,0(sp)
 18015e4:	dec00104 	addi	sp,sp,4
 18015e8:	f800283a 	ret

018015ec <alt_main>:
 * devices/filesystems/components in the system; and call the entry point for
 * the users application, i.e. main().
 */

void alt_main (void)
{
 18015ec:	defffc04 	addi	sp,sp,-16
 18015f0:	dfc00315 	stw	ra,12(sp)
 18015f4:	df000215 	stw	fp,8(sp)
 18015f8:	df000204 	addi	fp,sp,8
#endif

  /* ALT LOG - please see HAL/sys/alt_log_printf.h for details */
  ALT_LOG_PRINT_BOOT("[alt_main.c] Entering alt_main, calling alt_irq_init.\r\n");
  /* Initialize the interrupt controller. */
  alt_irq_init (NULL);
 18015fc:	0009883a 	mov	r4,zero
 1801600:	180194c0 	call	180194c <alt_irq_init>
static ALT_INLINE alt_irq_context ALT_ALWAYS_INLINE 
       alt_irq_disable_all (void)
{
  alt_irq_context context;

  NIOS2_READ_STATUS (context);
 1801604:	0005303a 	rdctl	r2,status
 1801608:	e0bffe15 	stw	r2,-8(fp)

  NIOS2_WRITE_STATUS (context & ~NIOS2_STATUS_PIE_MSK);
 180160c:	e0fffe17 	ldw	r3,-8(fp)
 1801610:	00bfff84 	movi	r2,-2
 1801614:	1884703a 	and	r2,r3,r2
 1801618:	1001703a 	wrctl	status,r2

  /* Initialize the operating system */
  ALT_LOG_PRINT_BOOT("[alt_main.c] Done alt_irq_init, calling alt_os_init.\r\n");
  ALT_OS_INIT();
 180161c:	18048740 	call	1804874 <chSysInit>
  ALT_LOG_PRINT_BOOT("[alt_main.c] Done OS Init, calling alt_sem_create.\r\n");
  ALT_SEM_CREATE (&alt_fd_list_lock, 1);

  /* Initialize the device drivers/software components. */
  ALT_LOG_PRINT_BOOT("[alt_main.c] Calling alt_sys_init.\r\n");
  alt_sys_init();
 1801620:	18019800 	call	1801980 <alt_sys_init>
   * devices be present (not equal to /dev/null) and if direct drivers
   * aren't being used.
   */

    ALT_LOG_PRINT_BOOT("[alt_main.c] Redirecting IO.\r\n");
    alt_io_redirect(ALT_STDOUT, ALT_STDIN, ALT_STDERR);
 1801624:	01006074 	movhi	r4,385
 1801628:	21250504 	addi	r4,r4,-27628
 180162c:	01406074 	movhi	r5,385
 1801630:	29650504 	addi	r5,r5,-27628
 1801634:	01806074 	movhi	r6,385
 1801638:	31a50504 	addi	r6,r6,-27628
 180163c:	18052e80 	call	18052e8 <alt_io_redirect>
  /* 
   * Call the C++ constructors 
   */

  ALT_LOG_PRINT_BOOT("[alt_main.c] Calling C++ constructors.\r\n");
  _do_ctors ();
 1801640:	1804e600 	call	1804e60 <_do_ctors>
   * redefined as _exit()). This is in the interest of reducing code footprint,
   * in that the atexit() overhead is removed when it's not needed.
   */

  ALT_LOG_PRINT_BOOT("[alt_main.c] Calling atexit.\r\n");
  atexit (_do_dtors);
 1801644:	01006034 	movhi	r4,384
 1801648:	2113b104 	addi	r4,r4,20164
 180164c:	1805b580 	call	1805b58 <atexit>
  ALT_LOG_PRINT_BOOT("[alt_main.c] Calling main.\r\n");

#ifdef ALT_NO_EXIT
  main (alt_argc, alt_argv, alt_envp);
#else
  result = main (alt_argc, alt_argv, alt_envp);
 1801650:	d126d117 	ldw	r4,-25788(gp)
 1801654:	d166d217 	ldw	r5,-25784(gp)
 1801658:	d1a6d317 	ldw	r6,-25780(gp)
 180165c:	18007e80 	call	18007e8 <main>
 1801660:	e0bfff15 	stw	r2,-4(fp)
  close(STDOUT_FILENO);
 1801664:	01000044 	movi	r4,1
 1801668:	1804ba40 	call	1804ba4 <close>
  exit (result);
 180166c:	e13fff17 	ldw	r4,-4(fp)
 1801670:	1805b6c0 	call	1805b6c <exit>

01801674 <alt_printf>:
/* 
 * ALT printf function 
 */
void 
alt_printf(const char* fmt, ... )
{
 1801674:	defff204 	addi	sp,sp,-56
 1801678:	dfc00a15 	stw	ra,40(sp)
 180167c:	df000915 	stw	fp,36(sp)
 1801680:	df000904 	addi	fp,sp,36
 1801684:	e1400215 	stw	r5,8(fp)
 1801688:	e1800315 	stw	r6,12(fp)
 180168c:	e1c00415 	stw	r7,16(fp)
 1801690:	e13fff15 	stw	r4,-4(fp)
	va_list args;
	va_start(args, fmt);
 1801694:	e0800204 	addi	r2,fp,8
 1801698:	e0bffe15 	stw	r2,-8(fp)
    const char *w;
    char c;

    /* Process format string. */
    w = fmt;
 180169c:	e0bfff17 	ldw	r2,-4(fp)
 18016a0:	e0bffd15 	stw	r2,-12(fp)
    while ((c = *w++) != 0)
 18016a4:	00007806 	br	1801888 <alt_printf+0x214>
    {
        /* If not a format escape character, just print  */
        /* character.  Otherwise, process format string. */
        if (c != '%')
 18016a8:	e0bffc07 	ldb	r2,-16(fp)
 18016ac:	10800960 	cmpeqi	r2,r2,37
 18016b0:	1000031e 	bne	r2,zero,18016c0 <alt_printf+0x4c>
        {
            alt_putchar(c);
 18016b4:	e13ffc07 	ldb	r4,-16(fp)
 18016b8:	18018cc0 	call	18018cc <alt_putchar>
 18016bc:	00007206 	br	1801888 <alt_printf+0x214>
        }
        else
        {
            /* Get format character.  If none     */
            /* available, processing is complete. */
            if ((c = *w++) != 0)
 18016c0:	e0bffd17 	ldw	r2,-12(fp)
 18016c4:	10800003 	ldbu	r2,0(r2)
 18016c8:	e0bffc05 	stb	r2,-16(fp)
 18016cc:	e0bffc07 	ldb	r2,-16(fp)
 18016d0:	1004c03a 	cmpne	r2,r2,zero
 18016d4:	1007883a 	mov	r3,r2
 18016d8:	e0bffd17 	ldw	r2,-12(fp)
 18016dc:	10800044 	addi	r2,r2,1
 18016e0:	e0bffd15 	stw	r2,-12(fp)
 18016e4:	18803fcc 	andi	r2,r3,255
 18016e8:	1005003a 	cmpeq	r2,r2,zero
 18016ec:	1000721e 	bne	r2,zero,18018b8 <alt_printf+0x244>
            {
                if (c == '%')
 18016f0:	e0bffc07 	ldb	r2,-16(fp)
 18016f4:	10800958 	cmpnei	r2,r2,37
 18016f8:	1000031e 	bne	r2,zero,1801708 <alt_printf+0x94>
                {
                    /* Process "%" escape sequence. */
                    alt_putchar(c);
 18016fc:	e13ffc07 	ldb	r4,-16(fp)
 1801700:	18018cc0 	call	18018cc <alt_putchar>
 1801704:	00006006 	br	1801888 <alt_printf+0x214>
                } 
                else if (c == 'c')
 1801708:	e0bffc07 	ldb	r2,-16(fp)
 180170c:	108018d8 	cmpnei	r2,r2,99
 1801710:	1000091e 	bne	r2,zero,1801738 <alt_printf+0xc4>
                {
                    int v = va_arg(args, int);
 1801714:	e0fffe17 	ldw	r3,-8(fp)
 1801718:	18800104 	addi	r2,r3,4
 180171c:	e0bffe15 	stw	r2,-8(fp)
 1801720:	1805883a 	mov	r2,r3
 1801724:	10800017 	ldw	r2,0(r2)
 1801728:	e0bffb15 	stw	r2,-20(fp)
                    alt_putchar(v);
 180172c:	e13ffb17 	ldw	r4,-20(fp)
 1801730:	18018cc0 	call	18018cc <alt_putchar>
 1801734:	00005406 	br	1801888 <alt_printf+0x214>
                }
                else if (c == 'x')
 1801738:	e0bffc07 	ldb	r2,-16(fp)
 180173c:	10801e18 	cmpnei	r2,r2,120
 1801740:	1000371e 	bne	r2,zero,1801820 <alt_printf+0x1ac>
                {
                    /* Process hexadecimal number format. */
                    unsigned long v = va_arg(args, unsigned long);
 1801744:	e0fffe17 	ldw	r3,-8(fp)
 1801748:	18800104 	addi	r2,r3,4
 180174c:	e0bffe15 	stw	r2,-8(fp)
 1801750:	1805883a 	mov	r2,r3
 1801754:	10800017 	ldw	r2,0(r2)
 1801758:	e0bffa15 	stw	r2,-24(fp)
                    unsigned long digit;
                    int digit_shift;

                    /* If the number value is zero, just print and continue. */
                    if (v == 0)
 180175c:	e0bffa17 	ldw	r2,-24(fp)
 1801760:	1004c03a 	cmpne	r2,r2,zero
 1801764:	1000031e 	bne	r2,zero,1801774 <alt_printf+0x100>
                    {
                        alt_putchar('0');
 1801768:	01000c04 	movi	r4,48
 180176c:	18018cc0 	call	18018cc <alt_putchar>
                        continue;
 1801770:	00004506 	br	1801888 <alt_printf+0x214>
                    }

                    /* Find first non-zero digit. */
                    digit_shift = 28;
 1801774:	00800704 	movi	r2,28
 1801778:	e0bff815 	stw	r2,-32(fp)
                    while (!(v & (0xF << digit_shift)))
 180177c:	00000306 	br	180178c <alt_printf+0x118>
                        digit_shift -= 4;
 1801780:	e0bff817 	ldw	r2,-32(fp)
 1801784:	10bfff04 	addi	r2,r2,-4
 1801788:	e0bff815 	stw	r2,-32(fp)
                        continue;
                    }

                    /* Find first non-zero digit. */
                    digit_shift = 28;
                    while (!(v & (0xF << digit_shift)))
 180178c:	00c003c4 	movi	r3,15
 1801790:	e0bff817 	ldw	r2,-32(fp)
 1801794:	1884983a 	sll	r2,r3,r2
 1801798:	1007883a 	mov	r3,r2
 180179c:	e0bffa17 	ldw	r2,-24(fp)
 18017a0:	1884703a 	and	r2,r3,r2
 18017a4:	1005003a 	cmpeq	r2,r2,zero
 18017a8:	103ff51e 	bne	r2,zero,1801780 <alt_printf+0x10c>
                        digit_shift -= 4;

                    /* Print digits. */
                    for (; digit_shift >= 0; digit_shift -= 4)
 18017ac:	00001806 	br	1801810 <alt_printf+0x19c>
                    {
                        digit = (v & (0xF << digit_shift)) >> digit_shift;
 18017b0:	00c003c4 	movi	r3,15
 18017b4:	e0bff817 	ldw	r2,-32(fp)
 18017b8:	1884983a 	sll	r2,r3,r2
 18017bc:	1007883a 	mov	r3,r2
 18017c0:	e0bffa17 	ldw	r2,-24(fp)
 18017c4:	1886703a 	and	r3,r3,r2
 18017c8:	e0bff817 	ldw	r2,-32(fp)
 18017cc:	1884d83a 	srl	r2,r3,r2
 18017d0:	e0bff915 	stw	r2,-28(fp)
                        if (digit <= 9)
 18017d4:	e0bff917 	ldw	r2,-28(fp)
 18017d8:	108002a8 	cmpgeui	r2,r2,10
 18017dc:	1000041e 	bne	r2,zero,18017f0 <alt_printf+0x17c>
                            c = '0' + digit;
 18017e0:	e0bff917 	ldw	r2,-28(fp)
 18017e4:	10800c04 	addi	r2,r2,48
 18017e8:	e0bffc05 	stb	r2,-16(fp)
 18017ec:	00000306 	br	18017fc <alt_printf+0x188>
                        else
                            c = 'a' + digit - 10;
 18017f0:	e0bff917 	ldw	r2,-28(fp)
 18017f4:	108015c4 	addi	r2,r2,87
 18017f8:	e0bffc05 	stb	r2,-16(fp)
                        alt_putchar(c);
 18017fc:	e13ffc07 	ldb	r4,-16(fp)
 1801800:	18018cc0 	call	18018cc <alt_putchar>
                    digit_shift = 28;
                    while (!(v & (0xF << digit_shift)))
                        digit_shift -= 4;

                    /* Print digits. */
                    for (; digit_shift >= 0; digit_shift -= 4)
 1801804:	e0bff817 	ldw	r2,-32(fp)
 1801808:	10bfff04 	addi	r2,r2,-4
 180180c:	e0bff815 	stw	r2,-32(fp)
 1801810:	e0bff817 	ldw	r2,-32(fp)
 1801814:	1004403a 	cmpge	r2,r2,zero
 1801818:	103fe51e 	bne	r2,zero,18017b0 <alt_printf+0x13c>
 180181c:	00001a06 	br	1801888 <alt_printf+0x214>
                        else
                            c = 'a' + digit - 10;
                        alt_putchar(c);
                    }
                }
                else if (c == 's')
 1801820:	e0bffc07 	ldb	r2,-16(fp)
 1801824:	10801cd8 	cmpnei	r2,r2,115
 1801828:	1000171e 	bne	r2,zero,1801888 <alt_printf+0x214>
                {
                    /* Process string format. */
                    char *s = va_arg(args, char *);
 180182c:	e0fffe17 	ldw	r3,-8(fp)
 1801830:	18800104 	addi	r2,r3,4
 1801834:	e0bffe15 	stw	r2,-8(fp)
 1801838:	1805883a 	mov	r2,r3
 180183c:	10800017 	ldw	r2,0(r2)
 1801840:	e0bff715 	stw	r2,-36(fp)

                    while(*s)
 1801844:	00000906 	br	180186c <alt_printf+0x1f8>
                      alt_putchar(*s++);
 1801848:	e0bff717 	ldw	r2,-36(fp)
 180184c:	10800003 	ldbu	r2,0(r2)
 1801850:	11003fcc 	andi	r4,r2,255
 1801854:	2100201c 	xori	r4,r4,128
 1801858:	213fe004 	addi	r4,r4,-128
 180185c:	e0bff717 	ldw	r2,-36(fp)
 1801860:	10800044 	addi	r2,r2,1
 1801864:	e0bff715 	stw	r2,-36(fp)
 1801868:	18018cc0 	call	18018cc <alt_putchar>
                else if (c == 's')
                {
                    /* Process string format. */
                    char *s = va_arg(args, char *);

                    while(*s)
 180186c:	e0bff717 	ldw	r2,-36(fp)
 1801870:	10800003 	ldbu	r2,0(r2)
 1801874:	10803fcc 	andi	r2,r2,255
 1801878:	1080201c 	xori	r2,r2,128
 180187c:	10bfe004 	addi	r2,r2,-128
 1801880:	1004c03a 	cmpne	r2,r2,zero
 1801884:	103ff01e 	bne	r2,zero,1801848 <alt_printf+0x1d4>
    const char *w;
    char c;

    /* Process format string. */
    w = fmt;
    while ((c = *w++) != 0)
 1801888:	e0bffd17 	ldw	r2,-12(fp)
 180188c:	10800003 	ldbu	r2,0(r2)
 1801890:	e0bffc05 	stb	r2,-16(fp)
 1801894:	e0bffc07 	ldb	r2,-16(fp)
 1801898:	1004c03a 	cmpne	r2,r2,zero
 180189c:	1007883a 	mov	r3,r2
 18018a0:	e0bffd17 	ldw	r2,-12(fp)
 18018a4:	10800044 	addi	r2,r2,1
 18018a8:	e0bffd15 	stw	r2,-12(fp)
 18018ac:	18803fcc 	andi	r2,r3,255
 18018b0:	1004c03a 	cmpne	r2,r2,zero
 18018b4:	103f7c1e 	bne	r2,zero,18016a8 <alt_printf+0x34>
            {
                break;
            }
        }
    }
}
 18018b8:	e037883a 	mov	sp,fp
 18018bc:	dfc00117 	ldw	ra,4(sp)
 18018c0:	df000017 	ldw	fp,0(sp)
 18018c4:	dec00504 	addi	sp,sp,20
 18018c8:	f800283a 	ret

018018cc <alt_putchar>:
 * Uses the ALT_DRIVER_WRITE() macro to call directly to driver if available.
 * Otherwise, uses newlib provided putchar() routine.
 */
int 
alt_putchar(int c)
{
 18018cc:	defffd04 	addi	sp,sp,-12
 18018d0:	dfc00215 	stw	ra,8(sp)
 18018d4:	df000115 	stw	fp,4(sp)
 18018d8:	df000104 	addi	fp,sp,4
 18018dc:	e13fff15 	stw	r4,-4(fp)
    if (ALT_DRIVER_WRITE(ALT_STDOUT_DEV, &c1, 1, 0) == -1) {
        return -1;
    }
    return c;
#else
    return putchar(c);
 18018e0:	00806074 	movhi	r2,385
 18018e4:	10abd604 	addi	r2,r2,-20648
 18018e8:	10800017 	ldw	r2,0(r2)
 18018ec:	11400217 	ldw	r5,8(r2)
 18018f0:	e13fff17 	ldw	r4,-4(fp)
 18018f4:	1806ae80 	call	1806ae8 <putc>
#endif
}
 18018f8:	e037883a 	mov	sp,fp
 18018fc:	dfc00117 	ldw	ra,4(sp)
 1801900:	df000017 	ldw	fp,0(sp)
 1801904:	dec00204 	addi	sp,sp,8
 1801908:	f800283a 	ret

0180190c <alt_putstr>:
 * Uses the ALT_DRIVER_WRITE() macro to call directly to driver if available.
 * Otherwise, uses newlib provided fputs() routine.
 */
int 
alt_putstr(const char* str)
{
 180190c:	defffd04 	addi	sp,sp,-12
 1801910:	dfc00215 	stw	ra,8(sp)
 1801914:	df000115 	stw	fp,4(sp)
 1801918:	df000104 	addi	fp,sp,4
 180191c:	e13fff15 	stw	r4,-4(fp)
#ifdef ALT_USE_DIRECT_DRIVERS
    ALT_DRIVER_WRITE_EXTERNS(ALT_STDOUT_DEV);
    return ALT_DRIVER_WRITE(ALT_STDOUT_DEV, str, strlen(str), 0);
#else
    return fputs(str, stdout);
 1801920:	00806074 	movhi	r2,385
 1801924:	10abd604 	addi	r2,r2,-20648
 1801928:	10800017 	ldw	r2,0(r2)
 180192c:	11400217 	ldw	r5,8(r2)
 1801930:	e13fff17 	ldw	r4,-4(fp)
 1801934:	1805c180 	call	1805c18 <fputs>
#endif
}
 1801938:	e037883a 	mov	sp,fp
 180193c:	dfc00117 	ldw	ra,4(sp)
 1801940:	df000017 	ldw	fp,0(sp)
 1801944:	dec00204 	addi	sp,sp,8
 1801948:	f800283a 	ret

0180194c <alt_irq_init>:
 * The "base" parameter is ignored and only
 * present for backwards-compatibility.
 */

void alt_irq_init ( const void* base )
{
 180194c:	defffd04 	addi	sp,sp,-12
 1801950:	dfc00215 	stw	ra,8(sp)
 1801954:	df000115 	stw	fp,4(sp)
 1801958:	df000104 	addi	fp,sp,4
 180195c:	e13fff15 	stw	r4,-4(fp)
    ALTERA_NIOS2_QSYS_IRQ_INIT ( NIOS, nios);
 1801960:	18058640 	call	1805864 <altera_nios2_qsys_irq_init>
 * alt_irq_cpu_enable_interrupts() enables the CPU to start taking interrupts.
 */
static ALT_INLINE void ALT_ALWAYS_INLINE 
       alt_irq_cpu_enable_interrupts ()
{
    NIOS2_WRITE_STATUS(NIOS2_STATUS_PIE_MSK
 1801964:	00800044 	movi	r2,1
 1801968:	1001703a 	wrctl	status,r2
    alt_irq_cpu_enable_interrupts();
}
 180196c:	e037883a 	mov	sp,fp
 1801970:	dfc00117 	ldw	ra,4(sp)
 1801974:	df000017 	ldw	fp,0(sp)
 1801978:	dec00204 	addi	sp,sp,8
 180197c:	f800283a 	ret

01801980 <alt_sys_init>:
 * Initialize the non-interrupt controller devices.
 * Called after alt_irq_init().
 */

void alt_sys_init( void )
{
 1801980:	defffe04 	addi	sp,sp,-8
 1801984:	dfc00115 	stw	ra,4(sp)
 1801988:	df000015 	stw	fp,0(sp)
 180198c:	d839883a 	mov	fp,sp
    ALTERA_AVALON_TIMER_INIT ( TIMER_0, timer_0);
 1801990:	01008074 	movhi	r4,513
 1801994:	21041004 	addi	r4,r4,4160
 1801998:	000b883a 	mov	r5,zero
 180199c:	018000c4 	movi	r6,3
 18019a0:	01c0fa04 	movi	r7,1000
 18019a4:	18025500 	call	1802550 <alt_avalon_timer_sc_init>
    ALTERA_AVALON_JTAG_UART_INIT ( JTAG_UART, jtag_uart);
 18019a8:	01006074 	movhi	r4,385
 18019ac:	21252204 	addi	r4,r4,-27512
 18019b0:	000b883a 	mov	r5,zero
 18019b4:	01800084 	movi	r6,2
 18019b8:	1801b7c0 	call	1801b7c <altera_avalon_jtag_uart_init>
 18019bc:	01006074 	movhi	r4,385
 18019c0:	21251804 	addi	r4,r4,-27552
 18019c4:	18019fc0 	call	18019fc <alt_dev_reg>
    ALTERA_AVALON_SPI_INIT ( SDCARD_SPI, sdcard_spi);
    ALTERA_AVALON_SYSID_QSYS_INIT ( SYSID, sysid);
    ALTERA_AVALON_UART_INIT ( UART_0, uart_0);
 18019c8:	01006074 	movhi	r4,385
 18019cc:	21293a04 	addi	r4,r4,-23320
 18019d0:	000b883a 	mov	r5,zero
 18019d4:	000d883a 	mov	r6,zero
 18019d8:	18026d80 	call	18026d8 <altera_avalon_uart_init>
 18019dc:	01006074 	movhi	r4,385
 18019e0:	21293004 	addi	r4,r4,-23360
 18019e4:	18019fc0 	call	18019fc <alt_dev_reg>
}
 18019e8:	e037883a 	mov	sp,fp
 18019ec:	dfc00117 	ldw	ra,4(sp)
 18019f0:	df000017 	ldw	fp,0(sp)
 18019f4:	dec00204 	addi	sp,sp,8
 18019f8:	f800283a 	ret

018019fc <alt_dev_reg>:
 */

extern int alt_fs_reg  (alt_dev* dev); 

static ALT_INLINE int alt_dev_reg (alt_dev* dev)
{
 18019fc:	defffd04 	addi	sp,sp,-12
 1801a00:	dfc00215 	stw	ra,8(sp)
 1801a04:	df000115 	stw	fp,4(sp)
 1801a08:	df000104 	addi	fp,sp,4
 1801a0c:	e13fff15 	stw	r4,-4(fp)
  extern alt_llist alt_dev_list;

  return alt_dev_llist_insert ((alt_dev_llist*) dev, &alt_dev_list);
 1801a10:	e13fff17 	ldw	r4,-4(fp)
 1801a14:	01406074 	movhi	r5,385
 1801a18:	296bcf04 	addi	r5,r5,-20676
 1801a1c:	1804d4c0 	call	1804d4c <alt_dev_llist_insert>
}
 1801a20:	e037883a 	mov	sp,fp
 1801a24:	dfc00117 	ldw	ra,4(sp)
 1801a28:	df000017 	ldw	fp,0(sp)
 1801a2c:	dec00204 	addi	sp,sp,8
 1801a30:	f800283a 	ret

01801a34 <altera_avalon_jtag_uart_read_fd>:
 *
 */

int 
altera_avalon_jtag_uart_read_fd(alt_fd* fd, char* buffer, int space)
{
 1801a34:	defffa04 	addi	sp,sp,-24
 1801a38:	dfc00515 	stw	ra,20(sp)
 1801a3c:	df000415 	stw	fp,16(sp)
 1801a40:	df000404 	addi	fp,sp,16
 1801a44:	e13ffd15 	stw	r4,-12(fp)
 1801a48:	e17ffe15 	stw	r5,-8(fp)
 1801a4c:	e1bfff15 	stw	r6,-4(fp)
    altera_avalon_jtag_uart_dev* dev = (altera_avalon_jtag_uart_dev*) fd->dev; 
 1801a50:	e0bffd17 	ldw	r2,-12(fp)
 1801a54:	10800017 	ldw	r2,0(r2)
 1801a58:	e0bffc15 	stw	r2,-16(fp)

    return altera_avalon_jtag_uart_read(&dev->state, buffer, space,
 1801a5c:	e0bffc17 	ldw	r2,-16(fp)
 1801a60:	11000a04 	addi	r4,r2,40
 1801a64:	e0bffd17 	ldw	r2,-12(fp)
 1801a68:	11c00217 	ldw	r7,8(r2)
 1801a6c:	e17ffe17 	ldw	r5,-8(fp)
 1801a70:	e1bfff17 	ldw	r6,-4(fp)
 1801a74:	180207c0 	call	180207c <altera_avalon_jtag_uart_read>
      fd->fd_flags);
}
 1801a78:	e037883a 	mov	sp,fp
 1801a7c:	dfc00117 	ldw	ra,4(sp)
 1801a80:	df000017 	ldw	fp,0(sp)
 1801a84:	dec00204 	addi	sp,sp,8
 1801a88:	f800283a 	ret

01801a8c <altera_avalon_jtag_uart_write_fd>:

int 
altera_avalon_jtag_uart_write_fd(alt_fd* fd, const char* buffer, int space)
{
 1801a8c:	defffa04 	addi	sp,sp,-24
 1801a90:	dfc00515 	stw	ra,20(sp)
 1801a94:	df000415 	stw	fp,16(sp)
 1801a98:	df000404 	addi	fp,sp,16
 1801a9c:	e13ffd15 	stw	r4,-12(fp)
 1801aa0:	e17ffe15 	stw	r5,-8(fp)
 1801aa4:	e1bfff15 	stw	r6,-4(fp)
    altera_avalon_jtag_uart_dev* dev = (altera_avalon_jtag_uart_dev*) fd->dev; 
 1801aa8:	e0bffd17 	ldw	r2,-12(fp)
 1801aac:	10800017 	ldw	r2,0(r2)
 1801ab0:	e0bffc15 	stw	r2,-16(fp)

    return altera_avalon_jtag_uart_write(&dev->state, buffer, space,
 1801ab4:	e0bffc17 	ldw	r2,-16(fp)
 1801ab8:	11000a04 	addi	r4,r2,40
 1801abc:	e0bffd17 	ldw	r2,-12(fp)
 1801ac0:	11c00217 	ldw	r7,8(r2)
 1801ac4:	e17ffe17 	ldw	r5,-8(fp)
 1801ac8:	e1bfff17 	ldw	r6,-4(fp)
 1801acc:	18022a00 	call	18022a0 <altera_avalon_jtag_uart_write>
      fd->fd_flags);
}
 1801ad0:	e037883a 	mov	sp,fp
 1801ad4:	dfc00117 	ldw	ra,4(sp)
 1801ad8:	df000017 	ldw	fp,0(sp)
 1801adc:	dec00204 	addi	sp,sp,8
 1801ae0:	f800283a 	ret

01801ae4 <altera_avalon_jtag_uart_close_fd>:

#ifndef ALTERA_AVALON_JTAG_UART_SMALL

int 
altera_avalon_jtag_uart_close_fd(alt_fd* fd)
{
 1801ae4:	defffc04 	addi	sp,sp,-16
 1801ae8:	dfc00315 	stw	ra,12(sp)
 1801aec:	df000215 	stw	fp,8(sp)
 1801af0:	df000204 	addi	fp,sp,8
 1801af4:	e13fff15 	stw	r4,-4(fp)
    altera_avalon_jtag_uart_dev* dev = (altera_avalon_jtag_uart_dev*) fd->dev; 
 1801af8:	e0bfff17 	ldw	r2,-4(fp)
 1801afc:	10800017 	ldw	r2,0(r2)
 1801b00:	e0bffe15 	stw	r2,-8(fp)

    return altera_avalon_jtag_uart_close(&dev->state, fd->fd_flags);
 1801b04:	e0bffe17 	ldw	r2,-8(fp)
 1801b08:	11000a04 	addi	r4,r2,40
 1801b0c:	e0bfff17 	ldw	r2,-4(fp)
 1801b10:	11400217 	ldw	r5,8(r2)
 1801b14:	1801f140 	call	1801f14 <altera_avalon_jtag_uart_close>
}
 1801b18:	e037883a 	mov	sp,fp
 1801b1c:	dfc00117 	ldw	ra,4(sp)
 1801b20:	df000017 	ldw	fp,0(sp)
 1801b24:	dec00204 	addi	sp,sp,8
 1801b28:	f800283a 	ret

01801b2c <altera_avalon_jtag_uart_ioctl_fd>:

int 
altera_avalon_jtag_uart_ioctl_fd(alt_fd* fd, int req, void* arg)
{
 1801b2c:	defffa04 	addi	sp,sp,-24
 1801b30:	dfc00515 	stw	ra,20(sp)
 1801b34:	df000415 	stw	fp,16(sp)
 1801b38:	df000404 	addi	fp,sp,16
 1801b3c:	e13ffd15 	stw	r4,-12(fp)
 1801b40:	e17ffe15 	stw	r5,-8(fp)
 1801b44:	e1bfff15 	stw	r6,-4(fp)
    altera_avalon_jtag_uart_dev* dev = (altera_avalon_jtag_uart_dev*) fd->dev;
 1801b48:	e0bffd17 	ldw	r2,-12(fp)
 1801b4c:	10800017 	ldw	r2,0(r2)
 1801b50:	e0bffc15 	stw	r2,-16(fp)

    return altera_avalon_jtag_uart_ioctl(&dev->state, req, arg);
 1801b54:	e0bffc17 	ldw	r2,-16(fp)
 1801b58:	11000a04 	addi	r4,r2,40
 1801b5c:	e17ffe17 	ldw	r5,-8(fp)
 1801b60:	e1bfff17 	ldw	r6,-4(fp)
 1801b64:	1801f880 	call	1801f88 <altera_avalon_jtag_uart_ioctl>
}
 1801b68:	e037883a 	mov	sp,fp
 1801b6c:	dfc00117 	ldw	ra,4(sp)
 1801b70:	df000017 	ldw	fp,0(sp)
 1801b74:	dec00204 	addi	sp,sp,8
 1801b78:	f800283a 	ret

01801b7c <altera_avalon_jtag_uart_init>:
 * Return 1 on sucessful IRQ register and 0 on failure.
 */

void altera_avalon_jtag_uart_init(altera_avalon_jtag_uart_state* sp, 
                                  int irq_controller_id, int irq)
{
 1801b7c:	defffa04 	addi	sp,sp,-24
 1801b80:	dfc00515 	stw	ra,20(sp)
 1801b84:	df000415 	stw	fp,16(sp)
 1801b88:	df000404 	addi	fp,sp,16
 1801b8c:	e13ffd15 	stw	r4,-12(fp)
 1801b90:	e17ffe15 	stw	r5,-8(fp)
 1801b94:	e1bfff15 	stw	r6,-4(fp)
  ALT_FLAG_CREATE(&sp->events, 0);
  ALT_SEM_CREATE(&sp->read_lock, 1);
  ALT_SEM_CREATE(&sp->write_lock, 1);

  /* enable read interrupts at the device */
  sp->irq_enable = ALTERA_AVALON_JTAG_UART_CONTROL_RE_MSK;
 1801b98:	e0fffd17 	ldw	r3,-12(fp)
 1801b9c:	00800044 	movi	r2,1
 1801ba0:	18800815 	stw	r2,32(r3)

  IOWR_ALTERA_AVALON_JTAG_UART_CONTROL(sp->base, sp->irq_enable); 
 1801ba4:	e0bffd17 	ldw	r2,-12(fp)
 1801ba8:	10800017 	ldw	r2,0(r2)
 1801bac:	11000104 	addi	r4,r2,4
 1801bb0:	e0bffd17 	ldw	r2,-12(fp)
 1801bb4:	10800817 	ldw	r2,32(r2)
 1801bb8:	1007883a 	mov	r3,r2
 1801bbc:	2005883a 	mov	r2,r4
 1801bc0:	10c00035 	stwio	r3,0(r2)
  
  /* register the interrupt handler */
#ifdef ALT_ENHANCED_INTERRUPT_API_PRESENT
  alt_ic_isr_register(irq_controller_id, irq, altera_avalon_jtag_uart_irq, 
 1801bc4:	e13ffe17 	ldw	r4,-8(fp)
 1801bc8:	e17fff17 	ldw	r5,-4(fp)
 1801bcc:	d8000015 	stw	zero,0(sp)
 1801bd0:	01806034 	movhi	r6,384
 1801bd4:	31870f04 	addi	r6,r6,7228
 1801bd8:	e1fffd17 	ldw	r7,-12(fp)
 1801bdc:	1804f440 	call	1804f44 <alt_ic_isr_register>
#else
  alt_irq_register(irq, sp, altera_avalon_jtag_uart_irq);
#endif  

  /* Register an alarm to go off every second to check for presence of host */
  sp->host_inactive = 0;
 1801be0:	e0bffd17 	ldw	r2,-12(fp)
 1801be4:	10000915 	stw	zero,36(r2)

  if (alt_alarm_start(&sp->alarm, alt_ticks_per_second(), 
 1801be8:	e0bffd17 	ldw	r2,-12(fp)
 1801bec:	11000204 	addi	r4,r2,8
 * Obtain the system clock rate in ticks/s. 
 */

static ALT_INLINE alt_u32 ALT_ALWAYS_INLINE alt_ticks_per_second (void)
{
  return _alt_tick_rate;
 1801bf0:	00806074 	movhi	r2,385
 1801bf4:	10b2a404 	addi	r2,r2,-13680
 1801bf8:	10800017 	ldw	r2,0(r2)
 1801bfc:	100b883a 	mov	r5,r2
 1801c00:	01806034 	movhi	r6,384
 1801c04:	31879904 	addi	r6,r6,7780
 1801c08:	e1fffd17 	ldw	r7,-12(fp)
 1801c0c:	1804a500 	call	1804a50 <alt_alarm_start>
 1801c10:	1004403a 	cmpge	r2,r2,zero
 1801c14:	1000041e 	bne	r2,zero,1801c28 <altera_avalon_jtag_uart_init+0xac>
    &altera_avalon_jtag_uart_timeout, sp) < 0)
  {
    /* If we can't set the alarm then record "don't know if host present" 
     * and behave as though the host is present.
     */
    sp->timeout = INT_MAX;
 1801c18:	e0fffd17 	ldw	r3,-12(fp)
 1801c1c:	00a00034 	movhi	r2,32768
 1801c20:	10bfffc4 	addi	r2,r2,-1
 1801c24:	18800115 	stw	r2,4(r3)
  }

  /* ALT_LOG - see altera_hal/HAL/inc/sys/alt_log_printf.h */ 
  ALT_LOG_JTAG_UART_ALARM_REGISTER(sp, sp->base);
}
 1801c28:	e037883a 	mov	sp,fp
 1801c2c:	dfc00117 	ldw	ra,4(sp)
 1801c30:	df000017 	ldw	fp,0(sp)
 1801c34:	dec00204 	addi	sp,sp,8
 1801c38:	f800283a 	ret

01801c3c <altera_avalon_jtag_uart_irq>:
#ifdef ALT_ENHANCED_INTERRUPT_API_PRESENT
static void altera_avalon_jtag_uart_irq(void* context)
#else
static void altera_avalon_jtag_uart_irq(void* context, alt_u32 id)
#endif
{
 1801c3c:	defff804 	addi	sp,sp,-32
 1801c40:	df000715 	stw	fp,28(sp)
 1801c44:	df000704 	addi	fp,sp,28
 1801c48:	e13fff15 	stw	r4,-4(fp)
  altera_avalon_jtag_uart_state* sp = (altera_avalon_jtag_uart_state*) context;
 1801c4c:	e0bfff17 	ldw	r2,-4(fp)
 1801c50:	e0bffe15 	stw	r2,-8(fp)
  unsigned int base = sp->base;
 1801c54:	e0bffe17 	ldw	r2,-8(fp)
 1801c58:	10800017 	ldw	r2,0(r2)
 1801c5c:	e0bffd15 	stw	r2,-12(fp)
 1801c60:	00000006 	br	1801c64 <altera_avalon_jtag_uart_irq+0x28>
  /* ALT_LOG - see altera_hal/HAL/inc/sys/alt_log_printf.h */ 
  ALT_LOG_JTAG_UART_ISR_FUNCTION(base, sp);

  for ( ; ; )
  {
    unsigned int control = IORD_ALTERA_AVALON_JTAG_UART_CONTROL(base);
 1801c64:	e0bffd17 	ldw	r2,-12(fp)
 1801c68:	10800104 	addi	r2,r2,4
 1801c6c:	10800037 	ldwio	r2,0(r2)
 1801c70:	e0bffc15 	stw	r2,-16(fp)

    /* Return once nothing more to do */
    if ((control & (ALTERA_AVALON_JTAG_UART_CONTROL_RI_MSK | ALTERA_AVALON_JTAG_UART_CONTROL_WI_MSK)) == 0)
 1801c74:	e0bffc17 	ldw	r2,-16(fp)
 1801c78:	1080c00c 	andi	r2,r2,768
 1801c7c:	1005003a 	cmpeq	r2,r2,zero
 1801c80:	1000741e 	bne	r2,zero,1801e54 <altera_avalon_jtag_uart_irq+0x218>
      break;

    if (control & ALTERA_AVALON_JTAG_UART_CONTROL_RI_MSK)
 1801c84:	e0bffc17 	ldw	r2,-16(fp)
 1801c88:	1080400c 	andi	r2,r2,256
 1801c8c:	1005003a 	cmpeq	r2,r2,zero
 1801c90:	1000351e 	bne	r2,zero,1801d68 <altera_avalon_jtag_uart_irq+0x12c>
    {
      /* process a read irq.  Start by assuming that there is data in the
       * receive FIFO (otherwise why would we have been interrupted?)
       */
      unsigned int data = 1 << ALTERA_AVALON_JTAG_UART_DATA_RAVAIL_OFST;
 1801c94:	00800074 	movhi	r2,1
 1801c98:	e0bffb15 	stw	r2,-20(fp)
      for ( ; ; )
      {
        /* Check whether there is space in the buffer.  If not then we must not
         * read any characters from the buffer as they will be lost.
         */
        unsigned int next = (sp->rx_in + 1) % ALTERA_AVALON_JTAG_UART_BUF_LEN;
 1801c9c:	e0bffe17 	ldw	r2,-8(fp)
 1801ca0:	10800a17 	ldw	r2,40(r2)
 1801ca4:	10800044 	addi	r2,r2,1
 1801ca8:	1081ffcc 	andi	r2,r2,2047
 1801cac:	e0bffa15 	stw	r2,-24(fp)
        if (next == sp->rx_out)
 1801cb0:	e0bffe17 	ldw	r2,-8(fp)
 1801cb4:	10c00b17 	ldw	r3,44(r2)
 1801cb8:	e0bffa17 	ldw	r2,-24(fp)
 1801cbc:	18801626 	beq	r3,r2,1801d18 <altera_avalon_jtag_uart_irq+0xdc>
          break;

        /* Try to remove a character from the FIFO and find out whether there
         * are any more characters remaining.
         */
        data = IORD_ALTERA_AVALON_JTAG_UART_DATA(base);
 1801cc0:	e0bffd17 	ldw	r2,-12(fp)
 1801cc4:	10800037 	ldwio	r2,0(r2)
 1801cc8:	e0bffb15 	stw	r2,-20(fp)
        
        if ((data & ALTERA_AVALON_JTAG_UART_DATA_RVALID_MSK) == 0)
 1801ccc:	e0bffb17 	ldw	r2,-20(fp)
 1801cd0:	10a0000c 	andi	r2,r2,32768
 1801cd4:	1005003a 	cmpeq	r2,r2,zero
 1801cd8:	10000f1e 	bne	r2,zero,1801d18 <altera_avalon_jtag_uart_irq+0xdc>
          break;

        sp->rx_buf[sp->rx_in] = (data & ALTERA_AVALON_JTAG_UART_DATA_DATA_MSK) >> ALTERA_AVALON_JTAG_UART_DATA_DATA_OFST;
 1801cdc:	e0bffe17 	ldw	r2,-8(fp)
 1801ce0:	10c00a17 	ldw	r3,40(r2)
 1801ce4:	e0bffb17 	ldw	r2,-20(fp)
 1801ce8:	1009883a 	mov	r4,r2
 1801cec:	e0bffe17 	ldw	r2,-8(fp)
 1801cf0:	1885883a 	add	r2,r3,r2
 1801cf4:	10800e04 	addi	r2,r2,56
 1801cf8:	11000005 	stb	r4,0(r2)
        sp->rx_in = (sp->rx_in + 1) % ALTERA_AVALON_JTAG_UART_BUF_LEN;
 1801cfc:	e0bffe17 	ldw	r2,-8(fp)
 1801d00:	10800a17 	ldw	r2,40(r2)
 1801d04:	10800044 	addi	r2,r2,1
 1801d08:	10c1ffcc 	andi	r3,r2,2047
 1801d0c:	e0bffe17 	ldw	r2,-8(fp)
 1801d10:	10c00a15 	stw	r3,40(r2)

        /* Post an event to notify jtag_uart_read that a character has been read */
        ALT_FLAG_POST (sp->events, ALT_JTAG_UART_READ_RDY, OS_FLAG_SET);
      }
 1801d14:	003fe106 	br	1801c9c <altera_avalon_jtag_uart_irq+0x60>

      if (data & ALTERA_AVALON_JTAG_UART_DATA_RAVAIL_MSK)
 1801d18:	e0bffb17 	ldw	r2,-20(fp)
 1801d1c:	10bfffec 	andhi	r2,r2,65535
 1801d20:	1005003a 	cmpeq	r2,r2,zero
 1801d24:	1000101e 	bne	r2,zero,1801d68 <altera_avalon_jtag_uart_irq+0x12c>
      {
        /* If there is still data available here then the buffer is full 
         * so turn off receive interrupts until some space becomes available.
         */
        sp->irq_enable &= ~ALTERA_AVALON_JTAG_UART_CONTROL_RE_MSK;
 1801d28:	e0bffe17 	ldw	r2,-8(fp)
 1801d2c:	10c00817 	ldw	r3,32(r2)
 1801d30:	00bfff84 	movi	r2,-2
 1801d34:	1886703a 	and	r3,r3,r2
 1801d38:	e0bffe17 	ldw	r2,-8(fp)
 1801d3c:	10c00815 	stw	r3,32(r2)
        IOWR_ALTERA_AVALON_JTAG_UART_CONTROL(base, sp->irq_enable);
 1801d40:	e0bffd17 	ldw	r2,-12(fp)
 1801d44:	11000104 	addi	r4,r2,4
 1801d48:	e0bffe17 	ldw	r2,-8(fp)
 1801d4c:	10800817 	ldw	r2,32(r2)
 1801d50:	1007883a 	mov	r3,r2
 1801d54:	2005883a 	mov	r2,r4
 1801d58:	10c00035 	stwio	r3,0(r2)
        
        /* Dummy read to ensure IRQ is cleared prior to ISR completion */
        IORD_ALTERA_AVALON_JTAG_UART_CONTROL(base);
 1801d5c:	e0bffd17 	ldw	r2,-12(fp)
 1801d60:	10800104 	addi	r2,r2,4
 1801d64:	10800037 	ldwio	r2,0(r2)
      }
    }

    if (control & ALTERA_AVALON_JTAG_UART_CONTROL_WI_MSK)
 1801d68:	e0bffc17 	ldw	r2,-16(fp)
 1801d6c:	1080800c 	andi	r2,r2,512
 1801d70:	1005003a 	cmpeq	r2,r2,zero
 1801d74:	103fbb1e 	bne	r2,zero,1801c64 <altera_avalon_jtag_uart_irq+0x28>
    {
      /* process a write irq */
      unsigned int space = (control & ALTERA_AVALON_JTAG_UART_CONTROL_WSPACE_MSK) >> ALTERA_AVALON_JTAG_UART_CONTROL_WSPACE_OFST;
 1801d78:	e0bffc17 	ldw	r2,-16(fp)
 1801d7c:	10bfffec 	andhi	r2,r2,65535
 1801d80:	1004d43a 	srli	r2,r2,16
 1801d84:	e0bff915 	stw	r2,-28(fp)

      while (space > 0 && sp->tx_out != sp->tx_in)
 1801d88:	00001506 	br	1801de0 <altera_avalon_jtag_uart_irq+0x1a4>
      {
        IOWR_ALTERA_AVALON_JTAG_UART_DATA(base, sp->tx_buf[sp->tx_out]);
 1801d8c:	e13ffd17 	ldw	r4,-12(fp)
 1801d90:	e0bffe17 	ldw	r2,-8(fp)
 1801d94:	10c00d17 	ldw	r3,52(r2)
 1801d98:	e0bffe17 	ldw	r2,-8(fp)
 1801d9c:	1885883a 	add	r2,r3,r2
 1801da0:	10820e04 	addi	r2,r2,2104
 1801da4:	10800003 	ldbu	r2,0(r2)
 1801da8:	10c03fcc 	andi	r3,r2,255
 1801dac:	18c0201c 	xori	r3,r3,128
 1801db0:	18ffe004 	addi	r3,r3,-128
 1801db4:	2005883a 	mov	r2,r4
 1801db8:	10c00035 	stwio	r3,0(r2)

        sp->tx_out = (sp->tx_out + 1) % ALTERA_AVALON_JTAG_UART_BUF_LEN;
 1801dbc:	e0bffe17 	ldw	r2,-8(fp)
 1801dc0:	10800d17 	ldw	r2,52(r2)
 1801dc4:	10800044 	addi	r2,r2,1
 1801dc8:	10c1ffcc 	andi	r3,r2,2047
 1801dcc:	e0bffe17 	ldw	r2,-8(fp)
 1801dd0:	10c00d15 	stw	r3,52(r2)

        /* Post an event to notify jtag_uart_write that a character has been written */
        ALT_FLAG_POST (sp->events, ALT_JTAG_UART_WRITE_RDY, OS_FLAG_SET);

        space--;
 1801dd4:	e0bff917 	ldw	r2,-28(fp)
 1801dd8:	10bfffc4 	addi	r2,r2,-1
 1801ddc:	e0bff915 	stw	r2,-28(fp)
    if (control & ALTERA_AVALON_JTAG_UART_CONTROL_WI_MSK)
    {
      /* process a write irq */
      unsigned int space = (control & ALTERA_AVALON_JTAG_UART_CONTROL_WSPACE_MSK) >> ALTERA_AVALON_JTAG_UART_CONTROL_WSPACE_OFST;

      while (space > 0 && sp->tx_out != sp->tx_in)
 1801de0:	e0bff917 	ldw	r2,-28(fp)
 1801de4:	1005003a 	cmpeq	r2,r2,zero
 1801de8:	1000051e 	bne	r2,zero,1801e00 <altera_avalon_jtag_uart_irq+0x1c4>
 1801dec:	e0bffe17 	ldw	r2,-8(fp)
 1801df0:	10c00d17 	ldw	r3,52(r2)
 1801df4:	e0bffe17 	ldw	r2,-8(fp)
 1801df8:	10800c17 	ldw	r2,48(r2)
 1801dfc:	18bfe31e 	bne	r3,r2,1801d8c <altera_avalon_jtag_uart_irq+0x150>
        ALT_FLAG_POST (sp->events, ALT_JTAG_UART_WRITE_RDY, OS_FLAG_SET);

        space--;
      }

      if (space > 0)
 1801e00:	e0bff917 	ldw	r2,-28(fp)
 1801e04:	1005003a 	cmpeq	r2,r2,zero
 1801e08:	103f961e 	bne	r2,zero,1801c64 <altera_avalon_jtag_uart_irq+0x28>
      {
        /* If we don't have any more data available then turn off the TX interrupt */
        sp->irq_enable &= ~ALTERA_AVALON_JTAG_UART_CONTROL_WE_MSK;
 1801e0c:	e0bffe17 	ldw	r2,-8(fp)
 1801e10:	10c00817 	ldw	r3,32(r2)
 1801e14:	00bfff44 	movi	r2,-3
 1801e18:	1886703a 	and	r3,r3,r2
 1801e1c:	e0bffe17 	ldw	r2,-8(fp)
 1801e20:	10c00815 	stw	r3,32(r2)
        IOWR_ALTERA_AVALON_JTAG_UART_CONTROL(sp->base, sp->irq_enable);
 1801e24:	e0bffe17 	ldw	r2,-8(fp)
 1801e28:	10800017 	ldw	r2,0(r2)
 1801e2c:	11000104 	addi	r4,r2,4
 1801e30:	e0bffe17 	ldw	r2,-8(fp)
 1801e34:	10800817 	ldw	r2,32(r2)
 1801e38:	1007883a 	mov	r3,r2
 1801e3c:	2005883a 	mov	r2,r4
 1801e40:	10c00035 	stwio	r3,0(r2)
        
        /* Dummy read to ensure IRQ is cleared prior to ISR completion */
        IORD_ALTERA_AVALON_JTAG_UART_CONTROL(base);
 1801e44:	e0bffd17 	ldw	r2,-12(fp)
 1801e48:	10800104 	addi	r2,r2,4
 1801e4c:	10800037 	ldwio	r2,0(r2)
      }
    }
  }
 1801e50:	003f8406 	br	1801c64 <altera_avalon_jtag_uart_irq+0x28>
}
 1801e54:	e037883a 	mov	sp,fp
 1801e58:	df000017 	ldw	fp,0(sp)
 1801e5c:	dec00104 	addi	sp,sp,4
 1801e60:	f800283a 	ret

01801e64 <altera_avalon_jtag_uart_timeout>:
 * Timeout routine is called every second
 */

static alt_u32 
altera_avalon_jtag_uart_timeout(void* context) 
{
 1801e64:	defffc04 	addi	sp,sp,-16
 1801e68:	df000315 	stw	fp,12(sp)
 1801e6c:	df000304 	addi	fp,sp,12
 1801e70:	e13fff15 	stw	r4,-4(fp)
  altera_avalon_jtag_uart_state* sp = (altera_avalon_jtag_uart_state *) context;
 1801e74:	e0bfff17 	ldw	r2,-4(fp)
 1801e78:	e0bffe15 	stw	r2,-8(fp)

  unsigned int control = IORD_ALTERA_AVALON_JTAG_UART_CONTROL(sp->base);
 1801e7c:	e0bffe17 	ldw	r2,-8(fp)
 1801e80:	10800017 	ldw	r2,0(r2)
 1801e84:	10800104 	addi	r2,r2,4
 1801e88:	10800037 	ldwio	r2,0(r2)
 1801e8c:	e0bffd15 	stw	r2,-12(fp)

  if (control & ALTERA_AVALON_JTAG_UART_CONTROL_AC_MSK)
 1801e90:	e0bffd17 	ldw	r2,-12(fp)
 1801e94:	1081000c 	andi	r2,r2,1024
 1801e98:	1005003a 	cmpeq	r2,r2,zero
 1801e9c:	10000c1e 	bne	r2,zero,1801ed0 <altera_avalon_jtag_uart_timeout+0x6c>
  {
    IOWR_ALTERA_AVALON_JTAG_UART_CONTROL(sp->base, sp->irq_enable | ALTERA_AVALON_JTAG_UART_CONTROL_AC_MSK);
 1801ea0:	e0bffe17 	ldw	r2,-8(fp)
 1801ea4:	10800017 	ldw	r2,0(r2)
 1801ea8:	11000104 	addi	r4,r2,4
 1801eac:	e0bffe17 	ldw	r2,-8(fp)
 1801eb0:	10800817 	ldw	r2,32(r2)
 1801eb4:	10810014 	ori	r2,r2,1024
 1801eb8:	1007883a 	mov	r3,r2
 1801ebc:	2005883a 	mov	r2,r4
 1801ec0:	10c00035 	stwio	r3,0(r2)
    sp->host_inactive = 0;
 1801ec4:	e0bffe17 	ldw	r2,-8(fp)
 1801ec8:	10000915 	stw	zero,36(r2)
 1801ecc:	00000a06 	br	1801ef8 <altera_avalon_jtag_uart_timeout+0x94>
  }
  else if (sp->host_inactive < INT_MAX - 2) {
 1801ed0:	e0bffe17 	ldw	r2,-8(fp)
 1801ed4:	10c00917 	ldw	r3,36(r2)
 1801ed8:	00a00034 	movhi	r2,32768
 1801edc:	10bfff04 	addi	r2,r2,-4
 1801ee0:	10c00536 	bltu	r2,r3,1801ef8 <altera_avalon_jtag_uart_timeout+0x94>
    sp->host_inactive++;
 1801ee4:	e0bffe17 	ldw	r2,-8(fp)
 1801ee8:	10800917 	ldw	r2,36(r2)
 1801eec:	10c00044 	addi	r3,r2,1
 1801ef0:	e0bffe17 	ldw	r2,-8(fp)
 1801ef4:	10c00915 	stw	r3,36(r2)
 1801ef8:	00806074 	movhi	r2,385
 1801efc:	10b2a404 	addi	r2,r2,-13680
 1801f00:	10800017 	ldw	r2,0(r2)
      ALT_FLAG_POST (sp->events, ALT_JTAG_UART_TIMEOUT, OS_FLAG_SET);
    }
  }

  return alt_ticks_per_second();
}
 1801f04:	e037883a 	mov	sp,fp
 1801f08:	df000017 	ldw	fp,0(sp)
 1801f0c:	dec00104 	addi	sp,sp,4
 1801f10:	f800283a 	ret

01801f14 <altera_avalon_jtag_uart_close>:
 * The close routine is not implemented for the small driver; instead it will
 * map to null. This is because the small driver simply waits while characters
 * are transmitted; there is no interrupt-serviced buffer to empty 
 */
int altera_avalon_jtag_uart_close(altera_avalon_jtag_uart_state* sp, int flags)
{
 1801f14:	defffc04 	addi	sp,sp,-16
 1801f18:	df000315 	stw	fp,12(sp)
 1801f1c:	df000304 	addi	fp,sp,12
 1801f20:	e13ffd15 	stw	r4,-12(fp)
 1801f24:	e17ffe15 	stw	r5,-8(fp)
  /* 
   * Wait for all transmit data to be emptied by the JTAG UART ISR, or
   * for a host-inactivity timeout, in which case transmit data will be lost
   */
  while ( (sp->tx_out != sp->tx_in) && (sp->host_inactive < sp->timeout) ) {
 1801f28:	00000706 	br	1801f48 <altera_avalon_jtag_uart_close+0x34>
    if (flags & O_NONBLOCK) {
 1801f2c:	e0bffe17 	ldw	r2,-8(fp)
 1801f30:	1090000c 	andi	r2,r2,16384
 1801f34:	1005003a 	cmpeq	r2,r2,zero
 1801f38:	1000031e 	bne	r2,zero,1801f48 <altera_avalon_jtag_uart_close+0x34>
      return -EWOULDBLOCK; 
 1801f3c:	00bffd44 	movi	r2,-11
 1801f40:	e0bfff15 	stw	r2,-4(fp)
 1801f44:	00000b06 	br	1801f74 <altera_avalon_jtag_uart_close+0x60>
{
  /* 
   * Wait for all transmit data to be emptied by the JTAG UART ISR, or
   * for a host-inactivity timeout, in which case transmit data will be lost
   */
  while ( (sp->tx_out != sp->tx_in) && (sp->host_inactive < sp->timeout) ) {
 1801f48:	e0bffd17 	ldw	r2,-12(fp)
 1801f4c:	10c00d17 	ldw	r3,52(r2)
 1801f50:	e0bffd17 	ldw	r2,-12(fp)
 1801f54:	10800c17 	ldw	r2,48(r2)
 1801f58:	18800526 	beq	r3,r2,1801f70 <altera_avalon_jtag_uart_close+0x5c>
 1801f5c:	e0bffd17 	ldw	r2,-12(fp)
 1801f60:	10c00917 	ldw	r3,36(r2)
 1801f64:	e0bffd17 	ldw	r2,-12(fp)
 1801f68:	10800117 	ldw	r2,4(r2)
 1801f6c:	18bfef36 	bltu	r3,r2,1801f2c <altera_avalon_jtag_uart_close+0x18>
    if (flags & O_NONBLOCK) {
      return -EWOULDBLOCK; 
    }
  }

  return 0;
 1801f70:	e03fff15 	stw	zero,-4(fp)
 1801f74:	e0bfff17 	ldw	r2,-4(fp)
}
 1801f78:	e037883a 	mov	sp,fp
 1801f7c:	df000017 	ldw	fp,0(sp)
 1801f80:	dec00104 	addi	sp,sp,4
 1801f84:	f800283a 	ret

01801f88 <altera_avalon_jtag_uart_ioctl>:
/* ----------------------------------------------------------- */

int 
altera_avalon_jtag_uart_ioctl(altera_avalon_jtag_uart_state* sp, int req,
  void* arg)
{
 1801f88:	defff804 	addi	sp,sp,-32
 1801f8c:	df000715 	stw	fp,28(sp)
 1801f90:	df000704 	addi	fp,sp,28
 1801f94:	e13ffb15 	stw	r4,-20(fp)
 1801f98:	e17ffc15 	stw	r5,-16(fp)
 1801f9c:	e1bffd15 	stw	r6,-12(fp)
  int rc = -ENOTTY;
 1801fa0:	00bff9c4 	movi	r2,-25
 1801fa4:	e0bffa15 	stw	r2,-24(fp)

  switch (req)
 1801fa8:	e0bffc17 	ldw	r2,-16(fp)
 1801fac:	e0bfff15 	stw	r2,-4(fp)
 1801fb0:	e0ffff17 	ldw	r3,-4(fp)
 1801fb4:	189a8060 	cmpeqi	r2,r3,27137
 1801fb8:	1000041e 	bne	r2,zero,1801fcc <altera_avalon_jtag_uart_ioctl+0x44>
 1801fbc:	e0ffff17 	ldw	r3,-4(fp)
 1801fc0:	189a80a0 	cmpeqi	r2,r3,27138
 1801fc4:	10001b1e 	bne	r2,zero,1802034 <altera_avalon_jtag_uart_ioctl+0xac>
 1801fc8:	00002706 	br	1802068 <altera_avalon_jtag_uart_ioctl+0xe0>
  {
  case TIOCSTIMEOUT:
    /* Set the time to wait until assuming host is not connected */
    if (sp->timeout != INT_MAX)
 1801fcc:	e0bffb17 	ldw	r2,-20(fp)
 1801fd0:	10c00117 	ldw	r3,4(r2)
 1801fd4:	00a00034 	movhi	r2,32768
 1801fd8:	10bfffc4 	addi	r2,r2,-1
 1801fdc:	18802226 	beq	r3,r2,1802068 <altera_avalon_jtag_uart_ioctl+0xe0>
    {
      int timeout = *((int *)arg);
 1801fe0:	e0bffd17 	ldw	r2,-12(fp)
 1801fe4:	10800017 	ldw	r2,0(r2)
 1801fe8:	e0bff915 	stw	r2,-28(fp)
      sp->timeout = (timeout >= 2 && timeout < INT_MAX) ? timeout : INT_MAX - 1;
 1801fec:	e0bff917 	ldw	r2,-28(fp)
 1801ff0:	10800090 	cmplti	r2,r2,2
 1801ff4:	1000071e 	bne	r2,zero,1802014 <altera_avalon_jtag_uart_ioctl+0x8c>
 1801ff8:	e0fff917 	ldw	r3,-28(fp)
 1801ffc:	00a00034 	movhi	r2,32768
 1802000:	10bfffc4 	addi	r2,r2,-1
 1802004:	18800326 	beq	r3,r2,1802014 <altera_avalon_jtag_uart_ioctl+0x8c>
 1802008:	e0bff917 	ldw	r2,-28(fp)
 180200c:	e0bffe15 	stw	r2,-8(fp)
 1802010:	00000306 	br	1802020 <altera_avalon_jtag_uart_ioctl+0x98>
 1802014:	00e00034 	movhi	r3,32768
 1802018:	18ffff84 	addi	r3,r3,-2
 180201c:	e0fffe15 	stw	r3,-8(fp)
 1802020:	e0bffb17 	ldw	r2,-20(fp)
 1802024:	e0fffe17 	ldw	r3,-8(fp)
 1802028:	10c00115 	stw	r3,4(r2)
      rc = 0;
 180202c:	e03ffa15 	stw	zero,-24(fp)
    }
    break;
 1802030:	00000d06 	br	1802068 <altera_avalon_jtag_uart_ioctl+0xe0>

  case TIOCGCONNECTED:
    /* Find out whether host is connected */
    if (sp->timeout != INT_MAX)
 1802034:	e0bffb17 	ldw	r2,-20(fp)
 1802038:	10c00117 	ldw	r3,4(r2)
 180203c:	00a00034 	movhi	r2,32768
 1802040:	10bfffc4 	addi	r2,r2,-1
 1802044:	18800826 	beq	r3,r2,1802068 <altera_avalon_jtag_uart_ioctl+0xe0>
    {
      *((int *)arg) = (sp->host_inactive < sp->timeout) ? 1 : 0;
 1802048:	e13ffd17 	ldw	r4,-12(fp)
 180204c:	e0bffb17 	ldw	r2,-20(fp)
 1802050:	10c00917 	ldw	r3,36(r2)
 1802054:	e0bffb17 	ldw	r2,-20(fp)
 1802058:	10800117 	ldw	r2,4(r2)
 180205c:	1885803a 	cmpltu	r2,r3,r2
 1802060:	20800015 	stw	r2,0(r4)
      rc = 0;
 1802064:	e03ffa15 	stw	zero,-24(fp)

  default:
    break;
  }

  return rc;
 1802068:	e0bffa17 	ldw	r2,-24(fp)
}
 180206c:	e037883a 	mov	sp,fp
 1802070:	df000017 	ldw	fp,0(sp)
 1802074:	dec00104 	addi	sp,sp,4
 1802078:	f800283a 	ret

0180207c <altera_avalon_jtag_uart_read>:
/* ----------------------------------------------------------- */

int 
altera_avalon_jtag_uart_read(altera_avalon_jtag_uart_state* sp, 
  char * buffer, int space, int flags)
{
 180207c:	defff204 	addi	sp,sp,-56
 1802080:	dfc00d15 	stw	ra,52(sp)
 1802084:	df000c15 	stw	fp,48(sp)
 1802088:	df000c04 	addi	fp,sp,48
 180208c:	e13ffb15 	stw	r4,-20(fp)
 1802090:	e17ffc15 	stw	r5,-16(fp)
 1802094:	e1bffd15 	stw	r6,-12(fp)
 1802098:	e1fffe15 	stw	r7,-8(fp)
  char * ptr = buffer;
 180209c:	e0bffc17 	ldw	r2,-16(fp)
 18020a0:	e0bffa15 	stw	r2,-24(fp)
   * When running in a multi threaded environment, obtain the "read_lock"
   * semaphore. This ensures that reading from the device is thread-safe.
   */
  ALT_SEM_PEND (sp->read_lock, 0);

  while (space > 0)
 18020a4:	00004806 	br	18021c8 <altera_avalon_jtag_uart_read+0x14c>
    unsigned int in, out;

    /* Read as much data as possible */
    do
    {
      in  = sp->rx_in;
 18020a8:	e0bffb17 	ldw	r2,-20(fp)
 18020ac:	10800a17 	ldw	r2,40(r2)
 18020b0:	e0bff715 	stw	r2,-36(fp)
      out = sp->rx_out;
 18020b4:	e0bffb17 	ldw	r2,-20(fp)
 18020b8:	10800b17 	ldw	r2,44(r2)
 18020bc:	e0bff615 	stw	r2,-40(fp)

      if (in >= out)
 18020c0:	e0fff717 	ldw	r3,-36(fp)
 18020c4:	e0bff617 	ldw	r2,-40(fp)
 18020c8:	18800536 	bltu	r3,r2,18020e0 <altera_avalon_jtag_uart_read+0x64>
        n = in - out;
 18020cc:	e0bff717 	ldw	r2,-36(fp)
 18020d0:	e0fff617 	ldw	r3,-40(fp)
 18020d4:	10c5c83a 	sub	r2,r2,r3
 18020d8:	e0bff815 	stw	r2,-32(fp)
 18020dc:	00000406 	br	18020f0 <altera_avalon_jtag_uart_read+0x74>
      else
        n = ALTERA_AVALON_JTAG_UART_BUF_LEN - out;
 18020e0:	00820004 	movi	r2,2048
 18020e4:	e0fff617 	ldw	r3,-40(fp)
 18020e8:	10c5c83a 	sub	r2,r2,r3
 18020ec:	e0bff815 	stw	r2,-32(fp)

      if (n == 0)
 18020f0:	e0bff817 	ldw	r2,-32(fp)
 18020f4:	1005003a 	cmpeq	r2,r2,zero
 18020f8:	10001f1e 	bne	r2,zero,1802178 <altera_avalon_jtag_uart_read+0xfc>
        break; /* No more data available */

      if (n > space)
 18020fc:	e0fffd17 	ldw	r3,-12(fp)
 1802100:	e0bff817 	ldw	r2,-32(fp)
 1802104:	1880022e 	bgeu	r3,r2,1802110 <altera_avalon_jtag_uart_read+0x94>
        n = space;
 1802108:	e0bffd17 	ldw	r2,-12(fp)
 180210c:	e0bff815 	stw	r2,-32(fp)

      memcpy(ptr, sp->rx_buf + out, n);
 1802110:	e0bffb17 	ldw	r2,-20(fp)
 1802114:	10c00e04 	addi	r3,r2,56
 1802118:	e0bff617 	ldw	r2,-40(fp)
 180211c:	1887883a 	add	r3,r3,r2
 1802120:	e0bffa17 	ldw	r2,-24(fp)
 1802124:	1009883a 	mov	r4,r2
 1802128:	180b883a 	mov	r5,r3
 180212c:	e1bff817 	ldw	r6,-32(fp)
 1802130:	18069680 	call	1806968 <memcpy>
      ptr   += n;
 1802134:	e0fff817 	ldw	r3,-32(fp)
 1802138:	e0bffa17 	ldw	r2,-24(fp)
 180213c:	10c5883a 	add	r2,r2,r3
 1802140:	e0bffa15 	stw	r2,-24(fp)
      space -= n;
 1802144:	e0fffd17 	ldw	r3,-12(fp)
 1802148:	e0bff817 	ldw	r2,-32(fp)
 180214c:	1885c83a 	sub	r2,r3,r2
 1802150:	e0bffd15 	stw	r2,-12(fp)

      sp->rx_out = (out + n) % ALTERA_AVALON_JTAG_UART_BUF_LEN;
 1802154:	e0fff617 	ldw	r3,-40(fp)
 1802158:	e0bff817 	ldw	r2,-32(fp)
 180215c:	1885883a 	add	r2,r3,r2
 1802160:	10c1ffcc 	andi	r3,r2,2047
 1802164:	e0bffb17 	ldw	r2,-20(fp)
 1802168:	10c00b15 	stw	r3,44(r2)
    }
    while (space > 0);
 180216c:	e0bffd17 	ldw	r2,-12(fp)
 1802170:	10800048 	cmpgei	r2,r2,1
 1802174:	103fcc1e 	bne	r2,zero,18020a8 <altera_avalon_jtag_uart_read+0x2c>

    /* If we read any data then return it */
    if (ptr != buffer)
 1802178:	e0fffa17 	ldw	r3,-24(fp)
 180217c:	e0bffc17 	ldw	r2,-16(fp)
 1802180:	1880141e 	bne	r3,r2,18021d4 <altera_avalon_jtag_uart_read+0x158>
      break;

    /* If in non-blocking mode then return error */
    if (flags & O_NONBLOCK)
 1802184:	e0bffe17 	ldw	r2,-8(fp)
 1802188:	1090000c 	andi	r2,r2,16384
 180218c:	1004c03a 	cmpne	r2,r2,zero
 1802190:	1000101e 	bne	r2,zero,18021d4 <altera_avalon_jtag_uart_read+0x158>
      while (in == sp->rx_in && sp->host_inactive < sp->timeout)
        ;
    }
#else
    /* No OS: Always spin */
    while (in == sp->rx_in && sp->host_inactive < sp->timeout)
 1802194:	e0bffb17 	ldw	r2,-20(fp)
 1802198:	10c00a17 	ldw	r3,40(r2)
 180219c:	e0bff717 	ldw	r2,-36(fp)
 18021a0:	1880051e 	bne	r3,r2,18021b8 <altera_avalon_jtag_uart_read+0x13c>
 18021a4:	e0bffb17 	ldw	r2,-20(fp)
 18021a8:	10c00917 	ldw	r3,36(r2)
 18021ac:	e0bffb17 	ldw	r2,-20(fp)
 18021b0:	10800117 	ldw	r2,4(r2)
 18021b4:	18bff736 	bltu	r3,r2,1802194 <altera_avalon_jtag_uart_read+0x118>
      ;
#endif /* __ucosii__ */

    if (in == sp->rx_in)
 18021b8:	e0bffb17 	ldw	r2,-20(fp)
 18021bc:	10c00a17 	ldw	r3,40(r2)
 18021c0:	e0bff717 	ldw	r2,-36(fp)
 18021c4:	18800326 	beq	r3,r2,18021d4 <altera_avalon_jtag_uart_read+0x158>
   * When running in a multi threaded environment, obtain the "read_lock"
   * semaphore. This ensures that reading from the device is thread-safe.
   */
  ALT_SEM_PEND (sp->read_lock, 0);

  while (space > 0)
 18021c8:	e0bffd17 	ldw	r2,-12(fp)
 18021cc:	10800048 	cmpgei	r2,r2,1
 18021d0:	103fb51e 	bne	r2,zero,18020a8 <altera_avalon_jtag_uart_read+0x2c>
   * semaphore so that other threads can access the buffer.
   */

  ALT_SEM_POST (sp->read_lock);

  if (ptr != buffer)
 18021d4:	e0fffa17 	ldw	r3,-24(fp)
 18021d8:	e0bffc17 	ldw	r2,-16(fp)
 18021dc:	18801926 	beq	r3,r2,1802244 <altera_avalon_jtag_uart_read+0x1c8>
static ALT_INLINE alt_irq_context ALT_ALWAYS_INLINE 
       alt_irq_disable_all (void)
{
  alt_irq_context context;

  NIOS2_READ_STATUS (context);
 18021e0:	0005303a 	rdctl	r2,status
 18021e4:	e0bff515 	stw	r2,-44(fp)

  NIOS2_WRITE_STATUS (context & ~NIOS2_STATUS_PIE_MSK);
 18021e8:	e0fff517 	ldw	r3,-44(fp)
 18021ec:	00bfff84 	movi	r2,-2
 18021f0:	1884703a 	and	r2,r3,r2
 18021f4:	1001703a 	wrctl	status,r2
  
  return context;
 18021f8:	e0bff517 	ldw	r2,-44(fp)
  {
    /* If we read any data then there is space in the buffer so enable interrupts */
    context = alt_irq_disable_all();
 18021fc:	e0bff915 	stw	r2,-28(fp)
    sp->irq_enable |= ALTERA_AVALON_JTAG_UART_CONTROL_RE_MSK;
 1802200:	e0bffb17 	ldw	r2,-20(fp)
 1802204:	10800817 	ldw	r2,32(r2)
 1802208:	10c00054 	ori	r3,r2,1
 180220c:	e0bffb17 	ldw	r2,-20(fp)
 1802210:	10c00815 	stw	r3,32(r2)
    IOWR_ALTERA_AVALON_JTAG_UART_CONTROL(sp->base, sp->irq_enable);
 1802214:	e0bffb17 	ldw	r2,-20(fp)
 1802218:	10800017 	ldw	r2,0(r2)
 180221c:	11000104 	addi	r4,r2,4
 1802220:	e0bffb17 	ldw	r2,-20(fp)
 1802224:	10800817 	ldw	r2,32(r2)
 1802228:	1007883a 	mov	r3,r2
 180222c:	2005883a 	mov	r2,r4
 1802230:	10c00035 	stwio	r3,0(r2)
 1802234:	e0bff917 	ldw	r2,-28(fp)
 1802238:	e0bff415 	stw	r2,-48(fp)
  status &= ~NIOS2_STATUS_PIE_MSK;
  status |= (context & NIOS2_STATUS_PIE_MSK);
  
  NIOS2_WRITE_STATUS (status);
#else
  NIOS2_WRITE_STATUS (context);
 180223c:	e0bff417 	ldw	r2,-48(fp)
 1802240:	1001703a 	wrctl	status,r2
    alt_irq_enable_all(context);
  }

  if (ptr != buffer)
 1802244:	e0fffa17 	ldw	r3,-24(fp)
 1802248:	e0bffc17 	ldw	r2,-16(fp)
 180224c:	18800526 	beq	r3,r2,1802264 <altera_avalon_jtag_uart_read+0x1e8>
    return ptr - buffer;
 1802250:	e0fffa17 	ldw	r3,-24(fp)
 1802254:	e0bffc17 	ldw	r2,-16(fp)
 1802258:	1887c83a 	sub	r3,r3,r2
 180225c:	e0ffff15 	stw	r3,-4(fp)
 1802260:	00000906 	br	1802288 <altera_avalon_jtag_uart_read+0x20c>
  else if (flags & O_NONBLOCK)
 1802264:	e0bffe17 	ldw	r2,-8(fp)
 1802268:	1090000c 	andi	r2,r2,16384
 180226c:	1005003a 	cmpeq	r2,r2,zero
 1802270:	1000031e 	bne	r2,zero,1802280 <altera_avalon_jtag_uart_read+0x204>
    return -EWOULDBLOCK;
 1802274:	00bffd44 	movi	r2,-11
 1802278:	e0bfff15 	stw	r2,-4(fp)
 180227c:	00000206 	br	1802288 <altera_avalon_jtag_uart_read+0x20c>
  else
    return -EIO;
 1802280:	00bffec4 	movi	r2,-5
 1802284:	e0bfff15 	stw	r2,-4(fp)
 1802288:	e0bfff17 	ldw	r2,-4(fp)
}
 180228c:	e037883a 	mov	sp,fp
 1802290:	dfc00117 	ldw	ra,4(sp)
 1802294:	df000017 	ldw	fp,0(sp)
 1802298:	dec00204 	addi	sp,sp,8
 180229c:	f800283a 	ret

018022a0 <altera_avalon_jtag_uart_write>:
/* ----------------------------------------------------------- */

int 
altera_avalon_jtag_uart_write(altera_avalon_jtag_uart_state* sp, 
  const char * ptr, int count, int flags)
{
 18022a0:	defff204 	addi	sp,sp,-56
 18022a4:	dfc00d15 	stw	ra,52(sp)
 18022a8:	df000c15 	stw	fp,48(sp)
 18022ac:	df000c04 	addi	fp,sp,48
 18022b0:	e13ffb15 	stw	r4,-20(fp)
 18022b4:	e17ffc15 	stw	r5,-16(fp)
 18022b8:	e1bffd15 	stw	r6,-12(fp)
 18022bc:	e1fffe15 	stw	r7,-8(fp)
  /* Remove warning at optimisation level 03 by seting out to 0 */
  unsigned int in, out=0;
 18022c0:	e03ff915 	stw	zero,-28(fp)
  unsigned int n;
  alt_irq_context context;

  const char * start = ptr;
 18022c4:	e0bffc17 	ldw	r2,-16(fp)
 18022c8:	e0bff615 	stw	r2,-40(fp)
  ALT_SEM_PEND (sp->write_lock, 0);

  do
  {
    /* Copy as much as we can into the transmit buffer */
    while (count > 0)
 18022cc:	00003a06 	br	18023b8 <altera_avalon_jtag_uart_write+0x118>
    {
      /* We need a stable value of the out pointer to calculate the space available */
      in  = sp->tx_in;
 18022d0:	e0bffb17 	ldw	r2,-20(fp)
 18022d4:	10800c17 	ldw	r2,48(r2)
 18022d8:	e0bffa15 	stw	r2,-24(fp)
      out = sp->tx_out;
 18022dc:	e0bffb17 	ldw	r2,-20(fp)
 18022e0:	10800d17 	ldw	r2,52(r2)
 18022e4:	e0bff915 	stw	r2,-28(fp)

      if (in < out)
 18022e8:	e0fffa17 	ldw	r3,-24(fp)
 18022ec:	e0bff917 	ldw	r2,-28(fp)
 18022f0:	1880062e 	bgeu	r3,r2,180230c <altera_avalon_jtag_uart_write+0x6c>
        n = out - 1 - in;
 18022f4:	e0fff917 	ldw	r3,-28(fp)
 18022f8:	e0bffa17 	ldw	r2,-24(fp)
 18022fc:	1885c83a 	sub	r2,r3,r2
 1802300:	10bfffc4 	addi	r2,r2,-1
 1802304:	e0bff815 	stw	r2,-32(fp)
 1802308:	00000c06 	br	180233c <altera_avalon_jtag_uart_write+0x9c>
      else if (out > 0)
 180230c:	e0bff917 	ldw	r2,-28(fp)
 1802310:	1005003a 	cmpeq	r2,r2,zero
 1802314:	1000051e 	bne	r2,zero,180232c <altera_avalon_jtag_uart_write+0x8c>
        n = ALTERA_AVALON_JTAG_UART_BUF_LEN - in;
 1802318:	00820004 	movi	r2,2048
 180231c:	e0fffa17 	ldw	r3,-24(fp)
 1802320:	10c5c83a 	sub	r2,r2,r3
 1802324:	e0bff815 	stw	r2,-32(fp)
 1802328:	00000406 	br	180233c <altera_avalon_jtag_uart_write+0x9c>
      else
        n = ALTERA_AVALON_JTAG_UART_BUF_LEN - 1 - in;
 180232c:	0081ffc4 	movi	r2,2047
 1802330:	e0fffa17 	ldw	r3,-24(fp)
 1802334:	10c5c83a 	sub	r2,r2,r3
 1802338:	e0bff815 	stw	r2,-32(fp)

      if (n == 0)
 180233c:	e0bff817 	ldw	r2,-32(fp)
 1802340:	1005003a 	cmpeq	r2,r2,zero
 1802344:	10001f1e 	bne	r2,zero,18023c4 <altera_avalon_jtag_uart_write+0x124>
        break;

      if (n > count)
 1802348:	e0fffd17 	ldw	r3,-12(fp)
 180234c:	e0bff817 	ldw	r2,-32(fp)
 1802350:	1880022e 	bgeu	r3,r2,180235c <altera_avalon_jtag_uart_write+0xbc>
        n = count;
 1802354:	e0bffd17 	ldw	r2,-12(fp)
 1802358:	e0bff815 	stw	r2,-32(fp)

      memcpy(sp->tx_buf + in, ptr, n);
 180235c:	e0bffb17 	ldw	r2,-20(fp)
 1802360:	10c20e04 	addi	r3,r2,2104
 1802364:	e0bffa17 	ldw	r2,-24(fp)
 1802368:	1885883a 	add	r2,r3,r2
 180236c:	e0fffc17 	ldw	r3,-16(fp)
 1802370:	1009883a 	mov	r4,r2
 1802374:	180b883a 	mov	r5,r3
 1802378:	e1bff817 	ldw	r6,-32(fp)
 180237c:	18069680 	call	1806968 <memcpy>
      ptr   += n;
 1802380:	e0fff817 	ldw	r3,-32(fp)
 1802384:	e0bffc17 	ldw	r2,-16(fp)
 1802388:	10c5883a 	add	r2,r2,r3
 180238c:	e0bffc15 	stw	r2,-16(fp)
      count -= n;
 1802390:	e0fffd17 	ldw	r3,-12(fp)
 1802394:	e0bff817 	ldw	r2,-32(fp)
 1802398:	1885c83a 	sub	r2,r3,r2
 180239c:	e0bffd15 	stw	r2,-12(fp)

      sp->tx_in = (in + n) % ALTERA_AVALON_JTAG_UART_BUF_LEN;
 18023a0:	e0fffa17 	ldw	r3,-24(fp)
 18023a4:	e0bff817 	ldw	r2,-32(fp)
 18023a8:	1885883a 	add	r2,r3,r2
 18023ac:	10c1ffcc 	andi	r3,r2,2047
 18023b0:	e0bffb17 	ldw	r2,-20(fp)
 18023b4:	10c00c15 	stw	r3,48(r2)
  ALT_SEM_PEND (sp->write_lock, 0);

  do
  {
    /* Copy as much as we can into the transmit buffer */
    while (count > 0)
 18023b8:	e0bffd17 	ldw	r2,-12(fp)
 18023bc:	10800048 	cmpgei	r2,r2,1
 18023c0:	103fc31e 	bne	r2,zero,18022d0 <altera_avalon_jtag_uart_write+0x30>
static ALT_INLINE alt_irq_context ALT_ALWAYS_INLINE 
       alt_irq_disable_all (void)
{
  alt_irq_context context;

  NIOS2_READ_STATUS (context);
 18023c4:	0005303a 	rdctl	r2,status
 18023c8:	e0bff515 	stw	r2,-44(fp)

  NIOS2_WRITE_STATUS (context & ~NIOS2_STATUS_PIE_MSK);
 18023cc:	e0fff517 	ldw	r3,-44(fp)
 18023d0:	00bfff84 	movi	r2,-2
 18023d4:	1884703a 	and	r2,r3,r2
 18023d8:	1001703a 	wrctl	status,r2
  
  return context;
 18023dc:	e0bff517 	ldw	r2,-44(fp)
     * to enable interrupts if there is no space left in the FIFO
     *
     * For now kick the interrupt routine every time to make it transmit 
     * the data 
     */
    context = alt_irq_disable_all();
 18023e0:	e0bff715 	stw	r2,-36(fp)
    sp->irq_enable |= ALTERA_AVALON_JTAG_UART_CONTROL_WE_MSK;
 18023e4:	e0bffb17 	ldw	r2,-20(fp)
 18023e8:	10800817 	ldw	r2,32(r2)
 18023ec:	10c00094 	ori	r3,r2,2
 18023f0:	e0bffb17 	ldw	r2,-20(fp)
 18023f4:	10c00815 	stw	r3,32(r2)
    IOWR_ALTERA_AVALON_JTAG_UART_CONTROL(sp->base, sp->irq_enable);
 18023f8:	e0bffb17 	ldw	r2,-20(fp)
 18023fc:	10800017 	ldw	r2,0(r2)
 1802400:	11000104 	addi	r4,r2,4
 1802404:	e0bffb17 	ldw	r2,-20(fp)
 1802408:	10800817 	ldw	r2,32(r2)
 180240c:	1007883a 	mov	r3,r2
 1802410:	2005883a 	mov	r2,r4
 1802414:	10c00035 	stwio	r3,0(r2)
 1802418:	e0bff717 	ldw	r2,-36(fp)
 180241c:	e0bff415 	stw	r2,-48(fp)
  status &= ~NIOS2_STATUS_PIE_MSK;
  status |= (context & NIOS2_STATUS_PIE_MSK);
  
  NIOS2_WRITE_STATUS (status);
#else
  NIOS2_WRITE_STATUS (context);
 1802420:	e0bff417 	ldw	r2,-48(fp)
 1802424:	1001703a 	wrctl	status,r2
    /* 
     * If there is any data left then either return now or block until 
     * some has been sent 
     */
    /* consider: test whether there is anything there while doing this and delay for at most 2s. */
    if (count > 0)
 1802428:	e0bffd17 	ldw	r2,-12(fp)
 180242c:	10800050 	cmplti	r2,r2,1
 1802430:	1000111e 	bne	r2,zero,1802478 <altera_avalon_jtag_uart_write+0x1d8>
    {
      if (flags & O_NONBLOCK)
 1802434:	e0bffe17 	ldw	r2,-8(fp)
 1802438:	1090000c 	andi	r2,r2,16384
 180243c:	1004c03a 	cmpne	r2,r2,zero
 1802440:	1000101e 	bne	r2,zero,1802484 <altera_avalon_jtag_uart_write+0x1e4>
      /*
       * No OS present: Always wait for data to be removed from buffer.  Once
       * the interrupt routine has removed some data then we will be able to
       * insert some more.
       */
      while (out == sp->tx_out && sp->host_inactive < sp->timeout)
 1802444:	e0bffb17 	ldw	r2,-20(fp)
 1802448:	10c00d17 	ldw	r3,52(r2)
 180244c:	e0bff917 	ldw	r2,-28(fp)
 1802450:	1880051e 	bne	r3,r2,1802468 <altera_avalon_jtag_uart_write+0x1c8>
 1802454:	e0bffb17 	ldw	r2,-20(fp)
 1802458:	10c00917 	ldw	r3,36(r2)
 180245c:	e0bffb17 	ldw	r2,-20(fp)
 1802460:	10800117 	ldw	r2,4(r2)
 1802464:	18bff736 	bltu	r3,r2,1802444 <altera_avalon_jtag_uart_write+0x1a4>
        ;
#endif /* __ucosii__ */

      if (out == sp->tx_out)
 1802468:	e0bffb17 	ldw	r2,-20(fp)
 180246c:	10c00d17 	ldw	r3,52(r2)
 1802470:	e0bff917 	ldw	r2,-28(fp)
 1802474:	18800326 	beq	r3,r2,1802484 <altera_avalon_jtag_uart_write+0x1e4>
        break;
    }
  }
  while (count > 0);
 1802478:	e0bffd17 	ldw	r2,-12(fp)
 180247c:	10800048 	cmpgei	r2,r2,1
 1802480:	103fcd1e 	bne	r2,zero,18023b8 <altera_avalon_jtag_uart_write+0x118>
   * Now that access to the circular buffer is complete, release the write
   * semaphore so that other threads can access the buffer.
   */
  ALT_SEM_POST (sp->write_lock);

  if (ptr != start)
 1802484:	e0fffc17 	ldw	r3,-16(fp)
 1802488:	e0bff617 	ldw	r2,-40(fp)
 180248c:	18800526 	beq	r3,r2,18024a4 <altera_avalon_jtag_uart_write+0x204>
    return ptr - start;
 1802490:	e0fffc17 	ldw	r3,-16(fp)
 1802494:	e0bff617 	ldw	r2,-40(fp)
 1802498:	1887c83a 	sub	r3,r3,r2
 180249c:	e0ffff15 	stw	r3,-4(fp)
 18024a0:	00000906 	br	18024c8 <altera_avalon_jtag_uart_write+0x228>
  else if (flags & O_NONBLOCK)
 18024a4:	e0bffe17 	ldw	r2,-8(fp)
 18024a8:	1090000c 	andi	r2,r2,16384
 18024ac:	1005003a 	cmpeq	r2,r2,zero
 18024b0:	1000031e 	bne	r2,zero,18024c0 <altera_avalon_jtag_uart_write+0x220>
    return -EWOULDBLOCK;
 18024b4:	00bffd44 	movi	r2,-11
 18024b8:	e0bfff15 	stw	r2,-4(fp)
 18024bc:	00000206 	br	18024c8 <altera_avalon_jtag_uart_write+0x228>
  else
    return -EIO; /* Host not connected */
 18024c0:	00bffec4 	movi	r2,-5
 18024c4:	e0bfff15 	stw	r2,-4(fp)
 18024c8:	e0bfff17 	ldw	r2,-4(fp)
}
 18024cc:	e037883a 	mov	sp,fp
 18024d0:	dfc00117 	ldw	ra,4(sp)
 18024d4:	df000017 	ldw	fp,0(sp)
 18024d8:	dec00204 	addi	sp,sp,8
 18024dc:	f800283a 	ret

018024e0 <alt_avalon_timer_sc_irq>:
#ifdef ALT_ENHANCED_INTERRUPT_API_PRESENT
static void alt_avalon_timer_sc_irq (void* base)
#else
static void alt_avalon_timer_sc_irq (void* base, alt_u32 id)
#endif
{
 18024e0:	defffa04 	addi	sp,sp,-24
 18024e4:	dfc00515 	stw	ra,20(sp)
 18024e8:	df000415 	stw	fp,16(sp)
 18024ec:	df000404 	addi	fp,sp,16
 18024f0:	e13fff15 	stw	r4,-4(fp)
  alt_irq_context cpu_sr;
  
  /* clear the interrupt */
  IOWR_ALTERA_AVALON_TIMER_STATUS (base, 0);
 18024f4:	e0bfff17 	ldw	r2,-4(fp)
 18024f8:	10000035 	stwio	zero,0(r2)
  /* 
   * Dummy read to ensure IRQ is negated before the ISR returns.
   * The control register is read because reading the status
   * register has side-effects per the register map documentation.
   */
  IORD_ALTERA_AVALON_TIMER_CONTROL (base);
 18024fc:	e0bfff17 	ldw	r2,-4(fp)
 1802500:	10800104 	addi	r2,r2,4
 1802504:	10800037 	ldwio	r2,0(r2)
static ALT_INLINE alt_irq_context ALT_ALWAYS_INLINE 
       alt_irq_disable_all (void)
{
  alt_irq_context context;

  NIOS2_READ_STATUS (context);
 1802508:	0005303a 	rdctl	r2,status
 180250c:	e0bffd15 	stw	r2,-12(fp)

  NIOS2_WRITE_STATUS (context & ~NIOS2_STATUS_PIE_MSK);
 1802510:	e0fffd17 	ldw	r3,-12(fp)
 1802514:	00bfff84 	movi	r2,-2
 1802518:	1884703a 	and	r2,r3,r2
 180251c:	1001703a 	wrctl	status,r2
  
  return context;
 1802520:	e0bffd17 	ldw	r2,-12(fp)

  /* 
   * Notify the system of a clock tick. disable interrupts 
   * during this time to safely support ISR preemption
   */
  cpu_sr = alt_irq_disable_all();
 1802524:	e0bffe15 	stw	r2,-8(fp)
  alt_tick ();
 1802528:	18057540 	call	1805754 <alt_tick>
 180252c:	e0bffe17 	ldw	r2,-8(fp)
 1802530:	e0bffc15 	stw	r2,-16(fp)
  status &= ~NIOS2_STATUS_PIE_MSK;
  status |= (context & NIOS2_STATUS_PIE_MSK);
  
  NIOS2_WRITE_STATUS (status);
#else
  NIOS2_WRITE_STATUS (context);
 1802534:	e0bffc17 	ldw	r2,-16(fp)
 1802538:	1001703a 	wrctl	status,r2
  alt_irq_enable_all(cpu_sr);
}
 180253c:	e037883a 	mov	sp,fp
 1802540:	dfc00117 	ldw	ra,4(sp)
 1802544:	df000017 	ldw	fp,0(sp)
 1802548:	dec00204 	addi	sp,sp,8
 180254c:	f800283a 	ret

01802550 <alt_avalon_timer_sc_init>:
 * auto-generated alt_sys_init() function.
 */

void alt_avalon_timer_sc_init (void* base, alt_u32 irq_controller_id, 
                                alt_u32 irq, alt_u32 freq)
{
 1802550:	defff804 	addi	sp,sp,-32
 1802554:	dfc00715 	stw	ra,28(sp)
 1802558:	df000615 	stw	fp,24(sp)
 180255c:	df000604 	addi	fp,sp,24
 1802560:	e13ffc15 	stw	r4,-16(fp)
 1802564:	e17ffd15 	stw	r5,-12(fp)
 1802568:	e1bffe15 	stw	r6,-8(fp)
 180256c:	e1ffff15 	stw	r7,-4(fp)
 1802570:	e0bfff17 	ldw	r2,-4(fp)
 1802574:	e0bffb15 	stw	r2,-20(fp)
 * in order to initialise the value of the clock frequency.
 */

static ALT_INLINE int ALT_ALWAYS_INLINE alt_sysclk_init (alt_u32 nticks)
{
  if (! _alt_tick_rate)
 1802578:	00806074 	movhi	r2,385
 180257c:	10b2a404 	addi	r2,r2,-13680
 1802580:	10800017 	ldw	r2,0(r2)
 1802584:	1004c03a 	cmpne	r2,r2,zero
 1802588:	1000041e 	bne	r2,zero,180259c <alt_avalon_timer_sc_init+0x4c>
  {
    _alt_tick_rate = nticks;
 180258c:	00c06074 	movhi	r3,385
 1802590:	18f2a404 	addi	r3,r3,-13680
 1802594:	e0bffb17 	ldw	r2,-20(fp)
 1802598:	18800015 	stw	r2,0(r3)
  
  alt_sysclk_init (freq);
  
  /* set to free running mode */
  
  IOWR_ALTERA_AVALON_TIMER_CONTROL (base, 
 180259c:	e0bffc17 	ldw	r2,-16(fp)
 18025a0:	10800104 	addi	r2,r2,4
 18025a4:	1007883a 	mov	r3,r2
 18025a8:	008001c4 	movi	r2,7
 18025ac:	18800035 	stwio	r2,0(r3)
            ALTERA_AVALON_TIMER_CONTROL_CONT_MSK |
            ALTERA_AVALON_TIMER_CONTROL_START_MSK);

  /* register the interrupt handler, and enable the interrupt */
#ifdef ALT_ENHANCED_INTERRUPT_API_PRESENT
  alt_ic_isr_register(irq_controller_id, irq, alt_avalon_timer_sc_irq, 
 18025b0:	d8000015 	stw	zero,0(sp)
 18025b4:	e13ffd17 	ldw	r4,-12(fp)
 18025b8:	e17ffe17 	ldw	r5,-8(fp)
 18025bc:	01806034 	movhi	r6,384
 18025c0:	31893804 	addi	r6,r6,9440
 18025c4:	e1fffc17 	ldw	r7,-16(fp)
 18025c8:	1804f440 	call	1804f44 <alt_ic_isr_register>
                      base, NULL);
#else
  alt_irq_register (irq, base, alt_avalon_timer_sc_irq);
#endif  
}
 18025cc:	e037883a 	mov	sp,fp
 18025d0:	dfc00117 	ldw	ra,4(sp)
 18025d4:	df000017 	ldw	fp,0(sp)
 18025d8:	dec00204 	addi	sp,sp,8
 18025dc:	f800283a 	ret

018025e0 <altera_avalon_uart_read_fd>:
 *
 */

int 
altera_avalon_uart_read_fd(alt_fd* fd, char* buffer, int space)
{
 18025e0:	defffa04 	addi	sp,sp,-24
 18025e4:	dfc00515 	stw	ra,20(sp)
 18025e8:	df000415 	stw	fp,16(sp)
 18025ec:	df000404 	addi	fp,sp,16
 18025f0:	e13ffd15 	stw	r4,-12(fp)
 18025f4:	e17ffe15 	stw	r5,-8(fp)
 18025f8:	e1bfff15 	stw	r6,-4(fp)
    altera_avalon_uart_dev* dev = (altera_avalon_uart_dev*) fd->dev; 
 18025fc:	e0bffd17 	ldw	r2,-12(fp)
 1802600:	10800017 	ldw	r2,0(r2)
 1802604:	e0bffc15 	stw	r2,-16(fp)

    return altera_avalon_uart_read(&dev->state, buffer, space,
 1802608:	e0bffc17 	ldw	r2,-16(fp)
 180260c:	11000a04 	addi	r4,r2,40
 1802610:	e0bffd17 	ldw	r2,-12(fp)
 1802614:	11c00217 	ldw	r7,8(r2)
 1802618:	e17ffe17 	ldw	r5,-8(fp)
 180261c:	e1bfff17 	ldw	r6,-4(fp)
 1802620:	1802ad80 	call	1802ad8 <altera_avalon_uart_read>
      fd->fd_flags);
}
 1802624:	e037883a 	mov	sp,fp
 1802628:	dfc00117 	ldw	ra,4(sp)
 180262c:	df000017 	ldw	fp,0(sp)
 1802630:	dec00204 	addi	sp,sp,8
 1802634:	f800283a 	ret

01802638 <altera_avalon_uart_write_fd>:

int 
altera_avalon_uart_write_fd(alt_fd* fd, const char* buffer, int space)
{
 1802638:	defffa04 	addi	sp,sp,-24
 180263c:	dfc00515 	stw	ra,20(sp)
 1802640:	df000415 	stw	fp,16(sp)
 1802644:	df000404 	addi	fp,sp,16
 1802648:	e13ffd15 	stw	r4,-12(fp)
 180264c:	e17ffe15 	stw	r5,-8(fp)
 1802650:	e1bfff15 	stw	r6,-4(fp)
    altera_avalon_uart_dev* dev = (altera_avalon_uart_dev*) fd->dev; 
 1802654:	e0bffd17 	ldw	r2,-12(fp)
 1802658:	10800017 	ldw	r2,0(r2)
 180265c:	e0bffc15 	stw	r2,-16(fp)

    return altera_avalon_uart_write(&dev->state, buffer, space,
 1802660:	e0bffc17 	ldw	r2,-16(fp)
 1802664:	11000a04 	addi	r4,r2,40
 1802668:	e0bffd17 	ldw	r2,-12(fp)
 180266c:	11c00217 	ldw	r7,8(r2)
 1802670:	e17ffe17 	ldw	r5,-8(fp)
 1802674:	e1bfff17 	ldw	r6,-4(fp)
 1802678:	1802d680 	call	1802d68 <altera_avalon_uart_write>
      fd->fd_flags);
}
 180267c:	e037883a 	mov	sp,fp
 1802680:	dfc00117 	ldw	ra,4(sp)
 1802684:	df000017 	ldw	fp,0(sp)
 1802688:	dec00204 	addi	sp,sp,8
 180268c:	f800283a 	ret

01802690 <altera_avalon_uart_close_fd>:

#endif /* ALTERA_AVALON_UART_USE_IOCTL */

int 
altera_avalon_uart_close_fd(alt_fd* fd)
{
 1802690:	defffc04 	addi	sp,sp,-16
 1802694:	dfc00315 	stw	ra,12(sp)
 1802698:	df000215 	stw	fp,8(sp)
 180269c:	df000204 	addi	fp,sp,8
 18026a0:	e13fff15 	stw	r4,-4(fp)
    altera_avalon_uart_dev* dev = (altera_avalon_uart_dev*) fd->dev; 
 18026a4:	e0bfff17 	ldw	r2,-4(fp)
 18026a8:	10800017 	ldw	r2,0(r2)
 18026ac:	e0bffe15 	stw	r2,-8(fp)

    return altera_avalon_uart_close(&dev->state, fd->fd_flags);
 18026b0:	e0bffe17 	ldw	r2,-8(fp)
 18026b4:	11000a04 	addi	r4,r2,40
 18026b8:	e0bfff17 	ldw	r2,-4(fp)
 18026bc:	11400217 	ldw	r5,8(r2)
 18026c0:	1802a780 	call	1802a78 <altera_avalon_uart_close>
}
 18026c4:	e037883a 	mov	sp,fp
 18026c8:	dfc00117 	ldw	ra,4(sp)
 18026cc:	df000017 	ldw	fp,0(sp)
 18026d0:	dec00204 	addi	sp,sp,8
 18026d4:	f800283a 	ret

018026d8 <altera_avalon_uart_init>:
  alt_u32 status);

void 
altera_avalon_uart_init(altera_avalon_uart_state* sp, 
  alt_u32 irq_controller_id,  alt_u32 irq)
{
 18026d8:	defff704 	addi	sp,sp,-36
 18026dc:	dfc00815 	stw	ra,32(sp)
 18026e0:	df000715 	stw	fp,28(sp)
 18026e4:	df000704 	addi	fp,sp,28
 18026e8:	e13ffc15 	stw	r4,-16(fp)
 18026ec:	e17ffd15 	stw	r5,-12(fp)
 18026f0:	e1bffe15 	stw	r6,-8(fp)
  void* base = sp->base;
 18026f4:	e0bffc17 	ldw	r2,-16(fp)
 18026f8:	10800017 	ldw	r2,0(r2)
 18026fc:	e0bffb15 	stw	r2,-20(fp)
 * HAL.
 */

static ALT_INLINE int ALT_ALWAYS_INLINE alt_no_error (void)
{
  return 0;
 1802700:	0005883a 	mov	r2,zero
  /* 
   * Initialise the read and write flags and the semaphores used to 
   * protect access to the circular buffers when running in a multi-threaded
   * environment.
   */
  error = ALT_FLAG_CREATE (&sp->events, 0)    || 
 1802704:	1004c03a 	cmpne	r2,r2,zero
 1802708:	1000061e 	bne	r2,zero,1802724 <altera_avalon_uart_init+0x4c>
 180270c:	0005883a 	mov	r2,zero
 1802710:	1004c03a 	cmpne	r2,r2,zero
 1802714:	1000031e 	bne	r2,zero,1802724 <altera_avalon_uart_init+0x4c>
 1802718:	0005883a 	mov	r2,zero
 180271c:	1005003a 	cmpeq	r2,r2,zero
 1802720:	1000031e 	bne	r2,zero,1802730 <altera_avalon_uart_init+0x58>
 1802724:	00800044 	movi	r2,1
 1802728:	e0bfff15 	stw	r2,-4(fp)
 180272c:	00000106 	br	1802734 <altera_avalon_uart_init+0x5c>
 1802730:	e03fff15 	stw	zero,-4(fp)
 1802734:	e0bfff17 	ldw	r2,-4(fp)
 1802738:	e0bffa15 	stw	r2,-24(fp)
          ALT_SEM_CREATE (&sp->read_lock, 1)  ||
          ALT_SEM_CREATE (&sp->write_lock, 1);

  if (!error)
 180273c:	e0bffa17 	ldw	r2,-24(fp)
 1802740:	1004c03a 	cmpne	r2,r2,zero
 1802744:	1000111e 	bne	r2,zero,180278c <altera_avalon_uart_init+0xb4>
  {
    /* enable interrupts at the device */
    sp->ctrl = ALTERA_AVALON_UART_CONTROL_RTS_MSK  |
 1802748:	e0fffc17 	ldw	r3,-16(fp)
 180274c:	00832004 	movi	r2,3200
 1802750:	18800115 	stw	r2,4(r3)
                ALTERA_AVALON_UART_CONTROL_RRDY_MSK |
                ALTERA_AVALON_UART_CONTROL_DCTS_MSK;

    IOWR_ALTERA_AVALON_UART_CONTROL(base, sp->ctrl); 
 1802754:	e0bffb17 	ldw	r2,-20(fp)
 1802758:	11000304 	addi	r4,r2,12
 180275c:	e0bffc17 	ldw	r2,-16(fp)
 1802760:	10800117 	ldw	r2,4(r2)
 1802764:	1007883a 	mov	r3,r2
 1802768:	2005883a 	mov	r2,r4
 180276c:	10c00035 	stwio	r3,0(r2)
  
    /* register the interrupt handler */
#ifdef ALT_ENHANCED_INTERRUPT_API_PRESENT
    alt_ic_isr_register(irq_controller_id, irq, altera_avalon_uart_irq, sp, 
 1802770:	d8000015 	stw	zero,0(sp)
 1802774:	e13ffd17 	ldw	r4,-12(fp)
 1802778:	e17ffe17 	ldw	r5,-8(fp)
 180277c:	01806034 	movhi	r6,384
 1802780:	3189e804 	addi	r6,r6,10144
 1802784:	e1fffc17 	ldw	r7,-16(fp)
 1802788:	1804f440 	call	1804f44 <alt_ic_isr_register>
      0x0);
#else
    alt_irq_register (irq, sp, altera_avalon_uart_irq);
#endif  
  }
}
 180278c:	e037883a 	mov	sp,fp
 1802790:	dfc00117 	ldw	ra,4(sp)
 1802794:	df000017 	ldw	fp,0(sp)
 1802798:	dec00204 	addi	sp,sp,8
 180279c:	f800283a 	ret

018027a0 <altera_avalon_uart_irq>:
#ifdef ALT_ENHANCED_INTERRUPT_API_PRESENT
static void altera_avalon_uart_irq(void* context)
#else
static void altera_avalon_uart_irq(void* context, alt_u32 id)
#endif
{
 18027a0:	defffa04 	addi	sp,sp,-24
 18027a4:	dfc00515 	stw	ra,20(sp)
 18027a8:	df000415 	stw	fp,16(sp)
 18027ac:	df000404 	addi	fp,sp,16
 18027b0:	e13fff15 	stw	r4,-4(fp)
  alt_u32 status;

  altera_avalon_uart_state* sp = (altera_avalon_uart_state*) context;
 18027b4:	e0bfff17 	ldw	r2,-4(fp)
 18027b8:	e0bffd15 	stw	r2,-12(fp)
  void* base               = sp->base;
 18027bc:	e0bffd17 	ldw	r2,-12(fp)
 18027c0:	10800017 	ldw	r2,0(r2)
 18027c4:	e0bffc15 	stw	r2,-16(fp)
  /*
   * Read the status register in order to determine the cause of the
   * interrupt.
   */

  status = IORD_ALTERA_AVALON_UART_STATUS(base);
 18027c8:	e0bffc17 	ldw	r2,-16(fp)
 18027cc:	10800204 	addi	r2,r2,8
 18027d0:	10800037 	ldwio	r2,0(r2)
 18027d4:	e0bffe15 	stw	r2,-8(fp)

  /* Clear any error flags set at the device */
  IOWR_ALTERA_AVALON_UART_STATUS(base, 0);
 18027d8:	e0bffc17 	ldw	r2,-16(fp)
 18027dc:	10800204 	addi	r2,r2,8
 18027e0:	10000035 	stwio	zero,0(r2)

  /* Dummy read to ensure IRQ is negated before ISR returns */
  IORD_ALTERA_AVALON_UART_STATUS(base);
 18027e4:	e0bffc17 	ldw	r2,-16(fp)
 18027e8:	10800204 	addi	r2,r2,8
 18027ec:	10800037 	ldwio	r2,0(r2)
  
  /* process a read irq */
  if (status & ALTERA_AVALON_UART_STATUS_RRDY_MSK)
 18027f0:	e0bffe17 	ldw	r2,-8(fp)
 18027f4:	1080200c 	andi	r2,r2,128
 18027f8:	1005003a 	cmpeq	r2,r2,zero
 18027fc:	1000031e 	bne	r2,zero,180280c <altera_avalon_uart_irq+0x6c>
  {
    altera_avalon_uart_rxirq(sp, status);
 1802800:	e13ffd17 	ldw	r4,-12(fp)
 1802804:	e17ffe17 	ldw	r5,-8(fp)
 1802808:	180283c0 	call	180283c <altera_avalon_uart_rxirq>
  }

  /* process a write irq */
  if (status & (ALTERA_AVALON_UART_STATUS_TRDY_MSK | 
 180280c:	e0bffe17 	ldw	r2,-8(fp)
 1802810:	1081100c 	andi	r2,r2,1088
 1802814:	1005003a 	cmpeq	r2,r2,zero
 1802818:	1000031e 	bne	r2,zero,1802828 <altera_avalon_uart_irq+0x88>
                  ALTERA_AVALON_UART_STATUS_DCTS_MSK))
  {
    altera_avalon_uart_txirq(sp, status);
 180281c:	e13ffd17 	ldw	r4,-12(fp)
 1802820:	e17ffe17 	ldw	r5,-8(fp)
 1802824:	180291c0 	call	180291c <altera_avalon_uart_txirq>
  }
  

}
 1802828:	e037883a 	mov	sp,fp
 180282c:	dfc00117 	ldw	ra,4(sp)
 1802830:	df000017 	ldw	fp,0(sp)
 1802834:	dec00204 	addi	sp,sp,8
 1802838:	f800283a 	ret

0180283c <altera_avalon_uart_rxirq>:
 * the receive circular buffer, and sets the apropriate flags to indicate 
 * that there is data ready to be processed.
 */
static void 
altera_avalon_uart_rxirq(altera_avalon_uart_state* sp, alt_u32 status)
{
 180283c:	defffc04 	addi	sp,sp,-16
 1802840:	df000315 	stw	fp,12(sp)
 1802844:	df000304 	addi	fp,sp,12
 1802848:	e13ffe15 	stw	r4,-8(fp)
 180284c:	e17fff15 	stw	r5,-4(fp)
  alt_u32 next;
  
  /* If there was an error, discard the data */

  if (status & (ALTERA_AVALON_UART_STATUS_PE_MSK | 
 1802850:	e0bfff17 	ldw	r2,-4(fp)
 1802854:	108000cc 	andi	r2,r2,3
 1802858:	1004c03a 	cmpne	r2,r2,zero
 180285c:	10002b1e 	bne	r2,zero,180290c <altera_avalon_uart_rxirq+0xd0>
   * In a multi-threaded environment, set the read event flag to indicate
   * that there is data ready. This is only done if the circular buffer was
   * previously empty.
   */

  if (sp->rx_end == sp->rx_start)
 1802860:	e0bffe17 	ldw	r2,-8(fp)
 1802864:	10800317 	ldw	r2,12(r2)
    ALT_FLAG_POST (sp->events, ALT_UART_READ_RDY, OS_FLAG_SET);
  }

  /* Determine which slot to use next in the circular buffer */

  next = (sp->rx_end + 1) & ALT_AVALON_UART_BUF_MSK;
 1802868:	e0bffe17 	ldw	r2,-8(fp)
 180286c:	10800317 	ldw	r2,12(r2)
 1802870:	10800044 	addi	r2,r2,1
 1802874:	10800fcc 	andi	r2,r2,63
 1802878:	e0bffd15 	stw	r2,-12(fp)

  /* Transfer data from the device to the circular buffer */

  sp->rx_buf[sp->rx_end] = IORD_ALTERA_AVALON_UART_RXDATA(sp->base);
 180287c:	e0bffe17 	ldw	r2,-8(fp)
 1802880:	11000317 	ldw	r4,12(r2)
 1802884:	e0bffe17 	ldw	r2,-8(fp)
 1802888:	10800017 	ldw	r2,0(r2)
 180288c:	10800037 	ldwio	r2,0(r2)
 1802890:	1007883a 	mov	r3,r2
 1802894:	e0bffe17 	ldw	r2,-8(fp)
 1802898:	2085883a 	add	r2,r4,r2
 180289c:	10800704 	addi	r2,r2,28
 18028a0:	10c00005 	stb	r3,0(r2)

  sp->rx_end = next;
 18028a4:	e0fffe17 	ldw	r3,-8(fp)
 18028a8:	e0bffd17 	ldw	r2,-12(fp)
 18028ac:	18800315 	stw	r2,12(r3)

  next = (sp->rx_end + 1) & ALT_AVALON_UART_BUF_MSK;
 18028b0:	e0bffe17 	ldw	r2,-8(fp)
 18028b4:	10800317 	ldw	r2,12(r2)
 18028b8:	10800044 	addi	r2,r2,1
 18028bc:	10800fcc 	andi	r2,r2,63
 18028c0:	e0bffd15 	stw	r2,-12(fp)
  /*
   * If the cicular buffer was full, disable interrupts. Interrupts will be
   * re-enabled when data is removed from the buffer.
   */

  if (next == sp->rx_start)
 18028c4:	e0bffe17 	ldw	r2,-8(fp)
 18028c8:	10c00217 	ldw	r3,8(r2)
 18028cc:	e0bffd17 	ldw	r2,-12(fp)
 18028d0:	18800e1e 	bne	r3,r2,180290c <altera_avalon_uart_rxirq+0xd0>
  {
    sp->ctrl &= ~ALTERA_AVALON_UART_CONTROL_RRDY_MSK;
 18028d4:	e0bffe17 	ldw	r2,-8(fp)
 18028d8:	10c00117 	ldw	r3,4(r2)
 18028dc:	00bfdfc4 	movi	r2,-129
 18028e0:	1886703a 	and	r3,r3,r2
 18028e4:	e0bffe17 	ldw	r2,-8(fp)
 18028e8:	10c00115 	stw	r3,4(r2)
    IOWR_ALTERA_AVALON_UART_CONTROL(sp->base, sp->ctrl); 
 18028ec:	e0bffe17 	ldw	r2,-8(fp)
 18028f0:	10800017 	ldw	r2,0(r2)
 18028f4:	11000304 	addi	r4,r2,12
 18028f8:	e0bffe17 	ldw	r2,-8(fp)
 18028fc:	10800117 	ldw	r2,4(r2)
 1802900:	1007883a 	mov	r3,r2
 1802904:	2005883a 	mov	r2,r4
 1802908:	10c00035 	stwio	r3,0(r2)
  }   
}
 180290c:	e037883a 	mov	sp,fp
 1802910:	df000017 	ldw	fp,0(sp)
 1802914:	dec00104 	addi	sp,sp,4
 1802918:	f800283a 	ret

0180291c <altera_avalon_uart_txirq>:
 * buffer to the device, and sets the apropriate flags to indicate that 
 * there is data ready to be processed.
 */
static void 
altera_avalon_uart_txirq(altera_avalon_uart_state* sp, alt_u32 status)
{
 180291c:	defffd04 	addi	sp,sp,-12
 1802920:	df000215 	stw	fp,8(sp)
 1802924:	df000204 	addi	fp,sp,8
 1802928:	e13ffe15 	stw	r4,-8(fp)
 180292c:	e17fff15 	stw	r5,-4(fp)
  /* Transfer data if there is some ready to be transfered */

  if (sp->tx_start != sp->tx_end)
 1802930:	e0bffe17 	ldw	r2,-8(fp)
 1802934:	10c00417 	ldw	r3,16(r2)
 1802938:	e0bffe17 	ldw	r2,-8(fp)
 180293c:	10800517 	ldw	r2,20(r2)
 1802940:	18803626 	beq	r3,r2,1802a1c <altera_avalon_uart_txirq+0x100>
    /* 
     * If the device is using flow control (i.e. RTS/CTS), then the
     * transmitter is required to throttle if CTS is high.
     */

    if (!(sp->flags & ALT_AVALON_UART_FC) ||
 1802944:	e0bffe17 	ldw	r2,-8(fp)
 1802948:	10800617 	ldw	r2,24(r2)
 180294c:	1080008c 	andi	r2,r2,2
 1802950:	1005003a 	cmpeq	r2,r2,zero
 1802954:	1000041e 	bne	r2,zero,1802968 <altera_avalon_uart_txirq+0x4c>
 1802958:	e0bfff17 	ldw	r2,-4(fp)
 180295c:	1082000c 	andi	r2,r2,2048
 1802960:	1005003a 	cmpeq	r2,r2,zero
 1802964:	10001e1e 	bne	r2,zero,18029e0 <altera_avalon_uart_txirq+0xc4>
       * In a multi-threaded environment, set the write event flag to indicate
       * that there is space in the circular buffer. This is only done if the
       * buffer was previously empty.
       */

      if (sp->tx_start == ((sp->tx_end + 1) & ALT_AVALON_UART_BUF_MSK))
 1802968:	e0bffe17 	ldw	r2,-8(fp)
 180296c:	10800417 	ldw	r2,16(r2)
                       OS_FLAG_SET);
      }

      /* Write the data to the device */

      IOWR_ALTERA_AVALON_UART_TXDATA(sp->base, sp->tx_buf[sp->tx_start]);
 1802970:	e0bffe17 	ldw	r2,-8(fp)
 1802974:	10800017 	ldw	r2,0(r2)
 1802978:	11000104 	addi	r4,r2,4
 180297c:	e0bffe17 	ldw	r2,-8(fp)
 1802980:	10c00417 	ldw	r3,16(r2)
 1802984:	e0bffe17 	ldw	r2,-8(fp)
 1802988:	1885883a 	add	r2,r3,r2
 180298c:	10801704 	addi	r2,r2,92
 1802990:	10800003 	ldbu	r2,0(r2)
 1802994:	10c03fcc 	andi	r3,r2,255
 1802998:	2005883a 	mov	r2,r4
 180299c:	10c00035 	stwio	r3,0(r2)

      sp->tx_start = (++sp->tx_start) & ALT_AVALON_UART_BUF_MSK;
 18029a0:	e0bffe17 	ldw	r2,-8(fp)
 18029a4:	10800417 	ldw	r2,16(r2)
 18029a8:	10c00044 	addi	r3,r2,1
 18029ac:	e0bffe17 	ldw	r2,-8(fp)
 18029b0:	10c00415 	stw	r3,16(r2)
 18029b4:	e0bffe17 	ldw	r2,-8(fp)
 18029b8:	10800417 	ldw	r2,16(r2)
 18029bc:	10c00fcc 	andi	r3,r2,63
 18029c0:	e0bffe17 	ldw	r2,-8(fp)
 18029c4:	10c00415 	stw	r3,16(r2)
      /*
       * In case the tranmit interrupt had previously been disabled by 
       * detecting a low value on CTS, it is reenabled here.
       */ 

      sp->ctrl |= ALTERA_AVALON_UART_CONTROL_TRDY_MSK;
 18029c8:	e0bffe17 	ldw	r2,-8(fp)
 18029cc:	10800117 	ldw	r2,4(r2)
 18029d0:	10c01014 	ori	r3,r2,64
 18029d4:	e0bffe17 	ldw	r2,-8(fp)
 18029d8:	10c00115 	stw	r3,4(r2)
    /* 
     * If the device is using flow control (i.e. RTS/CTS), then the
     * transmitter is required to throttle if CTS is high.
     */

    if (!(sp->flags & ALT_AVALON_UART_FC) ||
 18029dc:	00000f06 	br	1802a1c <altera_avalon_uart_txirq+0x100>
       * the last write to the status register. To avoid this resulting in
       * deadlock, it's necessary to re-check the status register here
       * before throttling.
       */
 
      status = IORD_ALTERA_AVALON_UART_STATUS(sp->base); 
 18029e0:	e0bffe17 	ldw	r2,-8(fp)
 18029e4:	10800017 	ldw	r2,0(r2)
 18029e8:	10800204 	addi	r2,r2,8
 18029ec:	10800037 	ldwio	r2,0(r2)
 18029f0:	e0bfff15 	stw	r2,-4(fp)

      if (!(status & ALTERA_AVALON_UART_STATUS_CTS_MSK))
 18029f4:	e0bfff17 	ldw	r2,-4(fp)
 18029f8:	1082000c 	andi	r2,r2,2048
 18029fc:	1004c03a 	cmpne	r2,r2,zero
 1802a00:	1000061e 	bne	r2,zero,1802a1c <altera_avalon_uart_txirq+0x100>
      {
        sp->ctrl &= ~ALTERA_AVALON_UART_CONTROL_TRDY_MSK;
 1802a04:	e0bffe17 	ldw	r2,-8(fp)
 1802a08:	10c00117 	ldw	r3,4(r2)
 1802a0c:	00bfefc4 	movi	r2,-65
 1802a10:	1886703a 	and	r3,r3,r2
 1802a14:	e0bffe17 	ldw	r2,-8(fp)
 1802a18:	10c00115 	stw	r3,4(r2)
  /*
   * If the circular buffer is empty, disable the interrupt. This will be
   * re-enabled when new data is placed in the buffer.
   */

  if (sp->tx_start == sp->tx_end)
 1802a1c:	e0bffe17 	ldw	r2,-8(fp)
 1802a20:	10c00417 	ldw	r3,16(r2)
 1802a24:	e0bffe17 	ldw	r2,-8(fp)
 1802a28:	10800517 	ldw	r2,20(r2)
 1802a2c:	1880061e 	bne	r3,r2,1802a48 <altera_avalon_uart_txirq+0x12c>
  {
    sp->ctrl &= ~(ALTERA_AVALON_UART_CONTROL_TRDY_MSK |
 1802a30:	e0bffe17 	ldw	r2,-8(fp)
 1802a34:	10c00117 	ldw	r3,4(r2)
 1802a38:	00beefc4 	movi	r2,-1089
 1802a3c:	1886703a 	and	r3,r3,r2
 1802a40:	e0bffe17 	ldw	r2,-8(fp)
 1802a44:	10c00115 	stw	r3,4(r2)
                    ALTERA_AVALON_UART_CONTROL_DCTS_MSK);
  }

  IOWR_ALTERA_AVALON_UART_CONTROL(sp->base, sp->ctrl);
 1802a48:	e0bffe17 	ldw	r2,-8(fp)
 1802a4c:	10800017 	ldw	r2,0(r2)
 1802a50:	11000304 	addi	r4,r2,12
 1802a54:	e0bffe17 	ldw	r2,-8(fp)
 1802a58:	10800117 	ldw	r2,4(r2)
 1802a5c:	1007883a 	mov	r3,r2
 1802a60:	2005883a 	mov	r2,r4
 1802a64:	10c00035 	stwio	r3,0(r2)
}
 1802a68:	e037883a 	mov	sp,fp
 1802a6c:	df000017 	ldw	fp,0(sp)
 1802a70:	dec00104 	addi	sp,sp,4
 1802a74:	f800283a 	ret

01802a78 <altera_avalon_uart_close>:
 * The close routine is not implemented for the small driver; instead it will
 * map to null. This is because the small driver simply waits while characters
 * are transmitted; there is no interrupt-serviced buffer to empty 
 */
int altera_avalon_uart_close(altera_avalon_uart_state* sp, int flags)
{
 1802a78:	defffc04 	addi	sp,sp,-16
 1802a7c:	df000315 	stw	fp,12(sp)
 1802a80:	df000304 	addi	fp,sp,12
 1802a84:	e13ffd15 	stw	r4,-12(fp)
 1802a88:	e17ffe15 	stw	r5,-8(fp)
  /* 
   * Wait for all transmit data to be emptied by the UART ISR.
   */
  while (sp->tx_start != sp->tx_end) {
 1802a8c:	00000706 	br	1802aac <altera_avalon_uart_close+0x34>
    if (flags & O_NONBLOCK) {
 1802a90:	e0bffe17 	ldw	r2,-8(fp)
 1802a94:	1090000c 	andi	r2,r2,16384
 1802a98:	1005003a 	cmpeq	r2,r2,zero
 1802a9c:	1000031e 	bne	r2,zero,1802aac <altera_avalon_uart_close+0x34>
      return -EWOULDBLOCK; 
 1802aa0:	00bffd44 	movi	r2,-11
 1802aa4:	e0bfff15 	stw	r2,-4(fp)
 1802aa8:	00000606 	br	1802ac4 <altera_avalon_uart_close+0x4c>
int altera_avalon_uart_close(altera_avalon_uart_state* sp, int flags)
{
  /* 
   * Wait for all transmit data to be emptied by the UART ISR.
   */
  while (sp->tx_start != sp->tx_end) {
 1802aac:	e0bffd17 	ldw	r2,-12(fp)
 1802ab0:	10c00417 	ldw	r3,16(r2)
 1802ab4:	e0bffd17 	ldw	r2,-12(fp)
 1802ab8:	10800517 	ldw	r2,20(r2)
 1802abc:	18bff41e 	bne	r3,r2,1802a90 <altera_avalon_uart_close+0x18>
    if (flags & O_NONBLOCK) {
      return -EWOULDBLOCK; 
    }
  }

  return 0;
 1802ac0:	e03fff15 	stw	zero,-4(fp)
 1802ac4:	e0bfff17 	ldw	r2,-4(fp)
}
 1802ac8:	e037883a 	mov	sp,fp
 1802acc:	df000017 	ldw	fp,0(sp)
 1802ad0:	dec00104 	addi	sp,sp,4
 1802ad4:	f800283a 	ret

01802ad8 <altera_avalon_uart_read>:
 */

int 
altera_avalon_uart_read(altera_avalon_uart_state* sp, char* ptr, int len,
  int flags)
{
 1802ad8:	defff004 	addi	sp,sp,-64
 1802adc:	dfc00f15 	stw	ra,60(sp)
 1802ae0:	df000e15 	stw	fp,56(sp)
 1802ae4:	df000e04 	addi	fp,sp,56
 1802ae8:	e13ffb15 	stw	r4,-20(fp)
 1802aec:	e17ffc15 	stw	r5,-16(fp)
 1802af0:	e1bffd15 	stw	r6,-12(fp)
 1802af4:	e1fffe15 	stw	r7,-8(fp)
  alt_irq_context context;
  int             block;
  alt_u32         next;
  alt_u8          read_would_block = 0;
 1802af8:	e03ff705 	stb	zero,-36(fp)
  int             count = 0;
 1802afc:	e03ff615 	stw	zero,-40(fp)
  /* 
   * Construct a flag to indicate whether the device is being accessed in
   * blocking or non-blocking mode.
   */

  block = !(flags & O_NONBLOCK);
 1802b00:	e0bffe17 	ldw	r2,-8(fp)
 1802b04:	1090000c 	andi	r2,r2,16384
 1802b08:	1005003a 	cmpeq	r2,r2,zero
 1802b0c:	e0bff915 	stw	r2,-28(fp)
  /*
   * Calculate which slot in the circular buffer is the next one to read
   * data from.
   */

  next = (sp->rx_start + 1) & ALT_AVALON_UART_BUF_MSK;
 1802b10:	e0bffb17 	ldw	r2,-20(fp)
 1802b14:	10800217 	ldw	r2,8(r2)
 1802b18:	10800044 	addi	r2,r2,1
 1802b1c:	10800fcc 	andi	r2,r2,63
 1802b20:	e0bff815 	stw	r2,-32(fp)
    /*
     * Read the required amount of data, until the circular buffer runs
     * empty
     */

    while ((count < len) && (sp->rx_start != sp->rx_end))
 1802b24:	00001906 	br	1802b8c <altera_avalon_uart_read+0xb4>
    {
      count++;
 1802b28:	e0bff617 	ldw	r2,-40(fp)
 1802b2c:	10800044 	addi	r2,r2,1
 1802b30:	e0bff615 	stw	r2,-40(fp)
      *ptr++ = sp->rx_buf[sp->rx_start];
 1802b34:	e0bffb17 	ldw	r2,-20(fp)
 1802b38:	10c00217 	ldw	r3,8(r2)
 1802b3c:	e0bffb17 	ldw	r2,-20(fp)
 1802b40:	1885883a 	add	r2,r3,r2
 1802b44:	10800704 	addi	r2,r2,28
 1802b48:	10800003 	ldbu	r2,0(r2)
 1802b4c:	1007883a 	mov	r3,r2
 1802b50:	e0bffc17 	ldw	r2,-16(fp)
 1802b54:	10c00005 	stb	r3,0(r2)
 1802b58:	e0bffc17 	ldw	r2,-16(fp)
 1802b5c:	10800044 	addi	r2,r2,1
 1802b60:	e0bffc15 	stw	r2,-16(fp)
      
      sp->rx_start = (++sp->rx_start) & ALT_AVALON_UART_BUF_MSK;
 1802b64:	e0bffb17 	ldw	r2,-20(fp)
 1802b68:	10800217 	ldw	r2,8(r2)
 1802b6c:	10c00044 	addi	r3,r2,1
 1802b70:	e0bffb17 	ldw	r2,-20(fp)
 1802b74:	10c00215 	stw	r3,8(r2)
 1802b78:	e0bffb17 	ldw	r2,-20(fp)
 1802b7c:	10800217 	ldw	r2,8(r2)
 1802b80:	10c00fcc 	andi	r3,r2,63
 1802b84:	e0bffb17 	ldw	r2,-20(fp)
 1802b88:	10c00215 	stw	r3,8(r2)
    /*
     * Read the required amount of data, until the circular buffer runs
     * empty
     */

    while ((count < len) && (sp->rx_start != sp->rx_end))
 1802b8c:	e0fff617 	ldw	r3,-40(fp)
 1802b90:	e0bffd17 	ldw	r2,-12(fp)
 1802b94:	1880050e 	bge	r3,r2,1802bac <altera_avalon_uart_read+0xd4>
 1802b98:	e0bffb17 	ldw	r2,-20(fp)
 1802b9c:	10c00217 	ldw	r3,8(r2)
 1802ba0:	e0bffb17 	ldw	r2,-20(fp)
 1802ba4:	10800317 	ldw	r2,12(r2)
 1802ba8:	18bfdf1e 	bne	r3,r2,1802b28 <altera_avalon_uart_read+0x50>
    /*
     * If no data has been transferred, the circular buffer is empty, and
     * this is not a non-blocking access, block waiting for data to arrive.
     */

    if (!count && (sp->rx_start == sp->rx_end))
 1802bac:	e0bff617 	ldw	r2,-40(fp)
 1802bb0:	1004c03a 	cmpne	r2,r2,zero
 1802bb4:	1000271e 	bne	r2,zero,1802c54 <altera_avalon_uart_read+0x17c>
 1802bb8:	e0bffb17 	ldw	r2,-20(fp)
 1802bbc:	10c00217 	ldw	r3,8(r2)
 1802bc0:	e0bffb17 	ldw	r2,-20(fp)
 1802bc4:	10800317 	ldw	r2,12(r2)
 1802bc8:	1880221e 	bne	r3,r2,1802c54 <altera_avalon_uart_read+0x17c>
    {
      if (!block)
 1802bcc:	e0bff917 	ldw	r2,-28(fp)
 1802bd0:	1004c03a 	cmpne	r2,r2,zero
 1802bd4:	1000061e 	bne	r2,zero,1802bf0 <altera_avalon_uart_read+0x118>
      {
        /* Set errno to indicate the reason we're not returning any data */

        ALT_ERRNO = EWOULDBLOCK;
 1802bd8:	1802d080 	call	1802d08 <alt_get_errno>
 1802bdc:	00c002c4 	movi	r3,11
 1802be0:	10c00015 	stw	r3,0(r2)
        read_would_block = 1;
 1802be4:	00800044 	movi	r2,1
 1802be8:	e0bff705 	stb	r2,-36(fp)
        break;
 1802bec:	00001f06 	br	1802c6c <altera_avalon_uart_read+0x194>
static ALT_INLINE alt_irq_context ALT_ALWAYS_INLINE 
       alt_irq_disable_all (void)
{
  alt_irq_context context;

  NIOS2_READ_STATUS (context);
 1802bf0:	0005303a 	rdctl	r2,status
 1802bf4:	e0bff515 	stw	r2,-44(fp)

  NIOS2_WRITE_STATUS (context & ~NIOS2_STATUS_PIE_MSK);
 1802bf8:	e0fff517 	ldw	r3,-44(fp)
 1802bfc:	00bfff84 	movi	r2,-2
 1802c00:	1884703a 	and	r2,r3,r2
 1802c04:	1001703a 	wrctl	status,r2
  
  return context;
 1802c08:	e0bff517 	ldw	r2,-44(fp)
      {
       /* Block waiting for some data to arrive */

       /* First, ensure read interrupts are enabled to avoid deadlock */

       context = alt_irq_disable_all ();
 1802c0c:	e0bffa15 	stw	r2,-24(fp)
       sp->ctrl |= ALTERA_AVALON_UART_CONTROL_RRDY_MSK;
 1802c10:	e0bffb17 	ldw	r2,-20(fp)
 1802c14:	10800117 	ldw	r2,4(r2)
 1802c18:	10c02014 	ori	r3,r2,128
 1802c1c:	e0bffb17 	ldw	r2,-20(fp)
 1802c20:	10c00115 	stw	r3,4(r2)
       IOWR_ALTERA_AVALON_UART_CONTROL(sp->base, sp->ctrl);
 1802c24:	e0bffb17 	ldw	r2,-20(fp)
 1802c28:	10800017 	ldw	r2,0(r2)
 1802c2c:	11000304 	addi	r4,r2,12
 1802c30:	e0bffb17 	ldw	r2,-20(fp)
 1802c34:	10800117 	ldw	r2,4(r2)
 1802c38:	1007883a 	mov	r3,r2
 1802c3c:	2005883a 	mov	r2,r4
 1802c40:	10c00035 	stwio	r3,0(r2)
 1802c44:	e0bffa17 	ldw	r2,-24(fp)
 1802c48:	e0bff415 	stw	r2,-48(fp)
  status &= ~NIOS2_STATUS_PIE_MSK;
  status |= (context & NIOS2_STATUS_PIE_MSK);
  
  NIOS2_WRITE_STATUS (status);
#else
  NIOS2_WRITE_STATUS (context);
 1802c4c:	e0bff417 	ldw	r2,-48(fp)
 1802c50:	1001703a 	wrctl	status,r2
                      OS_FLAG_WAIT_SET_ANY + OS_FLAG_CONSUME,
                      0);
      }
    }
  }
  while (!count && len);
 1802c54:	e0bff617 	ldw	r2,-40(fp)
 1802c58:	1004c03a 	cmpne	r2,r2,zero
 1802c5c:	1000031e 	bne	r2,zero,1802c6c <altera_avalon_uart_read+0x194>
 1802c60:	e0bffd17 	ldw	r2,-12(fp)
 1802c64:	1004c03a 	cmpne	r2,r2,zero
 1802c68:	103fc81e 	bne	r2,zero,1802b8c <altera_avalon_uart_read+0xb4>
static ALT_INLINE alt_irq_context ALT_ALWAYS_INLINE 
       alt_irq_disable_all (void)
{
  alt_irq_context context;

  NIOS2_READ_STATUS (context);
 1802c6c:	0005303a 	rdctl	r2,status
 1802c70:	e0bff315 	stw	r2,-52(fp)

  NIOS2_WRITE_STATUS (context & ~NIOS2_STATUS_PIE_MSK);
 1802c74:	e0fff317 	ldw	r3,-52(fp)
 1802c78:	00bfff84 	movi	r2,-2
 1802c7c:	1884703a 	and	r2,r3,r2
 1802c80:	1001703a 	wrctl	status,r2
  
  return context;
 1802c84:	e0bff317 	ldw	r2,-52(fp)
  /*
   * Ensure that interrupts are enabled, so that the circular buffer can
   * re-fill.
   */

  context = alt_irq_disable_all ();
 1802c88:	e0bffa15 	stw	r2,-24(fp)
  sp->ctrl |= ALTERA_AVALON_UART_CONTROL_RRDY_MSK;
 1802c8c:	e0bffb17 	ldw	r2,-20(fp)
 1802c90:	10800117 	ldw	r2,4(r2)
 1802c94:	10c02014 	ori	r3,r2,128
 1802c98:	e0bffb17 	ldw	r2,-20(fp)
 1802c9c:	10c00115 	stw	r3,4(r2)
  IOWR_ALTERA_AVALON_UART_CONTROL(sp->base, sp->ctrl);
 1802ca0:	e0bffb17 	ldw	r2,-20(fp)
 1802ca4:	10800017 	ldw	r2,0(r2)
 1802ca8:	11000304 	addi	r4,r2,12
 1802cac:	e0bffb17 	ldw	r2,-20(fp)
 1802cb0:	10800117 	ldw	r2,4(r2)
 1802cb4:	1007883a 	mov	r3,r2
 1802cb8:	2005883a 	mov	r2,r4
 1802cbc:	10c00035 	stwio	r3,0(r2)
 1802cc0:	e0bffa17 	ldw	r2,-24(fp)
 1802cc4:	e0bff215 	stw	r2,-56(fp)
  status &= ~NIOS2_STATUS_PIE_MSK;
  status |= (context & NIOS2_STATUS_PIE_MSK);
  
  NIOS2_WRITE_STATUS (status);
#else
  NIOS2_WRITE_STATUS (context);
 1802cc8:	e0bff217 	ldw	r2,-56(fp)
 1802ccc:	1001703a 	wrctl	status,r2
  alt_irq_enable_all (context);

  /* Return the number of bytes read */
  if(read_would_block) {
 1802cd0:	e0bff703 	ldbu	r2,-36(fp)
 1802cd4:	1005003a 	cmpeq	r2,r2,zero
 1802cd8:	1000031e 	bne	r2,zero,1802ce8 <altera_avalon_uart_read+0x210>
    return ~EWOULDBLOCK;
 1802cdc:	00bffd04 	movi	r2,-12
 1802ce0:	e0bfff15 	stw	r2,-4(fp)
 1802ce4:	00000206 	br	1802cf0 <altera_avalon_uart_read+0x218>
  }
  else {
    return count;
 1802ce8:	e0bff617 	ldw	r2,-40(fp)
 1802cec:	e0bfff15 	stw	r2,-4(fp)
 1802cf0:	e0bfff17 	ldw	r2,-4(fp)
  }
}
 1802cf4:	e037883a 	mov	sp,fp
 1802cf8:	dfc00117 	ldw	ra,4(sp)
 1802cfc:	df000017 	ldw	fp,0(sp)
 1802d00:	dec00204 	addi	sp,sp,8
 1802d04:	f800283a 	ret

01802d08 <alt_get_errno>:
#undef errno

extern int errno;

static ALT_INLINE int* alt_get_errno(void)
{
 1802d08:	defffd04 	addi	sp,sp,-12
 1802d0c:	dfc00215 	stw	ra,8(sp)
 1802d10:	df000115 	stw	fp,4(sp)
 1802d14:	df000104 	addi	fp,sp,4
  return ((alt_errno) ? alt_errno() : &errno);
 1802d18:	00806074 	movhi	r2,385
 1802d1c:	10abd204 	addi	r2,r2,-20664
 1802d20:	10800017 	ldw	r2,0(r2)
 1802d24:	1005003a 	cmpeq	r2,r2,zero
 1802d28:	1000061e 	bne	r2,zero,1802d44 <alt_get_errno+0x3c>
 1802d2c:	00806074 	movhi	r2,385
 1802d30:	10abd204 	addi	r2,r2,-20664
 1802d34:	10800017 	ldw	r2,0(r2)
 1802d38:	103ee83a 	callr	r2
 1802d3c:	e0bfff15 	stw	r2,-4(fp)
 1802d40:	00000306 	br	1802d50 <alt_get_errno+0x48>
 1802d44:	00806074 	movhi	r2,385
 1802d48:	10b2a604 	addi	r2,r2,-13672
 1802d4c:	e0bfff15 	stw	r2,-4(fp)
 1802d50:	e0bfff17 	ldw	r2,-4(fp)
}
 1802d54:	e037883a 	mov	sp,fp
 1802d58:	dfc00117 	ldw	ra,4(sp)
 1802d5c:	df000017 	ldw	fp,0(sp)
 1802d60:	dec00204 	addi	sp,sp,8
 1802d64:	f800283a 	ret

01802d68 <altera_avalon_uart_write>:
 */

int
altera_avalon_uart_write(altera_avalon_uart_state* sp, const char* ptr, int len,
  int flags)
{
 1802d68:	defff204 	addi	sp,sp,-56
 1802d6c:	dfc00d15 	stw	ra,52(sp)
 1802d70:	df000c15 	stw	fp,48(sp)
 1802d74:	df000c04 	addi	fp,sp,48
 1802d78:	e13ffc15 	stw	r4,-16(fp)
 1802d7c:	e17ffd15 	stw	r5,-12(fp)
 1802d80:	e1bffe15 	stw	r6,-8(fp)
 1802d84:	e1ffff15 	stw	r7,-4(fp)
  alt_irq_context context;
  int             no_block;
  alt_u32         next;
  int             count = len;
 1802d88:	e0bffe17 	ldw	r2,-8(fp)
 1802d8c:	e0bff815 	stw	r2,-32(fp)
  /* 
   * Construct a flag to indicate whether the device is being accessed in
   * blocking or non-blocking mode.
   */

  no_block = (flags & O_NONBLOCK);
 1802d90:	e0bfff17 	ldw	r2,-4(fp)
 1802d94:	1090000c 	andi	r2,r2,16384
 1802d98:	e0bffa15 	stw	r2,-24(fp)
   * Loop transferring data from the input buffer to the transmit circular
   * buffer. The loop is terminated once all the data has been transferred,
   * or, (if in non-blocking mode) the buffer becomes full.
   */

  while (count)
 1802d9c:	00004006 	br	1802ea0 <altera_avalon_uart_write+0x138>
  {
    /* Determine the next slot in the buffer to access */

    next = (sp->tx_end + 1) & ALT_AVALON_UART_BUF_MSK;
 1802da0:	e0bffc17 	ldw	r2,-16(fp)
 1802da4:	10800517 	ldw	r2,20(r2)
 1802da8:	10800044 	addi	r2,r2,1
 1802dac:	10800fcc 	andi	r2,r2,63
 1802db0:	e0bff915 	stw	r2,-28(fp)

    /* block waiting for space if necessary */

    if (next == sp->tx_start)
 1802db4:	e0bffc17 	ldw	r2,-16(fp)
 1802db8:	10c00417 	ldw	r3,16(r2)
 1802dbc:	e0bff917 	ldw	r2,-28(fp)
 1802dc0:	1880251e 	bne	r3,r2,1802e58 <altera_avalon_uart_write+0xf0>
    {
      if (no_block)
 1802dc4:	e0bffa17 	ldw	r2,-24(fp)
 1802dc8:	1005003a 	cmpeq	r2,r2,zero
 1802dcc:	1000051e 	bne	r2,zero,1802de4 <altera_avalon_uart_write+0x7c>
      {
        /* Set errno to indicate why this function returned early */
 
        ALT_ERRNO = EWOULDBLOCK;
 1802dd0:	1802f300 	call	1802f30 <alt_get_errno>
 1802dd4:	1007883a 	mov	r3,r2
 1802dd8:	008002c4 	movi	r2,11
 1802ddc:	18800015 	stw	r2,0(r3)
        break;
 1802de0:	00003206 	br	1802eac <altera_avalon_uart_write+0x144>
static ALT_INLINE alt_irq_context ALT_ALWAYS_INLINE 
       alt_irq_disable_all (void)
{
  alt_irq_context context;

  NIOS2_READ_STATUS (context);
 1802de4:	0005303a 	rdctl	r2,status
 1802de8:	e0bff715 	stw	r2,-36(fp)

  NIOS2_WRITE_STATUS (context & ~NIOS2_STATUS_PIE_MSK);
 1802dec:	e0fff717 	ldw	r3,-36(fp)
 1802df0:	00bfff84 	movi	r2,-2
 1802df4:	1884703a 	and	r2,r3,r2
 1802df8:	1001703a 	wrctl	status,r2
  
  return context;
 1802dfc:	e0bff717 	ldw	r2,-36(fp)
      {
        /* Block waiting for space in the circular buffer */

        /* First, ensure transmit interrupts are enabled to avoid deadlock */

        context = alt_irq_disable_all ();
 1802e00:	e0bffb15 	stw	r2,-20(fp)
        sp->ctrl |= (ALTERA_AVALON_UART_CONTROL_TRDY_MSK |
 1802e04:	e0bffc17 	ldw	r2,-16(fp)
 1802e08:	10800117 	ldw	r2,4(r2)
 1802e0c:	10c11014 	ori	r3,r2,1088
 1802e10:	e0bffc17 	ldw	r2,-16(fp)
 1802e14:	10c00115 	stw	r3,4(r2)
                        ALTERA_AVALON_UART_CONTROL_DCTS_MSK);
        IOWR_ALTERA_AVALON_UART_CONTROL(sp->base, sp->ctrl);
 1802e18:	e0bffc17 	ldw	r2,-16(fp)
 1802e1c:	10800017 	ldw	r2,0(r2)
 1802e20:	11000304 	addi	r4,r2,12
 1802e24:	e0bffc17 	ldw	r2,-16(fp)
 1802e28:	10800117 	ldw	r2,4(r2)
 1802e2c:	1007883a 	mov	r3,r2
 1802e30:	2005883a 	mov	r2,r4
 1802e34:	10c00035 	stwio	r3,0(r2)
 1802e38:	e0bffb17 	ldw	r2,-20(fp)
 1802e3c:	e0bff615 	stw	r2,-40(fp)
  status &= ~NIOS2_STATUS_PIE_MSK;
  status |= (context & NIOS2_STATUS_PIE_MSK);
  
  NIOS2_WRITE_STATUS (status);
#else
  NIOS2_WRITE_STATUS (context);
 1802e40:	e0bff617 	ldw	r2,-40(fp)
 1802e44:	1001703a 	wrctl	status,r2
          ALT_FLAG_PEND (sp->events, 
                         ALT_UART_WRITE_RDY,
                         OS_FLAG_WAIT_SET_ANY + OS_FLAG_CONSUME,
                         0);
        }
        while ((next == sp->tx_start));
 1802e48:	e0bffc17 	ldw	r2,-16(fp)
 1802e4c:	10c00417 	ldw	r3,16(r2)
 1802e50:	e0bff917 	ldw	r2,-28(fp)
 1802e54:	18bffc26 	beq	r3,r2,1802e48 <altera_avalon_uart_write+0xe0>
      }
    }

    count--;
 1802e58:	e0bff817 	ldw	r2,-32(fp)
 1802e5c:	10bfffc4 	addi	r2,r2,-1
 1802e60:	e0bff815 	stw	r2,-32(fp)

    /* Add the next character to the transmit buffer */

    sp->tx_buf[sp->tx_end] = *ptr++;
 1802e64:	e0bffc17 	ldw	r2,-16(fp)
 1802e68:	10c00517 	ldw	r3,20(r2)
 1802e6c:	e0bffd17 	ldw	r2,-12(fp)
 1802e70:	10800003 	ldbu	r2,0(r2)
 1802e74:	1009883a 	mov	r4,r2
 1802e78:	e0bffc17 	ldw	r2,-16(fp)
 1802e7c:	1885883a 	add	r2,r3,r2
 1802e80:	10801704 	addi	r2,r2,92
 1802e84:	11000005 	stb	r4,0(r2)
 1802e88:	e0bffd17 	ldw	r2,-12(fp)
 1802e8c:	10800044 	addi	r2,r2,1
 1802e90:	e0bffd15 	stw	r2,-12(fp)
    sp->tx_end = next;
 1802e94:	e0fffc17 	ldw	r3,-16(fp)
 1802e98:	e0bff917 	ldw	r2,-28(fp)
 1802e9c:	18800515 	stw	r2,20(r3)
   * Loop transferring data from the input buffer to the transmit circular
   * buffer. The loop is terminated once all the data has been transferred,
   * or, (if in non-blocking mode) the buffer becomes full.
   */

  while (count)
 1802ea0:	e0bff817 	ldw	r2,-32(fp)
 1802ea4:	1004c03a 	cmpne	r2,r2,zero
 1802ea8:	103fbd1e 	bne	r2,zero,1802da0 <altera_avalon_uart_write+0x38>
static ALT_INLINE alt_irq_context ALT_ALWAYS_INLINE 
       alt_irq_disable_all (void)
{
  alt_irq_context context;

  NIOS2_READ_STATUS (context);
 1802eac:	0005303a 	rdctl	r2,status
 1802eb0:	e0bff515 	stw	r2,-44(fp)

  NIOS2_WRITE_STATUS (context & ~NIOS2_STATUS_PIE_MSK);
 1802eb4:	e0fff517 	ldw	r3,-44(fp)
 1802eb8:	00bfff84 	movi	r2,-2
 1802ebc:	1884703a 	and	r2,r3,r2
 1802ec0:	1001703a 	wrctl	status,r2
  
  return context;
 1802ec4:	e0bff517 	ldw	r2,-44(fp)
  /* 
   * Ensure that interrupts are enabled, so that the circular buffer can 
   * drain.
   */

  context = alt_irq_disable_all ();
 1802ec8:	e0bffb15 	stw	r2,-20(fp)
  sp->ctrl |= ALTERA_AVALON_UART_CONTROL_TRDY_MSK |
 1802ecc:	e0bffc17 	ldw	r2,-16(fp)
 1802ed0:	10800117 	ldw	r2,4(r2)
 1802ed4:	10c11014 	ori	r3,r2,1088
 1802ed8:	e0bffc17 	ldw	r2,-16(fp)
 1802edc:	10c00115 	stw	r3,4(r2)
                 ALTERA_AVALON_UART_CONTROL_DCTS_MSK;
  IOWR_ALTERA_AVALON_UART_CONTROL(sp->base, sp->ctrl);
 1802ee0:	e0bffc17 	ldw	r2,-16(fp)
 1802ee4:	10800017 	ldw	r2,0(r2)
 1802ee8:	11000304 	addi	r4,r2,12
 1802eec:	e0bffc17 	ldw	r2,-16(fp)
 1802ef0:	10800117 	ldw	r2,4(r2)
 1802ef4:	1007883a 	mov	r3,r2
 1802ef8:	2005883a 	mov	r2,r4
 1802efc:	10c00035 	stwio	r3,0(r2)
 1802f00:	e0bffb17 	ldw	r2,-20(fp)
 1802f04:	e0bff415 	stw	r2,-48(fp)
  status &= ~NIOS2_STATUS_PIE_MSK;
  status |= (context & NIOS2_STATUS_PIE_MSK);
  
  NIOS2_WRITE_STATUS (status);
#else
  NIOS2_WRITE_STATUS (context);
 1802f08:	e0bff417 	ldw	r2,-48(fp)
 1802f0c:	1001703a 	wrctl	status,r2
  alt_irq_enable_all (context);

  /* return the number of bytes written */

  return (len - count);
 1802f10:	e0fffe17 	ldw	r3,-8(fp)
 1802f14:	e0bff817 	ldw	r2,-32(fp)
 1802f18:	1885c83a 	sub	r2,r3,r2
}
 1802f1c:	e037883a 	mov	sp,fp
 1802f20:	dfc00117 	ldw	ra,4(sp)
 1802f24:	df000017 	ldw	fp,0(sp)
 1802f28:	dec00204 	addi	sp,sp,8
 1802f2c:	f800283a 	ret

01802f30 <alt_get_errno>:
#undef errno

extern int errno;

static ALT_INLINE int* alt_get_errno(void)
{
 1802f30:	defffd04 	addi	sp,sp,-12
 1802f34:	dfc00215 	stw	ra,8(sp)
 1802f38:	df000115 	stw	fp,4(sp)
 1802f3c:	df000104 	addi	fp,sp,4
  return ((alt_errno) ? alt_errno() : &errno);
 1802f40:	00806074 	movhi	r2,385
 1802f44:	10abd204 	addi	r2,r2,-20664
 1802f48:	10800017 	ldw	r2,0(r2)
 1802f4c:	1005003a 	cmpeq	r2,r2,zero
 1802f50:	1000061e 	bne	r2,zero,1802f6c <alt_get_errno+0x3c>
 1802f54:	00806074 	movhi	r2,385
 1802f58:	10abd204 	addi	r2,r2,-20664
 1802f5c:	10800017 	ldw	r2,0(r2)
 1802f60:	103ee83a 	callr	r2
 1802f64:	e0bfff15 	stw	r2,-4(fp)
 1802f68:	00000306 	br	1802f78 <alt_get_errno+0x48>
 1802f6c:	00806074 	movhi	r2,385
 1802f70:	10b2a604 	addi	r2,r2,-13672
 1802f74:	e0bfff15 	stw	r2,-4(fp)
 1802f78:	e0bfff17 	ldw	r2,-4(fp)
}
 1802f7c:	e037883a 	mov	sp,fp
 1802f80:	dfc00117 	ldw	ra,4(sp)
 1802f84:	df000017 	ldw	fp,0(sp)
 1802f88:	dec00204 	addi	sp,sp,8
 1802f8c:	f800283a 	ret

01802f90 <chThdAddRef>:
 * @return              The same thread pointer passed as parameter
 *                      representing the new reference.
 *
 * @api
 */
Thread *chThdAddRef(Thread *tp) {
 1802f90:	defffc04 	addi	sp,sp,-16
 1802f94:	df000315 	stw	fp,12(sp)
 1802f98:	df000304 	addi	fp,sp,12
 1802f9c:	e13fff15 	stw	r4,-4(fp)
static ALT_INLINE alt_irq_context ALT_ALWAYS_INLINE 
       alt_irq_disable_all (void)
{
  alt_irq_context context;

  NIOS2_READ_STATUS (context);
 1802fa0:	0005303a 	rdctl	r2,status
 1802fa4:	e0bffe15 	stw	r2,-8(fp)

  NIOS2_WRITE_STATUS (context & ~NIOS2_STATUS_PIE_MSK);
 1802fa8:	e0fffe17 	ldw	r3,-8(fp)
 1802fac:	00bfff84 	movi	r2,-2
 1802fb0:	1884703a 	and	r2,r3,r2
 1802fb4:	1001703a 	wrctl	status,r2

  chSysLock();
  chDbgAssert(tp->p_refs < 255, "chThdAddRef(), #1", "too many references");
  tp->p_refs++;
 1802fb8:	e0bfff17 	ldw	r2,-4(fp)
 1802fbc:	10800783 	ldbu	r2,30(r2)
 1802fc0:	10800044 	addi	r2,r2,1
 1802fc4:	1007883a 	mov	r3,r2
 1802fc8:	e0bfff17 	ldw	r2,-4(fp)
 1802fcc:	10c00785 	stb	r3,30(r2)
 1802fd0:	00800044 	movi	r2,1
 1802fd4:	e0bffd15 	stw	r2,-12(fp)
  status &= ~NIOS2_STATUS_PIE_MSK;
  status |= (context & NIOS2_STATUS_PIE_MSK);
  
  NIOS2_WRITE_STATUS (status);
#else
  NIOS2_WRITE_STATUS (context);
 1802fd8:	e0bffd17 	ldw	r2,-12(fp)
 1802fdc:	1001703a 	wrctl	status,r2
  chSysUnlock();
  return tp;
 1802fe0:	e0bfff17 	ldw	r2,-4(fp)
}
 1802fe4:	e037883a 	mov	sp,fp
 1802fe8:	df000017 	ldw	fp,0(sp)
 1802fec:	dec00104 	addi	sp,sp,4
 1802ff0:	f800283a 	ret

01802ff4 <chThdRelease>:
 *
 * @param[in] tp        pointer to the thread
 *
 * @api
 */
void chThdRelease(Thread *tp) {
 1802ff4:	defff904 	addi	sp,sp,-28
 1802ff8:	dfc00615 	stw	ra,24(sp)
 1802ffc:	df000515 	stw	fp,20(sp)
 1803000:	df000504 	addi	fp,sp,20
 1803004:	e13ffe15 	stw	r4,-8(fp)
static ALT_INLINE alt_irq_context ALT_ALWAYS_INLINE 
       alt_irq_disable_all (void)
{
  alt_irq_context context;

  NIOS2_READ_STATUS (context);
 1803008:	0005303a 	rdctl	r2,status
 180300c:	e0bffc15 	stw	r2,-16(fp)

  NIOS2_WRITE_STATUS (context & ~NIOS2_STATUS_PIE_MSK);
 1803010:	e0fffc17 	ldw	r3,-16(fp)
 1803014:	00bfff84 	movi	r2,-2
 1803018:	1884703a 	and	r2,r3,r2
 180301c:	1001703a 	wrctl	status,r2
  trefs_t refs;

  chSysLock();
  chDbgAssert(tp->p_refs > 0, "chThdRelease(), #1", "not referenced");
  refs = --tp->p_refs;
 1803020:	e0bffe17 	ldw	r2,-8(fp)
 1803024:	10800783 	ldbu	r2,30(r2)
 1803028:	10bfffc4 	addi	r2,r2,-1
 180302c:	1007883a 	mov	r3,r2
 1803030:	e0bffe17 	ldw	r2,-8(fp)
 1803034:	10c00785 	stb	r3,30(r2)
 1803038:	e0bffe17 	ldw	r2,-8(fp)
 180303c:	10800783 	ldbu	r2,30(r2)
 1803040:	e0bffd05 	stb	r2,-12(fp)
 1803044:	00800044 	movi	r2,1
 1803048:	e0bffb15 	stw	r2,-20(fp)
  status &= ~NIOS2_STATUS_PIE_MSK;
  status |= (context & NIOS2_STATUS_PIE_MSK);
  
  NIOS2_WRITE_STATUS (status);
#else
  NIOS2_WRITE_STATUS (context);
 180304c:	e0bffb17 	ldw	r2,-20(fp)
 1803050:	1001703a 	wrctl	status,r2
  chSysUnlock();

  /* If the references counter reaches zero and the thread is in its
     terminated state then the memory can be returned to the proper
     allocator. Of course static threads are not affected.*/
  if ((refs == 0) && (tp->p_state == THD_STATE_FINAL)) {
 1803054:	e0bffd03 	ldbu	r2,-12(fp)
 1803058:	1004c03a 	cmpne	r2,r2,zero
 180305c:	10002d1e 	bne	r2,zero,1803114 <chThdRelease+0x120>
 1803060:	e0bffe17 	ldw	r2,-8(fp)
 1803064:	10800703 	ldbu	r2,28(r2)
 1803068:	10803fcc 	andi	r2,r2,255
 180306c:	10800398 	cmpnei	r2,r2,14
 1803070:	1000281e 	bne	r2,zero,1803114 <chThdRelease+0x120>
    switch (tp->p_flags & THD_MEM_MODE_MASK) {
 1803074:	e0bffe17 	ldw	r2,-8(fp)
 1803078:	10800743 	ldbu	r2,29(r2)
 180307c:	10803fcc 	andi	r2,r2,255
 1803080:	108000cc 	andi	r2,r2,3
 1803084:	e0bfff15 	stw	r2,-4(fp)
 1803088:	e0ffff17 	ldw	r3,-4(fp)
 180308c:	18800060 	cmpeqi	r2,r3,1
 1803090:	1000041e 	bne	r2,zero,18030a4 <chThdRelease+0xb0>
 1803094:	e0ffff17 	ldw	r3,-4(fp)
 1803098:	188000a0 	cmpeqi	r2,r3,2
 180309c:	10000e1e 	bne	r2,zero,18030d8 <chThdRelease+0xe4>
 18030a0:	00001c06 	br	1803114 <chThdRelease+0x120>
#if CH_USE_HEAP
    case THD_MEM_MODE_HEAP:
#if CH_USE_REGISTRY
      REG_REMOVE(tp);
 18030a4:	e0bffe17 	ldw	r2,-8(fp)
 18030a8:	10c00517 	ldw	r3,20(r2)
 18030ac:	e0bffe17 	ldw	r2,-8(fp)
 18030b0:	10800417 	ldw	r2,16(r2)
 18030b4:	18800415 	stw	r2,16(r3)
 18030b8:	e0bffe17 	ldw	r2,-8(fp)
 18030bc:	10c00417 	ldw	r3,16(r2)
 18030c0:	e0bffe17 	ldw	r2,-8(fp)
 18030c4:	10800517 	ldw	r2,20(r2)
 18030c8:	18800515 	stw	r2,20(r3)
#endif
      chHeapFree(tp);
 18030cc:	e13ffe17 	ldw	r4,-8(fp)
 18030d0:	18035580 	call	1803558 <chHeapFree>
      break;
 18030d4:	00000f06 	br	1803114 <chThdRelease+0x120>
#endif
#if CH_USE_MEMPOOLS
    case THD_MEM_MODE_MEMPOOL:
#if CH_USE_REGISTRY
      REG_REMOVE(tp);
 18030d8:	e0bffe17 	ldw	r2,-8(fp)
 18030dc:	10c00517 	ldw	r3,20(r2)
 18030e0:	e0bffe17 	ldw	r2,-8(fp)
 18030e4:	10800417 	ldw	r2,16(r2)
 18030e8:	18800415 	stw	r2,16(r3)
 18030ec:	e0bffe17 	ldw	r2,-8(fp)
 18030f0:	10c00417 	ldw	r3,16(r2)
 18030f4:	e0bffe17 	ldw	r2,-8(fp)
 18030f8:	10800517 	ldw	r2,20(r2)
 18030fc:	18800515 	stw	r2,20(r3)
#endif
      chPoolFree(tp->p_mpool, tp);
 1803100:	e0bffe17 	ldw	r2,-8(fp)
 1803104:	10801117 	ldw	r2,68(r2)
 1803108:	1009883a 	mov	r4,r2
 180310c:	e17ffe17 	ldw	r5,-8(fp)
 1803110:	1803aa00 	call	1803aa0 <chPoolFree>
      break;
#endif
    }
  }
}
 1803114:	e037883a 	mov	sp,fp
 1803118:	dfc00117 	ldw	ra,4(sp)
 180311c:	df000017 	ldw	fp,0(sp)
 1803120:	dec00204 	addi	sp,sp,8
 1803124:	f800283a 	ret

01803128 <chThdCreateFromHeap>:
 * @retval NULL         if the memory cannot be allocated.
 *
 * @api
 */
Thread *chThdCreateFromHeap(MemoryHeap *heapp, size_t size,
                            tprio_t prio, tfunc_t pf, void *arg) {
 1803128:	defff404 	addi	sp,sp,-48
 180312c:	dfc00b15 	stw	ra,44(sp)
 1803130:	df000a15 	stw	fp,40(sp)
 1803134:	df000a04 	addi	fp,sp,40
 1803138:	e13ffb15 	stw	r4,-20(fp)
 180313c:	e17ffc15 	stw	r5,-16(fp)
 1803140:	e1bffd15 	stw	r6,-12(fp)
 1803144:	e1fffe15 	stw	r7,-8(fp)
  void *wsp;
  Thread *tp;

  wsp = chHeapAlloc(heapp, size);
 1803148:	e13ffb17 	ldw	r4,-20(fp)
 180314c:	e17ffc17 	ldw	r5,-16(fp)
 1803150:	18033a00 	call	18033a0 <chHeapAlloc>
 1803154:	e0bffa15 	stw	r2,-24(fp)
  if (wsp == NULL)
 1803158:	e0bffa17 	ldw	r2,-24(fp)
 180315c:	1004c03a 	cmpne	r2,r2,zero
 1803160:	1000021e 	bne	r2,zero,180316c <chThdCreateFromHeap+0x44>
    return NULL;
 1803164:	e03fff15 	stw	zero,-4(fp)
 1803168:	00001a06 	br	18031d4 <chThdCreateFromHeap+0xac>
static ALT_INLINE alt_irq_context ALT_ALWAYS_INLINE 
       alt_irq_disable_all (void)
{
  alt_irq_context context;

  NIOS2_READ_STATUS (context);
 180316c:	0005303a 	rdctl	r2,status
 1803170:	e0bff815 	stw	r2,-32(fp)

  NIOS2_WRITE_STATUS (context & ~NIOS2_STATUS_PIE_MSK);
 1803174:	e0fff817 	ldw	r3,-32(fp)
 1803178:	00bfff84 	movi	r2,-2
 180317c:	1884703a 	and	r2,r3,r2
 1803180:	1001703a 	wrctl	status,r2
                  (uint8_t *)wsp + size,
                  CH_STACK_FILL_VALUE);
#endif
  
  chSysLock();
  tp = chThdCreateI(wsp, size, prio, pf, arg);
 1803184:	e0800217 	ldw	r2,8(fp)
 1803188:	d8800015 	stw	r2,0(sp)
 180318c:	e13ffa17 	ldw	r4,-24(fp)
 1803190:	e17ffc17 	ldw	r5,-16(fp)
 1803194:	e1bffd17 	ldw	r6,-12(fp)
 1803198:	e1fffe17 	ldw	r7,-8(fp)
 180319c:	1800aec0 	call	1800aec <chThdCreateI>
 18031a0:	e0bff915 	stw	r2,-28(fp)
  tp->p_flags = THD_MEM_MODE_HEAP;
 18031a4:	e0fff917 	ldw	r3,-28(fp)
 18031a8:	00800044 	movi	r2,1
 18031ac:	18800745 	stb	r2,29(r3)
  chSchWakeupS(tp, RDY_OK);
 18031b0:	e13ff917 	ldw	r4,-28(fp)
 18031b4:	000b883a 	mov	r5,zero
 18031b8:	180463c0 	call	180463c <chSchWakeupS>
 18031bc:	00800044 	movi	r2,1
 18031c0:	e0bff715 	stw	r2,-36(fp)
  status &= ~NIOS2_STATUS_PIE_MSK;
  status |= (context & NIOS2_STATUS_PIE_MSK);
  
  NIOS2_WRITE_STATUS (status);
#else
  NIOS2_WRITE_STATUS (context);
 18031c4:	e0bff717 	ldw	r2,-36(fp)
 18031c8:	1001703a 	wrctl	status,r2
  chSysUnlock();
  return tp;
 18031cc:	e0bff917 	ldw	r2,-28(fp)
 18031d0:	e0bfff15 	stw	r2,-4(fp)
 18031d4:	e0bfff17 	ldw	r2,-4(fp)
}
 18031d8:	e037883a 	mov	sp,fp
 18031dc:	dfc00117 	ldw	ra,4(sp)
 18031e0:	df000017 	ldw	fp,0(sp)
 18031e4:	dec00204 	addi	sp,sp,8
 18031e8:	f800283a 	ret

018031ec <chThdCreateFromMemoryPool>:
 * @retval  NULL        if the memory pool is empty.
 *
 * @api
 */
Thread *chThdCreateFromMemoryPool(MemoryPool *mp, tprio_t prio,
                                  tfunc_t pf, void *arg) {
 18031ec:	defff404 	addi	sp,sp,-48
 18031f0:	dfc00b15 	stw	ra,44(sp)
 18031f4:	df000a15 	stw	fp,40(sp)
 18031f8:	df000a04 	addi	fp,sp,40
 18031fc:	e13ffb15 	stw	r4,-20(fp)
 1803200:	e17ffc15 	stw	r5,-16(fp)
 1803204:	e1bffd15 	stw	r6,-12(fp)
 1803208:	e1fffe15 	stw	r7,-8(fp)
  void *wsp;
  Thread *tp;

  chDbgCheck(mp != NULL, "chThdCreateFromMemoryPool");

  wsp = chPoolAlloc(mp);
 180320c:	e13ffb17 	ldw	r4,-20(fp)
 1803210:	18039e00 	call	18039e0 <chPoolAlloc>
 1803214:	e0bffa15 	stw	r2,-24(fp)
  if (wsp == NULL)
 1803218:	e0bffa17 	ldw	r2,-24(fp)
 180321c:	1004c03a 	cmpne	r2,r2,zero
 1803220:	1000021e 	bne	r2,zero,180322c <chThdCreateFromMemoryPool+0x40>
    return NULL;
 1803224:	e03fff15 	stw	zero,-4(fp)
 1803228:	00001e06 	br	18032a4 <chThdCreateFromMemoryPool+0xb8>
static ALT_INLINE alt_irq_context ALT_ALWAYS_INLINE 
       alt_irq_disable_all (void)
{
  alt_irq_context context;

  NIOS2_READ_STATUS (context);
 180322c:	0005303a 	rdctl	r2,status
 1803230:	e0bff815 	stw	r2,-32(fp)

  NIOS2_WRITE_STATUS (context & ~NIOS2_STATUS_PIE_MSK);
 1803234:	e0fff817 	ldw	r3,-32(fp)
 1803238:	00bfff84 	movi	r2,-2
 180323c:	1884703a 	and	r2,r3,r2
 1803240:	1001703a 	wrctl	status,r2
                  (uint8_t *)wsp + mp->mp_object_size,
                  CH_STACK_FILL_VALUE);
#endif

  chSysLock();
  tp = chThdCreateI(wsp, mp->mp_object_size, prio, pf, arg);
 1803244:	e0bffb17 	ldw	r2,-20(fp)
 1803248:	11400117 	ldw	r5,4(r2)
 180324c:	e0bffe17 	ldw	r2,-8(fp)
 1803250:	d8800015 	stw	r2,0(sp)
 1803254:	e13ffa17 	ldw	r4,-24(fp)
 1803258:	e1bffc17 	ldw	r6,-16(fp)
 180325c:	e1fffd17 	ldw	r7,-12(fp)
 1803260:	1800aec0 	call	1800aec <chThdCreateI>
 1803264:	e0bff915 	stw	r2,-28(fp)
  tp->p_flags = THD_MEM_MODE_MEMPOOL;
 1803268:	e0fff917 	ldw	r3,-28(fp)
 180326c:	00800084 	movi	r2,2
 1803270:	18800745 	stb	r2,29(r3)
  tp->p_mpool = mp;
 1803274:	e0fff917 	ldw	r3,-28(fp)
 1803278:	e0bffb17 	ldw	r2,-20(fp)
 180327c:	18801115 	stw	r2,68(r3)
  chSchWakeupS(tp, RDY_OK);
 1803280:	e13ff917 	ldw	r4,-28(fp)
 1803284:	000b883a 	mov	r5,zero
 1803288:	180463c0 	call	180463c <chSchWakeupS>
 180328c:	00800044 	movi	r2,1
 1803290:	e0bff715 	stw	r2,-36(fp)
  status &= ~NIOS2_STATUS_PIE_MSK;
  status |= (context & NIOS2_STATUS_PIE_MSK);
  
  NIOS2_WRITE_STATUS (status);
#else
  NIOS2_WRITE_STATUS (context);
 1803294:	e0bff717 	ldw	r2,-36(fp)
 1803298:	1001703a 	wrctl	status,r2
  chSysUnlock();
  return tp;
 180329c:	e0bff917 	ldw	r2,-28(fp)
 18032a0:	e0bfff15 	stw	r2,-4(fp)
 18032a4:	e0bfff17 	ldw	r2,-4(fp)
}
 18032a8:	e037883a 	mov	sp,fp
 18032ac:	dfc00117 	ldw	ra,4(sp)
 18032b0:	df000017 	ldw	fp,0(sp)
 18032b4:	dec00204 	addi	sp,sp,8
 18032b8:	f800283a 	ret

018032bc <_heap_init>:
/**
 * @brief   Initializes the default heap.
 *
 * @notapi
 */
void _heap_init(void) {
 18032bc:	defffe04 	addi	sp,sp,-8
 18032c0:	dfc00115 	stw	ra,4(sp)
 18032c4:	df000015 	stw	fp,0(sp)
 18032c8:	d839883a 	mov	fp,sp
  default_heap.h_provider = chCoreAlloc;
 18032cc:	00c06074 	movhi	r3,385
 18032d0:	18f2aa04 	addi	r3,r3,-13656
 18032d4:	00806034 	movhi	r2,384
 18032d8:	108dfd04 	addi	r2,r2,14324
 18032dc:	18800015 	stw	r2,0(r3)
  default_heap.h_free.h.u.next = (union heap_header *)NULL;
 18032e0:	00806074 	movhi	r2,385
 18032e4:	10b2aa04 	addi	r2,r2,-13656
 18032e8:	10000115 	stw	zero,4(r2)
  default_heap.h_free.h.size = 0;
 18032ec:	00806074 	movhi	r2,385
 18032f0:	10b2aa04 	addi	r2,r2,-13656
 18032f4:	10000215 	stw	zero,8(r2)
#if CH_USE_MUTEXES || defined(__DOXYGEN__)
  chMtxInit(&default_heap.h_mtx);
 18032f8:	01006074 	movhi	r4,385
 18032fc:	2132ad04 	addi	r4,r4,-13644
 1803300:	1803b000 	call	1803b00 <chMtxInit>
#else
  chSemInit(&default_heap.h_sem, 1);
#endif
}
 1803304:	e037883a 	mov	sp,fp
 1803308:	dfc00117 	ldw	ra,4(sp)
 180330c:	df000017 	ldw	fp,0(sp)
 1803310:	dec00204 	addi	sp,sp,8
 1803314:	f800283a 	ret

01803318 <chHeapInit>:
 * @param[in] buf       heap buffer base
 * @param[in] size      heap size
 *
 * @init
 */
void chHeapInit(MemoryHeap *heapp, void *buf, size_t size) {
 1803318:	defffa04 	addi	sp,sp,-24
 180331c:	dfc00515 	stw	ra,20(sp)
 1803320:	df000415 	stw	fp,16(sp)
 1803324:	df000404 	addi	fp,sp,16
 1803328:	e13ffd15 	stw	r4,-12(fp)
 180332c:	e17ffe15 	stw	r5,-8(fp)
 1803330:	e1bfff15 	stw	r6,-4(fp)
  union heap_header *hp;

  chDbgCheck(MEM_IS_ALIGNED(buf) && MEM_IS_ALIGNED(size), "chHeapInit");
 1803334:	e0bffe17 	ldw	r2,-8(fp)
 1803338:	108000cc 	andi	r2,r2,3
 180333c:	1004c03a 	cmpne	r2,r2,zero
 1803340:	1000001e 	bne	r2,zero,1803344 <chHeapInit+0x2c>

  heapp->h_provider = (memgetfunc_t)NULL;
 1803344:	e0bffd17 	ldw	r2,-12(fp)
 1803348:	10000015 	stw	zero,0(r2)
  heapp->h_free.h.u.next = hp = buf;
 180334c:	e0bffe17 	ldw	r2,-8(fp)
 1803350:	e0bffc15 	stw	r2,-16(fp)
 1803354:	e0fffd17 	ldw	r3,-12(fp)
 1803358:	e0bffc17 	ldw	r2,-16(fp)
 180335c:	18800115 	stw	r2,4(r3)
  heapp->h_free.h.size = 0;
 1803360:	e0bffd17 	ldw	r2,-12(fp)
 1803364:	10000215 	stw	zero,8(r2)
  hp->h.u.next = NULL;
 1803368:	e0bffc17 	ldw	r2,-16(fp)
 180336c:	10000015 	stw	zero,0(r2)
  hp->h.size = size - sizeof(union heap_header);
 1803370:	e0bfff17 	ldw	r2,-4(fp)
 1803374:	10fffe04 	addi	r3,r2,-8
 1803378:	e0bffc17 	ldw	r2,-16(fp)
 180337c:	10c00115 	stw	r3,4(r2)
#if CH_USE_MUTEXES || defined(__DOXYGEN__)
  chMtxInit(&heapp->h_mtx);
 1803380:	e0bffd17 	ldw	r2,-12(fp)
 1803384:	11000304 	addi	r4,r2,12
 1803388:	1803b000 	call	1803b00 <chMtxInit>
#else
  chSemInit(&heapp->h_sem, 1);
#endif
}
 180338c:	e037883a 	mov	sp,fp
 1803390:	dfc00117 	ldw	ra,4(sp)
 1803394:	df000017 	ldw	fp,0(sp)
 1803398:	dec00204 	addi	sp,sp,8
 180339c:	f800283a 	ret

018033a0 <chHeapAlloc>:
 * @return              A pointer to the allocated block.
 * @retval NULL         if the block cannot be allocated.
 *
 * @api
 */
void *chHeapAlloc(MemoryHeap *heapp, size_t size) {
 18033a0:	defff804 	addi	sp,sp,-32
 18033a4:	dfc00715 	stw	ra,28(sp)
 18033a8:	df000615 	stw	fp,24(sp)
 18033ac:	df000604 	addi	fp,sp,24
 18033b0:	e13ffd15 	stw	r4,-12(fp)
 18033b4:	e17ffe15 	stw	r5,-8(fp)
  union heap_header *qp, *hp, *fp;

  if (heapp == NULL)
 18033b8:	e0bffd17 	ldw	r2,-12(fp)
 18033bc:	1004c03a 	cmpne	r2,r2,zero
 18033c0:	1000031e 	bne	r2,zero,18033d0 <chHeapAlloc+0x30>
    heapp = &default_heap;
 18033c4:	00806074 	movhi	r2,385
 18033c8:	10b2aa04 	addi	r2,r2,-13656
 18033cc:	e0bffd15 	stw	r2,-12(fp)

  size = MEM_ALIGN_NEXT(size);
 18033d0:	e0bffe17 	ldw	r2,-8(fp)
 18033d4:	10c000c4 	addi	r3,r2,3
 18033d8:	00bfff04 	movi	r2,-4
 18033dc:	1884703a 	and	r2,r3,r2
 18033e0:	e0bffe15 	stw	r2,-8(fp)
  qp = &heapp->h_free;
 18033e4:	e0bffd17 	ldw	r2,-12(fp)
 18033e8:	10800104 	addi	r2,r2,4
 18033ec:	e0bffc15 	stw	r2,-16(fp)
  H_LOCK(heapp);
 18033f0:	e0bffd17 	ldw	r2,-12(fp)
 18033f4:	11000304 	addi	r4,r2,12
 18033f8:	1803b480 	call	1803b48 <chMtxLock>

  while (qp->h.u.next != NULL) {
 18033fc:	00003106 	br	18034c4 <chHeapAlloc+0x124>
    hp = qp->h.u.next;
 1803400:	e0bffc17 	ldw	r2,-16(fp)
 1803404:	10800017 	ldw	r2,0(r2)
 1803408:	e0bffb15 	stw	r2,-20(fp)
    if (hp->h.size >= size) {
 180340c:	e0bffb17 	ldw	r2,-20(fp)
 1803410:	10c00117 	ldw	r3,4(r2)
 1803414:	e0bffe17 	ldw	r2,-8(fp)
 1803418:	18802836 	bltu	r3,r2,18034bc <chHeapAlloc+0x11c>
      if (hp->h.size < size + sizeof(union heap_header)) {
 180341c:	e0bffb17 	ldw	r2,-20(fp)
 1803420:	10c00117 	ldw	r3,4(r2)
 1803424:	e0bffe17 	ldw	r2,-8(fp)
 1803428:	10800204 	addi	r2,r2,8
 180342c:	1880052e 	bgeu	r3,r2,1803444 <chHeapAlloc+0xa4>
        /* Gets the whole block even if it is slightly bigger than the
           requested size because the fragment would be too small to be
           useful.*/
        qp->h.u.next = hp->h.u.next;
 1803430:	e0bffb17 	ldw	r2,-20(fp)
 1803434:	10c00017 	ldw	r3,0(r2)
 1803438:	e0bffc17 	ldw	r2,-16(fp)
 180343c:	10c00015 	stw	r3,0(r2)
 1803440:	00001606 	br	180349c <chHeapAlloc+0xfc>
      }
      else {
        /* Block bigger enough, must split it.*/
        fp = (void *)((uint8_t *)(hp) + sizeof(union heap_header) + size);
 1803444:	e0fffb17 	ldw	r3,-20(fp)
 1803448:	e0bffe17 	ldw	r2,-8(fp)
 180344c:	1885883a 	add	r2,r3,r2
 1803450:	10800204 	addi	r2,r2,8
 1803454:	e0bffa15 	stw	r2,-24(fp)
        fp->h.u.next = hp->h.u.next;
 1803458:	e0bffb17 	ldw	r2,-20(fp)
 180345c:	10c00017 	ldw	r3,0(r2)
 1803460:	e0bffa17 	ldw	r2,-24(fp)
 1803464:	10c00015 	stw	r3,0(r2)
        fp->h.size = hp->h.size - sizeof(union heap_header) - size;
 1803468:	e0bffb17 	ldw	r2,-20(fp)
 180346c:	10c00117 	ldw	r3,4(r2)
 1803470:	e0bffe17 	ldw	r2,-8(fp)
 1803474:	1885c83a 	sub	r2,r3,r2
 1803478:	10fffe04 	addi	r3,r2,-8
 180347c:	e0bffa17 	ldw	r2,-24(fp)
 1803480:	10c00115 	stw	r3,4(r2)
        qp->h.u.next = fp;
 1803484:	e0fffc17 	ldw	r3,-16(fp)
 1803488:	e0bffa17 	ldw	r2,-24(fp)
 180348c:	18800015 	stw	r2,0(r3)
        hp->h.size = size;
 1803490:	e0fffb17 	ldw	r3,-20(fp)
 1803494:	e0bffe17 	ldw	r2,-8(fp)
 1803498:	18800115 	stw	r2,4(r3)
      }
      hp->h.u.heap = heapp;
 180349c:	e0bffb17 	ldw	r2,-20(fp)
 18034a0:	e0fffd17 	ldw	r3,-12(fp)
 18034a4:	10c00015 	stw	r3,0(r2)

      H_UNLOCK(heapp);
 18034a8:	1803ec80 	call	1803ec8 <chMtxUnlock>
      return (void *)(hp + 1);
 18034ac:	e0bffb17 	ldw	r2,-20(fp)
 18034b0:	10800204 	addi	r2,r2,8
 18034b4:	e0bfff15 	stw	r2,-4(fp)
 18034b8:	00002106 	br	1803540 <chHeapAlloc+0x1a0>
    }
    qp = hp;
 18034bc:	e0bffb17 	ldw	r2,-20(fp)
 18034c0:	e0bffc15 	stw	r2,-16(fp)

  size = MEM_ALIGN_NEXT(size);
  qp = &heapp->h_free;
  H_LOCK(heapp);

  while (qp->h.u.next != NULL) {
 18034c4:	e0bffc17 	ldw	r2,-16(fp)
 18034c8:	10800017 	ldw	r2,0(r2)
 18034cc:	1004c03a 	cmpne	r2,r2,zero
 18034d0:	103fcb1e 	bne	r2,zero,1803400 <chHeapAlloc+0x60>
      return (void *)(hp + 1);
    }
    qp = hp;
  }

  H_UNLOCK(heapp);
 18034d4:	1803ec80 	call	1803ec8 <chMtxUnlock>

  /* More memory is required, tries to get it from the associated provider
     else fails.*/
  if (heapp->h_provider) {
 18034d8:	e0bffd17 	ldw	r2,-12(fp)
 18034dc:	10800017 	ldw	r2,0(r2)
 18034e0:	1005003a 	cmpeq	r2,r2,zero
 18034e4:	1000151e 	bne	r2,zero,180353c <chHeapAlloc+0x19c>
    hp = heapp->h_provider(size + sizeof(union heap_header));
 18034e8:	e0bffd17 	ldw	r2,-12(fp)
 18034ec:	10c00017 	ldw	r3,0(r2)
 18034f0:	e0bffe17 	ldw	r2,-8(fp)
 18034f4:	11000204 	addi	r4,r2,8
 18034f8:	183ee83a 	callr	r3
 18034fc:	e0bffb15 	stw	r2,-20(fp)
    if (hp != NULL) {
 1803500:	e0bffb17 	ldw	r2,-20(fp)
 1803504:	1005003a 	cmpeq	r2,r2,zero
 1803508:	10000c1e 	bne	r2,zero,180353c <chHeapAlloc+0x19c>
      hp->h.u.heap = heapp;
 180350c:	e0fffb17 	ldw	r3,-20(fp)
 1803510:	e0bffd17 	ldw	r2,-12(fp)
 1803514:	18800015 	stw	r2,0(r3)
      hp->h.size = size;
 1803518:	e0fffb17 	ldw	r3,-20(fp)
 180351c:	e0bffe17 	ldw	r2,-8(fp)
 1803520:	18800115 	stw	r2,4(r3)
      hp++;
 1803524:	e0bffb17 	ldw	r2,-20(fp)
 1803528:	10800204 	addi	r2,r2,8
 180352c:	e0bffb15 	stw	r2,-20(fp)
      return (void *)hp;
 1803530:	e0bffb17 	ldw	r2,-20(fp)
 1803534:	e0bfff15 	stw	r2,-4(fp)
 1803538:	00000106 	br	1803540 <chHeapAlloc+0x1a0>
    }
  }
  return NULL;
 180353c:	e03fff15 	stw	zero,-4(fp)
 1803540:	e0bfff17 	ldw	r2,-4(fp)
}
 1803544:	e037883a 	mov	sp,fp
 1803548:	dfc00117 	ldw	ra,4(sp)
 180354c:	df000017 	ldw	fp,0(sp)
 1803550:	dec00204 	addi	sp,sp,8
 1803554:	f800283a 	ret

01803558 <chHeapFree>:
 *
 * @param[in] p         pointer to the memory block to be freed
 *
 * @api
 */
void chHeapFree(void *p) {
 1803558:	defffa04 	addi	sp,sp,-24
 180355c:	dfc00515 	stw	ra,20(sp)
 1803560:	df000415 	stw	fp,16(sp)
 1803564:	df000404 	addi	fp,sp,16
 1803568:	e13fff15 	stw	r4,-4(fp)
  union heap_header *qp, *hp;
  MemoryHeap *heapp;

  chDbgCheck(p != NULL, "chHeapFree");

  hp = (union heap_header *)p - 1;
 180356c:	e0bfff17 	ldw	r2,-4(fp)
 1803570:	10bffe04 	addi	r2,r2,-8
 1803574:	e0bffd15 	stw	r2,-12(fp)
  heapp = hp->h.u.heap;
 1803578:	e0bffd17 	ldw	r2,-12(fp)
 180357c:	10800017 	ldw	r2,0(r2)
 1803580:	e0bffc15 	stw	r2,-16(fp)
  qp = &heapp->h_free;
 1803584:	e0bffc17 	ldw	r2,-16(fp)
 1803588:	10800104 	addi	r2,r2,4
 180358c:	e0bffe15 	stw	r2,-8(fp)
  H_LOCK(heapp);
 1803590:	e0bffc17 	ldw	r2,-16(fp)
 1803594:	11000304 	addi	r4,r2,12
 1803598:	1803b480 	call	1803b48 <chMtxLock>

  while (TRUE) {
    chDbgAssert((hp < qp) || (hp >= LIMIT(qp)),
 180359c:	e0fffd17 	ldw	r3,-12(fp)
 18035a0:	e0bffe17 	ldw	r2,-8(fp)
 18035a4:	18800036 	bltu	r3,r2,18035a8 <chHeapFree+0x50>
                "chHeapFree(), #1",
                "within free block");

    if (((qp == &heapp->h_free) || (hp > qp)) &&
 18035a8:	e0bffc17 	ldw	r2,-16(fp)
 18035ac:	10c00104 	addi	r3,r2,4
 18035b0:	e0bffe17 	ldw	r2,-8(fp)
 18035b4:	18800326 	beq	r3,r2,18035c4 <chHeapFree+0x6c>
 18035b8:	e0fffd17 	ldw	r3,-12(fp)
 18035bc:	e0bffe17 	ldw	r2,-8(fp)
 18035c0:	10c03e2e 	bgeu	r2,r3,18036bc <chHeapFree+0x164>
 18035c4:	e0bffe17 	ldw	r2,-8(fp)
 18035c8:	10800017 	ldw	r2,0(r2)
 18035cc:	1005003a 	cmpeq	r2,r2,zero
 18035d0:	1000041e 	bne	r2,zero,18035e4 <chHeapFree+0x8c>
 18035d4:	e0bffe17 	ldw	r2,-8(fp)
 18035d8:	10c00017 	ldw	r3,0(r2)
 18035dc:	e0bffd17 	ldw	r2,-12(fp)
 18035e0:	10c0362e 	bgeu	r2,r3,18036bc <chHeapFree+0x164>
        ((qp->h.u.next == NULL) || (hp < qp->h.u.next))) {
      /* Insertion after qp.*/
      hp->h.u.next = qp->h.u.next;
 18035e4:	e0bffe17 	ldw	r2,-8(fp)
 18035e8:	10c00017 	ldw	r3,0(r2)
 18035ec:	e0bffd17 	ldw	r2,-12(fp)
 18035f0:	10c00015 	stw	r3,0(r2)
      qp->h.u.next = hp;
 18035f4:	e0fffe17 	ldw	r3,-8(fp)
 18035f8:	e0bffd17 	ldw	r2,-12(fp)
 18035fc:	18800015 	stw	r2,0(r3)
      /* Verifies if the newly inserted block should be merged.*/
      if (LIMIT(hp) == hp->h.u.next) {
 1803600:	e0bffd17 	ldw	r2,-12(fp)
 1803604:	10800117 	ldw	r2,4(r2)
 1803608:	1007883a 	mov	r3,r2
 180360c:	e0bffd17 	ldw	r2,-12(fp)
 1803610:	1885883a 	add	r2,r3,r2
 1803614:	10800204 	addi	r2,r2,8
 1803618:	1007883a 	mov	r3,r2
 180361c:	e0bffd17 	ldw	r2,-12(fp)
 1803620:	10800017 	ldw	r2,0(r2)
 1803624:	18800e1e 	bne	r3,r2,1803660 <chHeapFree+0x108>
        /* Merge with the next block.*/
        hp->h.size += hp->h.u.next->h.size + sizeof(union heap_header);
 1803628:	e0bffd17 	ldw	r2,-12(fp)
 180362c:	10c00117 	ldw	r3,4(r2)
 1803630:	e0bffd17 	ldw	r2,-12(fp)
 1803634:	10800017 	ldw	r2,0(r2)
 1803638:	10800117 	ldw	r2,4(r2)
 180363c:	1885883a 	add	r2,r3,r2
 1803640:	10c00204 	addi	r3,r2,8
 1803644:	e0bffd17 	ldw	r2,-12(fp)
 1803648:	10c00115 	stw	r3,4(r2)
        hp->h.u.next = hp->h.u.next->h.u.next;
 180364c:	e0bffd17 	ldw	r2,-12(fp)
 1803650:	10800017 	ldw	r2,0(r2)
 1803654:	10c00017 	ldw	r3,0(r2)
 1803658:	e0bffd17 	ldw	r2,-12(fp)
 180365c:	10c00015 	stw	r3,0(r2)
      }
      if ((LIMIT(qp) == hp)) {
 1803660:	e0bffe17 	ldw	r2,-8(fp)
 1803664:	10800117 	ldw	r2,4(r2)
 1803668:	1007883a 	mov	r3,r2
 180366c:	e0bffe17 	ldw	r2,-8(fp)
 1803670:	1885883a 	add	r2,r3,r2
 1803674:	10800204 	addi	r2,r2,8
 1803678:	1007883a 	mov	r3,r2
 180367c:	e0bffd17 	ldw	r2,-12(fp)
 1803680:	18800c1e 	bne	r3,r2,18036b4 <chHeapFree+0x15c>
        /* Merge with the previous block.*/
        qp->h.size += hp->h.size + sizeof(union heap_header);
 1803684:	e0bffe17 	ldw	r2,-8(fp)
 1803688:	10c00117 	ldw	r3,4(r2)
 180368c:	e0bffd17 	ldw	r2,-12(fp)
 1803690:	10800117 	ldw	r2,4(r2)
 1803694:	1885883a 	add	r2,r3,r2
 1803698:	10c00204 	addi	r3,r2,8
 180369c:	e0bffe17 	ldw	r2,-8(fp)
 18036a0:	10c00115 	stw	r3,4(r2)
        qp->h.u.next = hp->h.u.next;
 18036a4:	e0bffd17 	ldw	r2,-12(fp)
 18036a8:	10c00017 	ldw	r3,0(r2)
 18036ac:	e0bffe17 	ldw	r2,-8(fp)
 18036b0:	10c00015 	stw	r3,0(r2)
      break;
    }
    qp = qp->h.u.next;
  }

  H_UNLOCK(heapp);
 18036b4:	1803ec80 	call	1803ec8 <chMtxUnlock>
 18036b8:	00000406 	br	18036cc <chHeapFree+0x174>
        qp->h.size += hp->h.size + sizeof(union heap_header);
        qp->h.u.next = hp->h.u.next;
      }
      break;
    }
    qp = qp->h.u.next;
 18036bc:	e0bffe17 	ldw	r2,-8(fp)
 18036c0:	10800017 	ldw	r2,0(r2)
 18036c4:	e0bffe15 	stw	r2,-8(fp)
  }
 18036c8:	003fb406 	br	180359c <chHeapFree+0x44>

  H_UNLOCK(heapp);
  return;
}
 18036cc:	e037883a 	mov	sp,fp
 18036d0:	dfc00117 	ldw	ra,4(sp)
 18036d4:	df000017 	ldw	fp,0(sp)
 18036d8:	dec00204 	addi	sp,sp,8
 18036dc:	f800283a 	ret

018036e0 <chHeapStatus>:
 *                      fragmented free space
 * @return              The number of fragments in the heap.
 *
 * @api
 */
size_t chHeapStatus(MemoryHeap *heapp, size_t *sizep) {
 18036e0:	defff904 	addi	sp,sp,-28
 18036e4:	dfc00615 	stw	ra,24(sp)
 18036e8:	df000515 	stw	fp,20(sp)
 18036ec:	df000504 	addi	fp,sp,20
 18036f0:	e13ffe15 	stw	r4,-8(fp)
 18036f4:	e17fff15 	stw	r5,-4(fp)
  union heap_header *qp;
  size_t n, sz;

  if (heapp == NULL)
 18036f8:	e0bffe17 	ldw	r2,-8(fp)
 18036fc:	1004c03a 	cmpne	r2,r2,zero
 1803700:	1000031e 	bne	r2,zero,1803710 <chHeapStatus+0x30>
    heapp = &default_heap;
 1803704:	00806074 	movhi	r2,385
 1803708:	10b2aa04 	addi	r2,r2,-13656
 180370c:	e0bffe15 	stw	r2,-8(fp)

  H_LOCK(heapp);
 1803710:	e0bffe17 	ldw	r2,-8(fp)
 1803714:	11000304 	addi	r4,r2,12
 1803718:	1803b480 	call	1803b48 <chMtxLock>

  sz = 0;
 180371c:	e03ffb15 	stw	zero,-20(fp)
  for (n = 0, qp = &heapp->h_free; qp->h.u.next; n++, qp = qp->h.u.next)
 1803720:	e03ffc15 	stw	zero,-16(fp)
 1803724:	e0bffe17 	ldw	r2,-8(fp)
 1803728:	10800104 	addi	r2,r2,4
 180372c:	e0bffd15 	stw	r2,-12(fp)
 1803730:	00000c06 	br	1803764 <chHeapStatus+0x84>
    sz += qp->h.u.next->h.size;
 1803734:	e0bffd17 	ldw	r2,-12(fp)
 1803738:	10800017 	ldw	r2,0(r2)
 180373c:	10c00117 	ldw	r3,4(r2)
 1803740:	e0bffb17 	ldw	r2,-20(fp)
 1803744:	10c5883a 	add	r2,r2,r3
 1803748:	e0bffb15 	stw	r2,-20(fp)
    heapp = &default_heap;

  H_LOCK(heapp);

  sz = 0;
  for (n = 0, qp = &heapp->h_free; qp->h.u.next; n++, qp = qp->h.u.next)
 180374c:	e0bffc17 	ldw	r2,-16(fp)
 1803750:	10800044 	addi	r2,r2,1
 1803754:	e0bffc15 	stw	r2,-16(fp)
 1803758:	e0bffd17 	ldw	r2,-12(fp)
 180375c:	10800017 	ldw	r2,0(r2)
 1803760:	e0bffd15 	stw	r2,-12(fp)
 1803764:	e0bffd17 	ldw	r2,-12(fp)
 1803768:	10800017 	ldw	r2,0(r2)
 180376c:	1004c03a 	cmpne	r2,r2,zero
 1803770:	103ff01e 	bne	r2,zero,1803734 <chHeapStatus+0x54>
    sz += qp->h.u.next->h.size;
  if (sizep)
 1803774:	e0bfff17 	ldw	r2,-4(fp)
 1803778:	1005003a 	cmpeq	r2,r2,zero
 180377c:	1000031e 	bne	r2,zero,180378c <chHeapStatus+0xac>
    *sizep = sz;
 1803780:	e0ffff17 	ldw	r3,-4(fp)
 1803784:	e0bffb17 	ldw	r2,-20(fp)
 1803788:	18800015 	stw	r2,0(r3)

  H_UNLOCK(heapp);
 180378c:	1803ec80 	call	1803ec8 <chMtxUnlock>
  return n;
 1803790:	e0bffc17 	ldw	r2,-16(fp)
}
 1803794:	e037883a 	mov	sp,fp
 1803798:	dfc00117 	ldw	ra,4(sp)
 180379c:	df000017 	ldw	fp,0(sp)
 18037a0:	dec00204 	addi	sp,sp,8
 18037a4:	f800283a 	ret

018037a8 <_core_init>:
/**
 * @brief   Low level memory manager initialization.
 *
 * @notapi
 */
void _core_init(void) {
 18037a8:	deffff04 	addi	sp,sp,-4
 18037ac:	df000015 	stw	fp,0(sp)
 18037b0:	d839883a 	mov	fp,sp
#if CH_MEMCORE_SIZE == 0
  extern uint8_t __heap_base__[];
  extern uint8_t __heap_end__[];
  nextmem = (uint8_t *)MEM_ALIGN_NEXT(__heap_base__);
 18037b4:	00806074 	movhi	r2,385
 18037b8:	10b3ed04 	addi	r2,r2,-12364
 18037bc:	10c000c4 	addi	r3,r2,3
 18037c0:	00bfff04 	movi	r2,-4
 18037c4:	1884703a 	and	r2,r3,r2
 18037c8:	d0a6d415 	stw	r2,-25776(gp)
  endmem = (uint8_t *)MEM_ALIGN_PREV(__heap_end__);
 18037cc:	00808034 	movhi	r2,512
 18037d0:	10800004 	addi	r2,r2,0
 18037d4:	1007883a 	mov	r3,r2
 18037d8:	00bfff04 	movi	r2,-4
 18037dc:	1884703a 	and	r2,r3,r2
 18037e0:	d0a6d515 	stw	r2,-25772(gp)
#else
  static stkalign_t buffer[MEM_ALIGN_NEXT(CH_MEMCORE_SIZE)/MEM_ALIGN_SIZE];
  nextmem = (uint8_t *)&buffer[0];
  endmem = (uint8_t *)&buffer[MEM_ALIGN_NEXT(CH_MEMCORE_SIZE)/MEM_ALIGN_SIZE];
#endif
}
 18037e4:	e037883a 	mov	sp,fp
 18037e8:	df000017 	ldw	fp,0(sp)
 18037ec:	dec00104 	addi	sp,sp,4
 18037f0:	f800283a 	ret

018037f4 <chCoreAlloc>:
 * @return              A pointer to the allocated memory block.
 * @retval NULL         allocation failed, core memory exhausted.
 *
 * @api
 */
void *chCoreAlloc(size_t size) {
 18037f4:	defffa04 	addi	sp,sp,-24
 18037f8:	dfc00515 	stw	ra,20(sp)
 18037fc:	df000415 	stw	fp,16(sp)
 1803800:	df000404 	addi	fp,sp,16
 1803804:	e13fff15 	stw	r4,-4(fp)
static ALT_INLINE alt_irq_context ALT_ALWAYS_INLINE 
       alt_irq_disable_all (void)
{
  alt_irq_context context;

  NIOS2_READ_STATUS (context);
 1803808:	0005303a 	rdctl	r2,status
 180380c:	e0bffd15 	stw	r2,-12(fp)

  NIOS2_WRITE_STATUS (context & ~NIOS2_STATUS_PIE_MSK);
 1803810:	e0fffd17 	ldw	r3,-12(fp)
 1803814:	00bfff84 	movi	r2,-2
 1803818:	1884703a 	and	r2,r3,r2
 180381c:	1001703a 	wrctl	status,r2
  void *p;

  chSysLock();
  p = chCoreAllocI(size);
 1803820:	e13fff17 	ldw	r4,-4(fp)
 1803824:	18038540 	call	1803854 <chCoreAllocI>
 1803828:	e0bffe15 	stw	r2,-8(fp)
 180382c:	00800044 	movi	r2,1
 1803830:	e0bffc15 	stw	r2,-16(fp)
  status &= ~NIOS2_STATUS_PIE_MSK;
  status |= (context & NIOS2_STATUS_PIE_MSK);
  
  NIOS2_WRITE_STATUS (status);
#else
  NIOS2_WRITE_STATUS (context);
 1803834:	e0bffc17 	ldw	r2,-16(fp)
 1803838:	1001703a 	wrctl	status,r2
  chSysUnlock();
  return p;
 180383c:	e0bffe17 	ldw	r2,-8(fp)
}
 1803840:	e037883a 	mov	sp,fp
 1803844:	dfc00117 	ldw	ra,4(sp)
 1803848:	df000017 	ldw	fp,0(sp)
 180384c:	dec00204 	addi	sp,sp,8
 1803850:	f800283a 	ret

01803854 <chCoreAllocI>:
 * @return              A pointer to the allocated memory block.
 * @retval NULL         allocation failed, core memory exhausted.
 *
 * @iclass
 */
void *chCoreAllocI(size_t size) {
 1803854:	defffc04 	addi	sp,sp,-16
 1803858:	df000315 	stw	fp,12(sp)
 180385c:	df000304 	addi	fp,sp,12
 1803860:	e13ffe15 	stw	r4,-8(fp)
  void *p;

  chDbgCheckClassI();

  size = MEM_ALIGN_NEXT(size);
 1803864:	e0bffe17 	ldw	r2,-8(fp)
 1803868:	10c000c4 	addi	r3,r2,3
 180386c:	00bfff04 	movi	r2,-4
 1803870:	1884703a 	and	r2,r3,r2
 1803874:	e0bffe15 	stw	r2,-8(fp)
  if ((size_t)(endmem - nextmem) < size)
 1803878:	d0a6d517 	ldw	r2,-25772(gp)
 180387c:	1007883a 	mov	r3,r2
 1803880:	d0a6d417 	ldw	r2,-25776(gp)
 1803884:	1885c83a 	sub	r2,r3,r2
 1803888:	1007883a 	mov	r3,r2
 180388c:	e0bffe17 	ldw	r2,-8(fp)
 1803890:	1880022e 	bgeu	r3,r2,180389c <chCoreAllocI+0x48>
    return NULL;
 1803894:	e03fff15 	stw	zero,-4(fp)
 1803898:	00000806 	br	18038bc <chCoreAllocI+0x68>
  p = nextmem;
 180389c:	d0a6d417 	ldw	r2,-25776(gp)
 18038a0:	e0bffd15 	stw	r2,-12(fp)
  nextmem += size;
 18038a4:	d0e6d417 	ldw	r3,-25776(gp)
 18038a8:	e0bffe17 	ldw	r2,-8(fp)
 18038ac:	1885883a 	add	r2,r3,r2
 18038b0:	d0a6d415 	stw	r2,-25776(gp)
  return p;
 18038b4:	e0bffd17 	ldw	r2,-12(fp)
 18038b8:	e0bfff15 	stw	r2,-4(fp)
 18038bc:	e0bfff17 	ldw	r2,-4(fp)
}
 18038c0:	e037883a 	mov	sp,fp
 18038c4:	df000017 	ldw	fp,0(sp)
 18038c8:	dec00104 	addi	sp,sp,4
 18038cc:	f800283a 	ret

018038d0 <chCoreStatus>:
 *
 * @return              The size, in bytes, of the free core memory.
 *
 * @api
 */
size_t chCoreStatus(void) {
 18038d0:	deffff04 	addi	sp,sp,-4
 18038d4:	df000015 	stw	fp,0(sp)
 18038d8:	d839883a 	mov	fp,sp

  return (size_t)(endmem - nextmem);
 18038dc:	d0a6d517 	ldw	r2,-25772(gp)
 18038e0:	1007883a 	mov	r3,r2
 18038e4:	d0a6d417 	ldw	r2,-25776(gp)
 18038e8:	1885c83a 	sub	r2,r3,r2
}
 18038ec:	e037883a 	mov	sp,fp
 18038f0:	df000017 	ldw	fp,0(sp)
 18038f4:	dec00104 	addi	sp,sp,4
 18038f8:	f800283a 	ret

018038fc <chPoolInit>:
 *                      @p NULL if the pool is not allowed to grow
 *                      automatically
 *
 * @init
 */
void chPoolInit(MemoryPool *mp, size_t size, memgetfunc_t provider) {
 18038fc:	defffc04 	addi	sp,sp,-16
 1803900:	df000315 	stw	fp,12(sp)
 1803904:	df000304 	addi	fp,sp,12
 1803908:	e13ffd15 	stw	r4,-12(fp)
 180390c:	e17ffe15 	stw	r5,-8(fp)
 1803910:	e1bfff15 	stw	r6,-4(fp)

  chDbgCheck((mp != NULL) && (size >= sizeof(void *)), "chPoolInit");
 1803914:	e0bffd17 	ldw	r2,-12(fp)
 1803918:	1005003a 	cmpeq	r2,r2,zero
 180391c:	1000001e 	bne	r2,zero,1803920 <chPoolInit+0x24>

  mp->mp_next = NULL;
 1803920:	e0bffd17 	ldw	r2,-12(fp)
 1803924:	10000015 	stw	zero,0(r2)
  mp->mp_object_size = MEM_ALIGN_NEXT(size);
 1803928:	e0bffe17 	ldw	r2,-8(fp)
 180392c:	10c000c4 	addi	r3,r2,3
 1803930:	00bfff04 	movi	r2,-4
 1803934:	1886703a 	and	r3,r3,r2
 1803938:	e0bffd17 	ldw	r2,-12(fp)
 180393c:	10c00115 	stw	r3,4(r2)
  mp->mp_provider = provider;
 1803940:	e0fffd17 	ldw	r3,-12(fp)
 1803944:	e0bfff17 	ldw	r2,-4(fp)
 1803948:	18800215 	stw	r2,8(r3)
}
 180394c:	e037883a 	mov	sp,fp
 1803950:	df000017 	ldw	fp,0(sp)
 1803954:	dec00104 	addi	sp,sp,4
 1803958:	f800283a 	ret

0180395c <chPoolAllocI>:
 * @return              The pointer to the allocated object.
 * @retval NULL         if pool is empty.
 *
 * @iclass
 */
void *chPoolAllocI(MemoryPool *mp) {
 180395c:	defffc04 	addi	sp,sp,-16
 1803960:	dfc00315 	stw	ra,12(sp)
 1803964:	df000215 	stw	fp,8(sp)
 1803968:	df000204 	addi	fp,sp,8
 180396c:	e13fff15 	stw	r4,-4(fp)
  void *objp;

  chDbgCheckClassI();
  chDbgCheck(mp != NULL, "chPoolAllocI");

  if ((objp = mp->mp_next) != NULL)
 1803970:	e0bfff17 	ldw	r2,-4(fp)
 1803974:	10800017 	ldw	r2,0(r2)
 1803978:	e0bffe15 	stw	r2,-8(fp)
 180397c:	e0bffe17 	ldw	r2,-8(fp)
 1803980:	1005003a 	cmpeq	r2,r2,zero
 1803984:	1000061e 	bne	r2,zero,18039a0 <chPoolAllocI+0x44>
    mp->mp_next = mp->mp_next->ph_next;
 1803988:	e0bfff17 	ldw	r2,-4(fp)
 180398c:	10800017 	ldw	r2,0(r2)
 1803990:	10c00017 	ldw	r3,0(r2)
 1803994:	e0bfff17 	ldw	r2,-4(fp)
 1803998:	10c00015 	stw	r3,0(r2)
 180399c:	00000a06 	br	18039c8 <chPoolAllocI+0x6c>
  else if (mp->mp_provider != NULL)
 18039a0:	e0bfff17 	ldw	r2,-4(fp)
 18039a4:	10800217 	ldw	r2,8(r2)
 18039a8:	1005003a 	cmpeq	r2,r2,zero
 18039ac:	1000061e 	bne	r2,zero,18039c8 <chPoolAllocI+0x6c>
    objp = mp->mp_provider(mp->mp_object_size);
 18039b0:	e0bfff17 	ldw	r2,-4(fp)
 18039b4:	10c00217 	ldw	r3,8(r2)
 18039b8:	e0bfff17 	ldw	r2,-4(fp)
 18039bc:	11000117 	ldw	r4,4(r2)
 18039c0:	183ee83a 	callr	r3
 18039c4:	e0bffe15 	stw	r2,-8(fp)
  return objp;
 18039c8:	e0bffe17 	ldw	r2,-8(fp)
}
 18039cc:	e037883a 	mov	sp,fp
 18039d0:	dfc00117 	ldw	ra,4(sp)
 18039d4:	df000017 	ldw	fp,0(sp)
 18039d8:	dec00204 	addi	sp,sp,8
 18039dc:	f800283a 	ret

018039e0 <chPoolAlloc>:
 * @return              The pointer to the allocated object.
 * @retval NULL         if pool is empty.
 *
 * @api
 */
void *chPoolAlloc(MemoryPool *mp) {
 18039e0:	defffa04 	addi	sp,sp,-24
 18039e4:	dfc00515 	stw	ra,20(sp)
 18039e8:	df000415 	stw	fp,16(sp)
 18039ec:	df000404 	addi	fp,sp,16
 18039f0:	e13fff15 	stw	r4,-4(fp)
static ALT_INLINE alt_irq_context ALT_ALWAYS_INLINE 
       alt_irq_disable_all (void)
{
  alt_irq_context context;

  NIOS2_READ_STATUS (context);
 18039f4:	0005303a 	rdctl	r2,status
 18039f8:	e0bffd15 	stw	r2,-12(fp)

  NIOS2_WRITE_STATUS (context & ~NIOS2_STATUS_PIE_MSK);
 18039fc:	e0fffd17 	ldw	r3,-12(fp)
 1803a00:	00bfff84 	movi	r2,-2
 1803a04:	1884703a 	and	r2,r3,r2
 1803a08:	1001703a 	wrctl	status,r2
  void *objp;

  chSysLock();
  objp = chPoolAllocI(mp);
 1803a0c:	e13fff17 	ldw	r4,-4(fp)
 1803a10:	180395c0 	call	180395c <chPoolAllocI>
 1803a14:	e0bffe15 	stw	r2,-8(fp)
 1803a18:	00800044 	movi	r2,1
 1803a1c:	e0bffc15 	stw	r2,-16(fp)
  status &= ~NIOS2_STATUS_PIE_MSK;
  status |= (context & NIOS2_STATUS_PIE_MSK);
  
  NIOS2_WRITE_STATUS (status);
#else
  NIOS2_WRITE_STATUS (context);
 1803a20:	e0bffc17 	ldw	r2,-16(fp)
 1803a24:	1001703a 	wrctl	status,r2
  chSysUnlock();
  return objp;
 1803a28:	e0bffe17 	ldw	r2,-8(fp)
}
 1803a2c:	e037883a 	mov	sp,fp
 1803a30:	dfc00117 	ldw	ra,4(sp)
 1803a34:	df000017 	ldw	fp,0(sp)
 1803a38:	dec00204 	addi	sp,sp,8
 1803a3c:	f800283a 	ret

01803a40 <chPoolFreeI>:
 * @param[in] mp        pointer to a @p MemoryPool structure
 * @param[in] objp      the pointer to the object to be released or added
 *
 * @iclass
 */
void chPoolFreeI(MemoryPool *mp, void *objp) {
 1803a40:	defffc04 	addi	sp,sp,-16
 1803a44:	df000315 	stw	fp,12(sp)
 1803a48:	df000304 	addi	fp,sp,12
 1803a4c:	e13ffe15 	stw	r4,-8(fp)
 1803a50:	e17fff15 	stw	r5,-4(fp)
  struct pool_header *php = objp;
 1803a54:	e0bfff17 	ldw	r2,-4(fp)
 1803a58:	e0bffd15 	stw	r2,-12(fp)

  chDbgCheckClassI();
  chDbgCheck((mp != NULL) && (objp != NULL) && MEM_IS_ALIGNED(objp),
 1803a5c:	e0bffe17 	ldw	r2,-8(fp)
 1803a60:	1005003a 	cmpeq	r2,r2,zero
 1803a64:	1000031e 	bne	r2,zero,1803a74 <chPoolFreeI+0x34>
 1803a68:	e0bfff17 	ldw	r2,-4(fp)
 1803a6c:	1005003a 	cmpeq	r2,r2,zero
 1803a70:	1000001e 	bne	r2,zero,1803a74 <chPoolFreeI+0x34>
             "chPoolFreeI");

  php->ph_next = mp->mp_next;
 1803a74:	e0bffe17 	ldw	r2,-8(fp)
 1803a78:	10c00017 	ldw	r3,0(r2)
 1803a7c:	e0bffd17 	ldw	r2,-12(fp)
 1803a80:	10c00015 	stw	r3,0(r2)
  mp->mp_next = php;
 1803a84:	e0fffe17 	ldw	r3,-8(fp)
 1803a88:	e0bffd17 	ldw	r2,-12(fp)
 1803a8c:	18800015 	stw	r2,0(r3)
}
 1803a90:	e037883a 	mov	sp,fp
 1803a94:	df000017 	ldw	fp,0(sp)
 1803a98:	dec00104 	addi	sp,sp,4
 1803a9c:	f800283a 	ret

01803aa0 <chPoolFree>:
 * @param[in] mp        pointer to a @p MemoryPool structure
 * @param[in] objp      the pointer to the object to be released or added
 *
 * @api
 */
void chPoolFree(MemoryPool *mp, void *objp) {
 1803aa0:	defffa04 	addi	sp,sp,-24
 1803aa4:	dfc00515 	stw	ra,20(sp)
 1803aa8:	df000415 	stw	fp,16(sp)
 1803aac:	df000404 	addi	fp,sp,16
 1803ab0:	e13ffe15 	stw	r4,-8(fp)
 1803ab4:	e17fff15 	stw	r5,-4(fp)
static ALT_INLINE alt_irq_context ALT_ALWAYS_INLINE 
       alt_irq_disable_all (void)
{
  alt_irq_context context;

  NIOS2_READ_STATUS (context);
 1803ab8:	0005303a 	rdctl	r2,status
 1803abc:	e0bffd15 	stw	r2,-12(fp)

  NIOS2_WRITE_STATUS (context & ~NIOS2_STATUS_PIE_MSK);
 1803ac0:	e0fffd17 	ldw	r3,-12(fp)
 1803ac4:	00bfff84 	movi	r2,-2
 1803ac8:	1884703a 	and	r2,r3,r2
 1803acc:	1001703a 	wrctl	status,r2

  chSysLock();
  chPoolFreeI(mp, objp);
 1803ad0:	e13ffe17 	ldw	r4,-8(fp)
 1803ad4:	e17fff17 	ldw	r5,-4(fp)
 1803ad8:	1803a400 	call	1803a40 <chPoolFreeI>
 1803adc:	00800044 	movi	r2,1
 1803ae0:	e0bffc15 	stw	r2,-16(fp)
  status &= ~NIOS2_STATUS_PIE_MSK;
  status |= (context & NIOS2_STATUS_PIE_MSK);
  
  NIOS2_WRITE_STATUS (status);
#else
  NIOS2_WRITE_STATUS (context);
 1803ae4:	e0bffc17 	ldw	r2,-16(fp)
 1803ae8:	1001703a 	wrctl	status,r2
  chSysUnlock();
}
 1803aec:	e037883a 	mov	sp,fp
 1803af0:	dfc00117 	ldw	ra,4(sp)
 1803af4:	df000017 	ldw	fp,0(sp)
 1803af8:	dec00204 	addi	sp,sp,8
 1803afc:	f800283a 	ret

01803b00 <chMtxInit>:
 *
 * @param[out] mp       pointer to a @p Mutex structure
 *
 * @init
 */
void chMtxInit(Mutex *mp) {
 1803b00:	defffe04 	addi	sp,sp,-8
 1803b04:	df000115 	stw	fp,4(sp)
 1803b08:	df000104 	addi	fp,sp,4
 1803b0c:	e13fff15 	stw	r4,-4(fp)

  chDbgCheck(mp != NULL, "chMtxInit");

  queue_init(&mp->m_queue);
 1803b10:	e0bfff17 	ldw	r2,-4(fp)
 1803b14:	1007883a 	mov	r3,r2
 1803b18:	e0bfff17 	ldw	r2,-4(fp)
 1803b1c:	10c00115 	stw	r3,4(r2)
 1803b20:	e0bfff17 	ldw	r2,-4(fp)
 1803b24:	10c00117 	ldw	r3,4(r2)
 1803b28:	e0bfff17 	ldw	r2,-4(fp)
 1803b2c:	10c00015 	stw	r3,0(r2)
  mp->m_owner = NULL;
 1803b30:	e0bfff17 	ldw	r2,-4(fp)
 1803b34:	10000215 	stw	zero,8(r2)
}
 1803b38:	e037883a 	mov	sp,fp
 1803b3c:	df000017 	ldw	fp,0(sp)
 1803b40:	dec00104 	addi	sp,sp,4
 1803b44:	f800283a 	ret

01803b48 <chMtxLock>:
 *
 * @param[in] mp        pointer to the @p Mutex structure
 *
 * @api
 */
void chMtxLock(Mutex *mp) {
 1803b48:	defffb04 	addi	sp,sp,-20
 1803b4c:	dfc00415 	stw	ra,16(sp)
 1803b50:	df000315 	stw	fp,12(sp)
 1803b54:	df000304 	addi	fp,sp,12
 1803b58:	e13fff15 	stw	r4,-4(fp)
static ALT_INLINE alt_irq_context ALT_ALWAYS_INLINE 
       alt_irq_disable_all (void)
{
  alt_irq_context context;

  NIOS2_READ_STATUS (context);
 1803b5c:	0005303a 	rdctl	r2,status
 1803b60:	e0bffe15 	stw	r2,-8(fp)

  NIOS2_WRITE_STATUS (context & ~NIOS2_STATUS_PIE_MSK);
 1803b64:	e0fffe17 	ldw	r3,-8(fp)
 1803b68:	00bfff84 	movi	r2,-2
 1803b6c:	1884703a 	and	r2,r3,r2
 1803b70:	1001703a 	wrctl	status,r2

  chSysLock();

  chMtxLockS(mp);
 1803b74:	e13fff17 	ldw	r4,-4(fp)
 1803b78:	1803ba00 	call	1803ba0 <chMtxLockS>
 1803b7c:	00800044 	movi	r2,1
 1803b80:	e0bffd15 	stw	r2,-12(fp)
  status &= ~NIOS2_STATUS_PIE_MSK;
  status |= (context & NIOS2_STATUS_PIE_MSK);
  
  NIOS2_WRITE_STATUS (status);
#else
  NIOS2_WRITE_STATUS (context);
 1803b84:	e0bffd17 	ldw	r2,-12(fp)
 1803b88:	1001703a 	wrctl	status,r2

  chSysUnlock();
}
 1803b8c:	e037883a 	mov	sp,fp
 1803b90:	dfc00117 	ldw	ra,4(sp)
 1803b94:	df000017 	ldw	fp,0(sp)
 1803b98:	dec00204 	addi	sp,sp,8
 1803b9c:	f800283a 	ret

01803ba0 <chMtxLockS>:
 *
 * @param[in] mp        pointer to the @p Mutex structure
 *
 * @sclass
 */
void chMtxLockS(Mutex *mp) {
 1803ba0:	defffa04 	addi	sp,sp,-24
 1803ba4:	dfc00515 	stw	ra,20(sp)
 1803ba8:	df000415 	stw	fp,16(sp)
 1803bac:	df000404 	addi	fp,sp,16
 1803bb0:	e13ffe15 	stw	r4,-8(fp)
  Thread *ctp = currp;
 1803bb4:	00806074 	movhi	r2,385
 1803bb8:	10b2d104 	addi	r2,r2,-13500
 1803bbc:	10800717 	ldw	r2,28(r2)
 1803bc0:	e0bffd15 	stw	r2,-12(fp)

  chDbgCheckClassS();
  chDbgCheck(mp != NULL, "chMtxLockS");

  /* Ia the mutex already locked? */
  if (mp->m_owner != NULL) {
 1803bc4:	e0bffe17 	ldw	r2,-8(fp)
 1803bc8:	10800217 	ldw	r2,8(r2)
 1803bcc:	1005003a 	cmpeq	r2,r2,zero
 1803bd0:	10003d1e 	bne	r2,zero,1803cc8 <chMtxLockS+0x128>
    /* Priority inheritance protocol; explores the thread-mutex dependencies
       boosting the priority of all the affected threads to equal the priority
       of the running thread requesting the mutex.*/
    Thread *tp = mp->m_owner;
 1803bd4:	e0bffe17 	ldw	r2,-8(fp)
 1803bd8:	10800217 	ldw	r2,8(r2)
 1803bdc:	e0bffc15 	stw	r2,-16(fp)
    /* Does the running thread have higher priority than the mutex
       ownning thread? */
    while (tp->p_prio < ctp->p_prio) {
 1803be0:	00002b06 	br	1803c90 <chMtxLockS+0xf0>
      /* Make priority of thread tp match the running thread's priority.*/
      tp->p_prio = ctp->p_prio;
 1803be4:	e0bffd17 	ldw	r2,-12(fp)
 1803be8:	10c00217 	ldw	r3,8(r2)
 1803bec:	e0bffc17 	ldw	r2,-16(fp)
 1803bf0:	10c00215 	stw	r3,8(r2)
      /* The following states need priority queues reordering.*/
      switch (tp->p_state) {
 1803bf4:	e0bffc17 	ldw	r2,-16(fp)
 1803bf8:	10800703 	ldbu	r2,28(r2)
 1803bfc:	10803fcc 	andi	r2,r2,255
 1803c00:	e0bfff15 	stw	r2,-4(fp)
 1803c04:	e0ffff17 	ldw	r3,-4(fp)
 1803c08:	18800120 	cmpeqi	r2,r3,4
 1803c0c:	1000071e 	bne	r2,zero,1803c2c <chMtxLockS+0x8c>
 1803c10:	e0ffff17 	ldw	r3,-4(fp)
 1803c14:	18800160 	cmpeqi	r2,r3,5
 1803c18:	1000101e 	bne	r2,zero,1803c5c <chMtxLockS+0xbc>
 1803c1c:	e0ffff17 	ldw	r3,-4(fp)
 1803c20:	1805003a 	cmpeq	r2,r3,zero
 1803c24:	1000151e 	bne	r2,zero,1803c7c <chMtxLockS+0xdc>
 1803c28:	00001e06 	br	1803ca4 <chMtxLockS+0x104>
      case THD_STATE_WTMTX:
        /* Re-enqueues the mutex owner with its new priority.*/
        prio_insert(dequeue(tp), (ThreadsQueue *)tp->p_u.wtobjp);
 1803c2c:	e13ffc17 	ldw	r4,-16(fp)
 1803c30:	1803d040 	call	1803d04 <dequeue>
 1803c34:	1009883a 	mov	r4,r2
 1803c38:	e0bffc17 	ldw	r2,-16(fp)
 1803c3c:	10800917 	ldw	r2,36(r2)
 1803c40:	100b883a 	mov	r5,r2
 1803c44:	1803d500 	call	1803d50 <prio_insert>
        tp = ((Mutex *)tp->p_u.wtobjp)->m_owner;
 1803c48:	e0bffc17 	ldw	r2,-16(fp)
 1803c4c:	10800917 	ldw	r2,36(r2)
 1803c50:	10800217 	ldw	r2,8(r2)
 1803c54:	e0bffc15 	stw	r2,-16(fp)
        continue;
 1803c58:	00000d06 	br	1803c90 <chMtxLockS+0xf0>
#endif
#if CH_USE_MESSAGES && CH_USE_MESSAGES_PRIORITY
      case THD_STATE_SNDMSGQ:
#endif
        /* Re-enqueues tp with its new priority on the queue.*/
        prio_insert(dequeue(tp), (ThreadsQueue *)tp->p_u.wtobjp);
 1803c5c:	e13ffc17 	ldw	r4,-16(fp)
 1803c60:	1803d040 	call	1803d04 <dequeue>
 1803c64:	1009883a 	mov	r4,r2
 1803c68:	e0bffc17 	ldw	r2,-16(fp)
 1803c6c:	10800917 	ldw	r2,36(r2)
 1803c70:	100b883a 	mov	r5,r2
 1803c74:	1803d500 	call	1803d50 <prio_insert>
        break;
 1803c78:	00000a06 	br	1803ca4 <chMtxLockS+0x104>
#if CH_DBG_ENABLE_ASSERTS
        /* Prevents an assertion in chSchReadyI().*/
        tp->p_state = THD_STATE_CURRENT;
#endif
        /* Re-enqueues tp with its new priority on the ready list.*/
        chSchReadyI(dequeue(tp));
 1803c7c:	e13ffc17 	ldw	r4,-16(fp)
 1803c80:	1803d040 	call	1803d04 <dequeue>
 1803c84:	1009883a 	mov	r4,r2
 1803c88:	18043180 	call	1804318 <chSchReadyI>
        break;
      }
      break;
 1803c8c:	00000506 	br	1803ca4 <chMtxLockS+0x104>
       boosting the priority of all the affected threads to equal the priority
       of the running thread requesting the mutex.*/
    Thread *tp = mp->m_owner;
    /* Does the running thread have higher priority than the mutex
       ownning thread? */
    while (tp->p_prio < ctp->p_prio) {
 1803c90:	e0bffc17 	ldw	r2,-16(fp)
 1803c94:	10c00217 	ldw	r3,8(r2)
 1803c98:	e0bffd17 	ldw	r2,-12(fp)
 1803c9c:	10800217 	ldw	r2,8(r2)
 1803ca0:	18bfd036 	bltu	r3,r2,1803be4 <chMtxLockS+0x44>
        break;
      }
      break;
    }
    /* Sleep on the mutex.*/
    prio_insert(ctp, &mp->m_queue);
 1803ca4:	e17ffe17 	ldw	r5,-8(fp)
 1803ca8:	e13ffd17 	ldw	r4,-12(fp)
 1803cac:	1803d500 	call	1803d50 <prio_insert>
    ctp->p_u.wtobjp = mp;
 1803cb0:	e0fffd17 	ldw	r3,-12(fp)
 1803cb4:	e0bffe17 	ldw	r2,-8(fp)
 1803cb8:	18800915 	stw	r2,36(r3)
    chSchGoSleepS(THD_STATE_WTMTX);
 1803cbc:	01000104 	movi	r4,4
 1803cc0:	18043c00 	call	18043c0 <chSchGoSleepS>
    /* It is assumed that the thread performing the unlock operation assigns
       the mutex to this thread.*/
    chDbgAssert(mp->m_owner == ctp, "chMtxLockS(), #1", "not owner");
    chDbgAssert(ctp->p_mtxlist == mp, "chMtxLockS(), #2", "not owned");
 1803cc4:	00000a06 	br	1803cf0 <chMtxLockS+0x150>
  }
  else {
    /* It was not owned, inserted in the owned mutexes list.*/
    mp->m_owner = ctp;
 1803cc8:	e0fffe17 	ldw	r3,-8(fp)
 1803ccc:	e0bffd17 	ldw	r2,-12(fp)
 1803cd0:	18800215 	stw	r2,8(r3)
    mp->m_next = ctp->p_mtxlist;
 1803cd4:	e0bffd17 	ldw	r2,-12(fp)
 1803cd8:	10c00f17 	ldw	r3,60(r2)
 1803cdc:	e0bffe17 	ldw	r2,-8(fp)
 1803ce0:	10c00315 	stw	r3,12(r2)
    ctp->p_mtxlist = mp;
 1803ce4:	e0fffd17 	ldw	r3,-12(fp)
 1803ce8:	e0bffe17 	ldw	r2,-8(fp)
 1803cec:	18800f15 	stw	r2,60(r3)
  }
}
 1803cf0:	e037883a 	mov	sp,fp
 1803cf4:	dfc00117 	ldw	ra,4(sp)
 1803cf8:	df000017 	ldw	fp,0(sp)
 1803cfc:	dec00204 	addi	sp,sp,8
 1803d00:	f800283a 	ret

01803d04 <dequeue>:

  (tqp->p_prev = tp->p_prev)->p_next = (Thread *)tqp;
  return tp;
}

static INLINE Thread *dequeue(Thread *tp) {
 1803d04:	defffe04 	addi	sp,sp,-8
 1803d08:	df000115 	stw	fp,4(sp)
 1803d0c:	df000104 	addi	fp,sp,4
 1803d10:	e13fff15 	stw	r4,-4(fp)

  tp->p_prev->p_next = tp->p_next;
 1803d14:	e0bfff17 	ldw	r2,-4(fp)
 1803d18:	10c00117 	ldw	r3,4(r2)
 1803d1c:	e0bfff17 	ldw	r2,-4(fp)
 1803d20:	10800017 	ldw	r2,0(r2)
 1803d24:	18800015 	stw	r2,0(r3)
  tp->p_next->p_prev = tp->p_prev;
 1803d28:	e0bfff17 	ldw	r2,-4(fp)
 1803d2c:	10c00017 	ldw	r3,0(r2)
 1803d30:	e0bfff17 	ldw	r2,-4(fp)
 1803d34:	10800117 	ldw	r2,4(r2)
 1803d38:	18800115 	stw	r2,4(r3)
  return tp;
 1803d3c:	e0bfff17 	ldw	r2,-4(fp)
}
 1803d40:	e037883a 	mov	sp,fp
 1803d44:	df000017 	ldw	fp,0(sp)
 1803d48:	dec00104 	addi	sp,sp,4
 1803d4c:	f800283a 	ret

01803d50 <prio_insert>:
#define _CHINLINE_H_

/* If the performance code path has been chosen then all the following
   functions are inlined into the various kernel modules.*/
#if CH_OPTIMIZE_SPEED
static INLINE void prio_insert(Thread *tp, ThreadsQueue *tqp) {
 1803d50:	defffc04 	addi	sp,sp,-16
 1803d54:	df000315 	stw	fp,12(sp)
 1803d58:	df000304 	addi	fp,sp,12
 1803d5c:	e13ffe15 	stw	r4,-8(fp)
 1803d60:	e17fff15 	stw	r5,-4(fp)

  Thread *cp = (Thread *)tqp;
 1803d64:	e0bfff17 	ldw	r2,-4(fp)
 1803d68:	e0bffd15 	stw	r2,-12(fp)
  do {
    cp = cp->p_next;
 1803d6c:	e0bffd17 	ldw	r2,-12(fp)
 1803d70:	10800017 	ldw	r2,0(r2)
 1803d74:	e0bffd15 	stw	r2,-12(fp)
