Archive member included because of file (symbol)

G:/WorK/Synesthesia/github/synesthesia_zen/wxp/dgn/sw/limbus_bsp/\libchibios_v240_bsp.a(chthreads.o)
                              obj/default/ledos/graphics/graphics.o (chThdSleep)
G:/WorK/Synesthesia/github/synesthesia_zen/wxp/dgn/sw/limbus_bsp/\libchibios_v240_bsp.a(chvt.o)
                              G:/WorK/Synesthesia/github/synesthesia_zen/wxp/dgn/sw/limbus_bsp/\libchibios_v240_bsp.a(chthreads.o) (vtlist)
G:/WorK/Synesthesia/github/synesthesia_zen/wxp/dgn/sw/limbus_bsp/\libchibios_v240_bsp.a(chcoreasm.o)
                              G:/WorK/Synesthesia/github/synesthesia_zen/wxp/dgn/sw/limbus_bsp/\libchibios_v240_bsp.a(chthreads.o) (_port_thread_start)
G:/WorK/Synesthesia/github/synesthesia_zen/wxp/dgn/sw/limbus_bsp/\libchibios_v240_bsp.a(alt_load.o)
                              G:/WorK/Synesthesia/github/synesthesia_zen/wxp/dgn/sw/limbus_bsp//obj/HAL/src/crt0.o (alt_load)
G:/WorK/Synesthesia/github/synesthesia_zen/wxp/dgn/sw/limbus_bsp/\libchibios_v240_bsp.a(alt_main.o)
                              G:/WorK/Synesthesia/github/synesthesia_zen/wxp/dgn/sw/limbus_bsp//obj/HAL/src/crt0.o (alt_main)
G:/WorK/Synesthesia/github/synesthesia_zen/wxp/dgn/sw/limbus_bsp/\libchibios_v240_bsp.a(alt_printf.o)
                              obj/default/main.o (alt_printf)
G:/WorK/Synesthesia/github/synesthesia_zen/wxp/dgn/sw/limbus_bsp/\libchibios_v240_bsp.a(alt_putchar.o)
                              G:/WorK/Synesthesia/github/synesthesia_zen/wxp/dgn/sw/limbus_bsp/\libchibios_v240_bsp.a(alt_printf.o) (alt_putchar)
G:/WorK/Synesthesia/github/synesthesia_zen/wxp/dgn/sw/limbus_bsp/\libchibios_v240_bsp.a(alt_putstr.o)
                              obj/default/main.o (alt_putstr)
G:/WorK/Synesthesia/github/synesthesia_zen/wxp/dgn/sw/limbus_bsp/\libchibios_v240_bsp.a(alt_sys_init.o)
                              G:/WorK/Synesthesia/github/synesthesia_zen/wxp/dgn/sw/limbus_bsp/\libchibios_v240_bsp.a(alt_main.o) (alt_irq_init)
G:/WorK/Synesthesia/github/synesthesia_zen/wxp/dgn/sw/limbus_bsp/\libchibios_v240_bsp.a(altera_avalon_jtag_uart_fd.o)
                              G:/WorK/Synesthesia/github/synesthesia_zen/wxp/dgn/sw/limbus_bsp/\libchibios_v240_bsp.a(alt_sys_init.o) (altera_avalon_jtag_uart_read_fd)
G:/WorK/Synesthesia/github/synesthesia_zen/wxp/dgn/sw/limbus_bsp/\libchibios_v240_bsp.a(altera_avalon_jtag_uart_init.o)
                              G:/WorK/Synesthesia/github/synesthesia_zen/wxp/dgn/sw/limbus_bsp/\libchibios_v240_bsp.a(alt_sys_init.o) (altera_avalon_jtag_uart_init)
G:/WorK/Synesthesia/github/synesthesia_zen/wxp/dgn/sw/limbus_bsp/\libchibios_v240_bsp.a(altera_avalon_jtag_uart_ioctl.o)
                              G:/WorK/Synesthesia/github/synesthesia_zen/wxp/dgn/sw/limbus_bsp/\libchibios_v240_bsp.a(altera_avalon_jtag_uart_fd.o) (altera_avalon_jtag_uart_ioctl)
G:/WorK/Synesthesia/github/synesthesia_zen/wxp/dgn/sw/limbus_bsp/\libchibios_v240_bsp.a(altera_avalon_jtag_uart_read.o)
                              G:/WorK/Synesthesia/github/synesthesia_zen/wxp/dgn/sw/limbus_bsp/\libchibios_v240_bsp.a(altera_avalon_jtag_uart_fd.o) (altera_avalon_jtag_uart_read)
G:/WorK/Synesthesia/github/synesthesia_zen/wxp/dgn/sw/limbus_bsp/\libchibios_v240_bsp.a(altera_avalon_jtag_uart_write.o)
                              G:/WorK/Synesthesia/github/synesthesia_zen/wxp/dgn/sw/limbus_bsp/\libchibios_v240_bsp.a(altera_avalon_jtag_uart_fd.o) (altera_avalon_jtag_uart_write)
G:/WorK/Synesthesia/github/synesthesia_zen/wxp/dgn/sw/limbus_bsp/\libchibios_v240_bsp.a(altera_avalon_timer_sc.o)
                              G:/WorK/Synesthesia/github/synesthesia_zen/wxp/dgn/sw/limbus_bsp/\libchibios_v240_bsp.a(alt_sys_init.o) (alt_avalon_timer_sc_init)
G:/WorK/Synesthesia/github/synesthesia_zen/wxp/dgn/sw/limbus_bsp/\libchibios_v240_bsp.a(altera_avalon_uart_fd.o)
                              G:/WorK/Synesthesia/github/synesthesia_zen/wxp/dgn/sw/limbus_bsp/\libchibios_v240_bsp.a(alt_sys_init.o) (altera_avalon_uart_read_fd)
G:/WorK/Synesthesia/github/synesthesia_zen/wxp/dgn/sw/limbus_bsp/\libchibios_v240_bsp.a(altera_avalon_uart_init.o)
                              G:/WorK/Synesthesia/github/synesthesia_zen/wxp/dgn/sw/limbus_bsp/\libchibios_v240_bsp.a(alt_sys_init.o) (altera_avalon_uart_init)
G:/WorK/Synesthesia/github/synesthesia_zen/wxp/dgn/sw/limbus_bsp/\libchibios_v240_bsp.a(altera_avalon_uart_read.o)
                              G:/WorK/Synesthesia/github/synesthesia_zen/wxp/dgn/sw/limbus_bsp/\libchibios_v240_bsp.a(altera_avalon_uart_fd.o) (altera_avalon_uart_read)
G:/WorK/Synesthesia/github/synesthesia_zen/wxp/dgn/sw/limbus_bsp/\libchibios_v240_bsp.a(altera_avalon_uart_write.o)
                              G:/WorK/Synesthesia/github/synesthesia_zen/wxp/dgn/sw/limbus_bsp/\libchibios_v240_bsp.a(altera_avalon_uart_fd.o) (altera_avalon_uart_write)
G:/WorK/Synesthesia/github/synesthesia_zen/wxp/dgn/sw/limbus_bsp/\libchibios_v240_bsp.a(chdynamic.o)
                              G:/WorK/Synesthesia/github/synesthesia_zen/wxp/dgn/sw/limbus_bsp/\libchibios_v240_bsp.a(chthreads.o) (chThdRelease)
G:/WorK/Synesthesia/github/synesthesia_zen/wxp/dgn/sw/limbus_bsp/\libchibios_v240_bsp.a(chheap.o)
                              G:/WorK/Synesthesia/github/synesthesia_zen/wxp/dgn/sw/limbus_bsp/\libchibios_v240_bsp.a(chdynamic.o) (chHeapAlloc)
G:/WorK/Synesthesia/github/synesthesia_zen/wxp/dgn/sw/limbus_bsp/\libchibios_v240_bsp.a(chmemcore.o)
                              G:/WorK/Synesthesia/github/synesthesia_zen/wxp/dgn/sw/limbus_bsp/\libchibios_v240_bsp.a(chheap.o) (chCoreAlloc)
G:/WorK/Synesthesia/github/synesthesia_zen/wxp/dgn/sw/limbus_bsp/\libchibios_v240_bsp.a(chmempools.o)
                              G:/WorK/Synesthesia/github/synesthesia_zen/wxp/dgn/sw/limbus_bsp/\libchibios_v240_bsp.a(chdynamic.o) (chPoolAlloc)
G:/WorK/Synesthesia/github/synesthesia_zen/wxp/dgn/sw/limbus_bsp/\libchibios_v240_bsp.a(chmtx.o)
                              G:/WorK/Synesthesia/github/synesthesia_zen/wxp/dgn/sw/limbus_bsp/\libchibios_v240_bsp.a(chheap.o) (chMtxInit)
G:/WorK/Synesthesia/github/synesthesia_zen/wxp/dgn/sw/limbus_bsp/\libchibios_v240_bsp.a(chschd.o)
                              G:/WorK/Synesthesia/github/synesthesia_zen/wxp/dgn/sw/limbus_bsp/\libchibios_v240_bsp.a(chthreads.o) (rlist)
G:/WorK/Synesthesia/github/synesthesia_zen/wxp/dgn/sw/limbus_bsp/\libchibios_v240_bsp.a(chsys.o)
                              G:/WorK/Synesthesia/github/synesthesia_zen/wxp/dgn/sw/limbus_bsp/\libchibios_v240_bsp.a(alt_main.o) (chSysInit)
G:/WorK/Synesthesia/github/synesthesia_zen/wxp/dgn/sw/limbus_bsp/\libchibios_v240_bsp.a(alt_alarm_start.o)
                              G:/WorK/Synesthesia/github/synesthesia_zen/wxp/dgn/sw/limbus_bsp/\libchibios_v240_bsp.a(altera_avalon_jtag_uart_init.o) (alt_alarm_start)
G:/WorK/Synesthesia/github/synesthesia_zen/wxp/dgn/sw/limbus_bsp/\libchibios_v240_bsp.a(alt_close.o)
                              G:/WorK/Synesthesia/github/synesthesia_zen/wxp/dgn/sw/limbus_bsp/\libchibios_v240_bsp.a(alt_main.o) (close)
G:/WorK/Synesthesia/github/synesthesia_zen/wxp/dgn/sw/limbus_bsp/\libchibios_v240_bsp.a(alt_dcache_flush_all.o)
                              G:/WorK/Synesthesia/github/synesthesia_zen/wxp/dgn/sw/limbus_bsp/\libchibios_v240_bsp.a(alt_load.o) (alt_dcache_flush_all)
G:/WorK/Synesthesia/github/synesthesia_zen/wxp/dgn/sw/limbus_bsp/\libchibios_v240_bsp.a(alt_dev.o)
                              G:/WorK/Synesthesia/github/synesthesia_zen/wxp/dgn/sw/limbus_bsp/\libchibios_v240_bsp.a(alt_sys_init.o) (alt_dev_list)
G:/WorK/Synesthesia/github/synesthesia_zen/wxp/dgn/sw/limbus_bsp/\libchibios_v240_bsp.a(alt_dev_llist_insert.o)
                              G:/WorK/Synesthesia/github/synesthesia_zen/wxp/dgn/sw/limbus_bsp/\libchibios_v240_bsp.a(alt_sys_init.o) (alt_dev_llist_insert)
G:/WorK/Synesthesia/github/synesthesia_zen/wxp/dgn/sw/limbus_bsp/\libchibios_v240_bsp.a(alt_do_ctors.o)
                              G:/WorK/Synesthesia/github/synesthesia_zen/wxp/dgn/sw/limbus_bsp/\libchibios_v240_bsp.a(alt_main.o) (_do_ctors)
G:/WorK/Synesthesia/github/synesthesia_zen/wxp/dgn/sw/limbus_bsp/\libchibios_v240_bsp.a(alt_do_dtors.o)
                              G:/WorK/Synesthesia/github/synesthesia_zen/wxp/dgn/sw/limbus_bsp/\libchibios_v240_bsp.a(alt_main.o) (_do_dtors)
G:/WorK/Synesthesia/github/synesthesia_zen/wxp/dgn/sw/limbus_bsp/\libchibios_v240_bsp.a(alt_errno.o)
                              G:/WorK/Synesthesia/github/synesthesia_zen/wxp/dgn/sw/limbus_bsp/\libchibios_v240_bsp.a(altera_avalon_uart_read.o) (alt_errno)
G:/WorK/Synesthesia/github/synesthesia_zen/wxp/dgn/sw/limbus_bsp/\libchibios_v240_bsp.a(alt_icache_flush_all.o)
                              G:/WorK/Synesthesia/github/synesthesia_zen/wxp/dgn/sw/limbus_bsp/\libchibios_v240_bsp.a(alt_load.o) (alt_icache_flush_all)
G:/WorK/Synesthesia/github/synesthesia_zen/wxp/dgn/sw/limbus_bsp/\libchibios_v240_bsp.a(alt_iic.o)
                              G:/WorK/Synesthesia/github/synesthesia_zen/wxp/dgn/sw/limbus_bsp/\libchibios_v240_bsp.a(altera_avalon_jtag_uart_init.o) (alt_ic_isr_register)
G:/WorK/Synesthesia/github/synesthesia_zen/wxp/dgn/sw/limbus_bsp/\libchibios_v240_bsp.a(alt_iic_isr_register.o)
                              G:/WorK/Synesthesia/github/synesthesia_zen/wxp/dgn/sw/limbus_bsp/\libchibios_v240_bsp.a(alt_iic.o) (alt_iic_isr_register)
G:/WorK/Synesthesia/github/synesthesia_zen/wxp/dgn/sw/limbus_bsp/\libchibios_v240_bsp.a(alt_io_redirect.o)
                              G:/WorK/Synesthesia/github/synesthesia_zen/wxp/dgn/sw/limbus_bsp/\libchibios_v240_bsp.a(alt_main.o) (alt_io_redirect)
G:/WorK/Synesthesia/github/synesthesia_zen/wxp/dgn/sw/limbus_bsp/\libchibios_v240_bsp.a(alt_irq_entry.o)
                              G:/WorK/Synesthesia/github/synesthesia_zen/wxp/dgn/sw/limbus_bsp/\libchibios_v240_bsp.a(alt_iic_isr_register.o) (alt_irq_entry)
G:/WorK/Synesthesia/github/synesthesia_zen/wxp/dgn/sw/limbus_bsp/\libchibios_v240_bsp.a(alt_irq_handler.o)
                              G:/WorK/Synesthesia/github/synesthesia_zen/wxp/dgn/sw/limbus_bsp/\libchibios_v240_bsp.a(alt_iic_isr_register.o) (alt_irq_handler)
G:/WorK/Synesthesia/github/synesthesia_zen/wxp/dgn/sw/limbus_bsp/\libchibios_v240_bsp.a(alt_irq_vars.o)
                              G:/WorK/Synesthesia/github/synesthesia_zen/wxp/dgn/sw/limbus_bsp/\libchibios_v240_bsp.a(alt_iic.o) (alt_irq_active)
G:/WorK/Synesthesia/github/synesthesia_zen/wxp/dgn/sw/limbus_bsp/\libchibios_v240_bsp.a(alt_open.o)
                              G:/WorK/Synesthesia/github/synesthesia_zen/wxp/dgn/sw/limbus_bsp/\libchibios_v240_bsp.a(alt_io_redirect.o) (open)
G:/WorK/Synesthesia/github/synesthesia_zen/wxp/dgn/sw/limbus_bsp/\libchibios_v240_bsp.a(alt_release_fd.o)
                              G:/WorK/Synesthesia/github/synesthesia_zen/wxp/dgn/sw/limbus_bsp/\libchibios_v240_bsp.a(alt_close.o) (alt_release_fd)
G:/WorK/Synesthesia/github/synesthesia_zen/wxp/dgn/sw/limbus_bsp/\libchibios_v240_bsp.a(alt_tick.o)
                              G:/WorK/Synesthesia/github/synesthesia_zen/wxp/dgn/sw/limbus_bsp/\libchibios_v240_bsp.a(altera_avalon_jtag_uart_init.o) (_alt_tick_rate)
G:/WorK/Synesthesia/github/synesthesia_zen/wxp/dgn/sw/limbus_bsp/\libchibios_v240_bsp.a(altera_nios2_qsys_irq.o)
                              G:/WorK/Synesthesia/github/synesthesia_zen/wxp/dgn/sw/limbus_bsp/\libchibios_v240_bsp.a(alt_sys_init.o) (altera_nios2_qsys_irq_init)
G:/WorK/Synesthesia/github/synesthesia_zen/wxp/dgn/sw/limbus_bsp/\libchibios_v240_bsp.a(chcore.o)
                              G:/WorK/Synesthesia/github/synesthesia_zen/wxp/dgn/sw/limbus_bsp/\libchibios_v240_bsp.a(alt_tick.o) (port_time_tick)
G:/WorK/Synesthesia/github/synesthesia_zen/wxp/dgn/sw/limbus_bsp/\libchibios_v240_bsp.a(alt_exception_entry.o)
                              G:/WorK/Synesthesia/github/synesthesia_zen/wxp/dgn/sw/limbus_bsp/\libchibios_v240_bsp.a(alt_irq_entry.o) (alt_exception)
G:/WorK/Synesthesia/github/synesthesia_zen/wxp/dgn/sw/limbus_bsp/\libchibios_v240_bsp.a(alt_find_dev.o)
                              G:/WorK/Synesthesia/github/synesthesia_zen/wxp/dgn/sw/limbus_bsp/\libchibios_v240_bsp.a(alt_open.o) (alt_find_dev)
G:/WorK/Synesthesia/github/synesthesia_zen/wxp/dgn/sw/limbus_bsp/\libchibios_v240_bsp.a(alt_find_file.o)
                              G:/WorK/Synesthesia/github/synesthesia_zen/wxp/dgn/sw/limbus_bsp/\libchibios_v240_bsp.a(alt_open.o) (alt_find_file)
G:/WorK/Synesthesia/github/synesthesia_zen/wxp/dgn/sw/limbus_bsp/\libchibios_v240_bsp.a(alt_get_fd.o)
                              G:/WorK/Synesthesia/github/synesthesia_zen/wxp/dgn/sw/limbus_bsp/\libchibios_v240_bsp.a(alt_open.o) (alt_get_fd)
c:/altera/11.1sp2/nios2eds/bin/gnu/h-i686-mingw32/bin/../lib/gcc/nios2-elf/4.1.2/../../../../nios2-elf/lib/mno-hw-mul\libc.a(lib_a-atexit.o)
                              G:/WorK/Synesthesia/github/synesthesia_zen/wxp/dgn/sw/limbus_bsp/\libchibios_v240_bsp.a(alt_main.o) (atexit)
c:/altera/11.1sp2/nios2eds/bin/gnu/h-i686-mingw32/bin/../lib/gcc/nios2-elf/4.1.2/../../../../nios2-elf/lib/mno-hw-mul\libc.a(lib_a-exit.o)
                              G:/WorK/Synesthesia/github/synesthesia_zen/wxp/dgn/sw/limbus_bsp/\libchibios_v240_bsp.a(alt_main.o) (exit)
c:/altera/11.1sp2/nios2eds/bin/gnu/h-i686-mingw32/bin/../lib/gcc/nios2-elf/4.1.2/../../../../nios2-elf/lib/mno-hw-mul\libc.a(lib_a-fputs.o)
                              G:/WorK/Synesthesia/github/synesthesia_zen/wxp/dgn/sw/limbus_bsp/\libchibios_v240_bsp.a(alt_putstr.o) (fputs)
c:/altera/11.1sp2/nios2eds/bin/gnu/h-i686-mingw32/bin/../lib/gcc/nios2-elf/4.1.2/../../../../nios2-elf/lib/mno-hw-mul\libc.a(lib_a-fvwrite.o)
                              c:/altera/11.1sp2/nios2eds/bin/gnu/h-i686-mingw32/bin/../lib/gcc/nios2-elf/4.1.2/../../../../nios2-elf/lib/mno-hw-mul\libc.a(lib_a-fputs.o) (__sfvwrite_r)
c:/altera/11.1sp2/nios2eds/bin/gnu/h-i686-mingw32/bin/../lib/gcc/nios2-elf/4.1.2/../../../../nios2-elf/lib/mno-hw-mul\libc.a(lib_a-impure.o)
                              G:/WorK/Synesthesia/github/synesthesia_zen/wxp/dgn/sw/limbus_bsp/\libchibios_v240_bsp.a(alt_putchar.o) (_impure_ptr)
c:/altera/11.1sp2/nios2eds/bin/gnu/h-i686-mingw32/bin/../lib/gcc/nios2-elf/4.1.2/../../../../nios2-elf/lib/mno-hw-mul\libc.a(lib_a-int_errno.o)
                              G:/WorK/Synesthesia/github/synesthesia_zen/wxp/dgn/sw/limbus_bsp/\libchibios_v240_bsp.a(altera_avalon_uart_read.o) (errno)
c:/altera/11.1sp2/nios2eds/bin/gnu/h-i686-mingw32/bin/../lib/gcc/nios2-elf/4.1.2/../../../../nios2-elf/lib/mno-hw-mul\libc.a(lib_a-mallocr.o)
                              c:/altera/11.1sp2/nios2eds/bin/gnu/h-i686-mingw32/bin/../lib/gcc/nios2-elf/4.1.2/../../../../nios2-elf/lib/mno-hw-mul\libc.a(lib_a-fvwrite.o) (_malloc_r)
c:/altera/11.1sp2/nios2eds/bin/gnu/h-i686-mingw32/bin/../lib/gcc/nios2-elf/4.1.2/../../../../nios2-elf/lib/mno-hw-mul\libc.a(lib_a-memchr.o)
                              c:/altera/11.1sp2/nios2eds/bin/gnu/h-i686-mingw32/bin/../lib/gcc/nios2-elf/4.1.2/../../../../nios2-elf/lib/mno-hw-mul\libc.a(lib_a-fvwrite.o) (memchr)
c:/altera/11.1sp2/nios2eds/bin/gnu/h-i686-mingw32/bin/../lib/gcc/nios2-elf/4.1.2/../../../../nios2-elf/lib/mno-hw-mul\libc.a(lib_a-memcmp.o)
                              G:/WorK/Synesthesia/github/synesthesia_zen/wxp/dgn/sw/limbus_bsp/\libchibios_v240_bsp.a(alt_find_dev.o) (memcmp)
c:/altera/11.1sp2/nios2eds/bin/gnu/h-i686-mingw32/bin/../lib/gcc/nios2-elf/4.1.2/../../../../nios2-elf/lib/mno-hw-mul\libc.a(lib_a-memcpy.o)
                              G:/WorK/Synesthesia/github/synesthesia_zen/wxp/dgn/sw/limbus_bsp/\libchibios_v240_bsp.a(altera_avalon_jtag_uart_read.o) (memcpy)
c:/altera/11.1sp2/nios2eds/bin/gnu/h-i686-mingw32/bin/../lib/gcc/nios2-elf/4.1.2/../../../../nios2-elf/lib/mno-hw-mul\libc.a(lib_a-memmove.o)
                              c:/altera/11.1sp2/nios2eds/bin/gnu/h-i686-mingw32/bin/../lib/gcc/nios2-elf/4.1.2/../../../../nios2-elf/lib/mno-hw-mul\libc.a(lib_a-fvwrite.o) (memmove)
c:/altera/11.1sp2/nios2eds/bin/gnu/h-i686-mingw32/bin/../lib/gcc/nios2-elf/4.1.2/../../../../nios2-elf/lib/mno-hw-mul\libc.a(lib_a-putc.o)
                              G:/WorK/Synesthesia/github/synesthesia_zen/wxp/dgn/sw/limbus_bsp/\libchibios_v240_bsp.a(alt_putchar.o) (putc)
c:/altera/11.1sp2/nios2eds/bin/gnu/h-i686-mingw32/bin/../lib/gcc/nios2-elf/4.1.2/../../../../nios2-elf/lib/mno-hw-mul\libc.a(lib_a-reallocr.o)
                              c:/altera/11.1sp2/nios2eds/bin/gnu/h-i686-mingw32/bin/../lib/gcc/nios2-elf/4.1.2/../../../../nios2-elf/lib/mno-hw-mul\libc.a(lib_a-fvwrite.o) (_realloc_r)
c:/altera/11.1sp2/nios2eds/bin/gnu/h-i686-mingw32/bin/../lib/gcc/nios2-elf/4.1.2/../../../../nios2-elf/lib/mno-hw-mul\libc.a(lib_a-sbrkr.o)
                              c:/altera/11.1sp2/nios2eds/bin/gnu/h-i686-mingw32/bin/../lib/gcc/nios2-elf/4.1.2/../../../../nios2-elf/lib/mno-hw-mul\libc.a(lib_a-mallocr.o) (_sbrk_r)
c:/altera/11.1sp2/nios2eds/bin/gnu/h-i686-mingw32/bin/../lib/gcc/nios2-elf/4.1.2/../../../../nios2-elf/lib/mno-hw-mul\libc.a(lib_a-strlen.o)
                              G:/WorK/Synesthesia/github/synesthesia_zen/wxp/dgn/sw/limbus_bsp/\libchibios_v240_bsp.a(alt_find_dev.o) (strlen)
c:/altera/11.1sp2/nios2eds/bin/gnu/h-i686-mingw32/bin/../lib/gcc/nios2-elf/4.1.2/../../../../nios2-elf/lib/mno-hw-mul\libc.a(lib_a-wbuf.o)
                              c:/altera/11.1sp2/nios2eds/bin/gnu/h-i686-mingw32/bin/../lib/gcc/nios2-elf/4.1.2/../../../../nios2-elf/lib/mno-hw-mul\libc.a(lib_a-putc.o) (__swbuf_r)
c:/altera/11.1sp2/nios2eds/bin/gnu/h-i686-mingw32/bin/../lib/gcc/nios2-elf/4.1.2/../../../../nios2-elf/lib/mno-hw-mul\libc.a(lib_a-wsetup.o)
                              c:/altera/11.1sp2/nios2eds/bin/gnu/h-i686-mingw32/bin/../lib/gcc/nios2-elf/4.1.2/../../../../nios2-elf/lib/mno-hw-mul\libc.a(lib_a-fvwrite.o) (__swsetup_r)
c:/altera/11.1sp2/nios2eds/bin/gnu/h-i686-mingw32/bin/../lib/gcc/nios2-elf/4.1.2/../../../../nios2-elf/lib/mno-hw-mul\libc.a(lib_a-__atexit.o)
                              c:/altera/11.1sp2/nios2eds/bin/gnu/h-i686-mingw32/bin/../lib/gcc/nios2-elf/4.1.2/../../../../nios2-elf/lib/mno-hw-mul\libc.a(lib_a-atexit.o) (__register_exitproc)
c:/altera/11.1sp2/nios2eds/bin/gnu/h-i686-mingw32/bin/../lib/gcc/nios2-elf/4.1.2/../../../../nios2-elf/lib/mno-hw-mul\libc.a(lib_a-__call_atexit.o)
                              c:/altera/11.1sp2/nios2eds/bin/gnu/h-i686-mingw32/bin/../lib/gcc/nios2-elf/4.1.2/../../../../nios2-elf/lib/mno-hw-mul\libc.a(lib_a-exit.o) (__call_exitprocs)
c:/altera/11.1sp2/nios2eds/bin/gnu/h-i686-mingw32/bin/../lib/gcc/nios2-elf/4.1.2/../../../../nios2-elf/lib/mno-hw-mul\libc.a(lib_a-fflush.o)
                              c:/altera/11.1sp2/nios2eds/bin/gnu/h-i686-mingw32/bin/../lib/gcc/nios2-elf/4.1.2/../../../../nios2-elf/lib/mno-hw-mul\libc.a(lib_a-fvwrite.o) (_fflush_r)
c:/altera/11.1sp2/nios2eds/bin/gnu/h-i686-mingw32/bin/../lib/gcc/nios2-elf/4.1.2/../../../../nios2-elf/lib/mno-hw-mul\libc.a(lib_a-findfp.o)
                              c:/altera/11.1sp2/nios2eds/bin/gnu/h-i686-mingw32/bin/../lib/gcc/nios2-elf/4.1.2/../../../../nios2-elf/lib/mno-hw-mul\libc.a(lib_a-fputs.o) (__sinit)
c:/altera/11.1sp2/nios2eds/bin/gnu/h-i686-mingw32/bin/../lib/gcc/nios2-elf/4.1.2/../../../../nios2-elf/lib/mno-hw-mul\libc.a(lib_a-freer.o)
                              c:/altera/11.1sp2/nios2eds/bin/gnu/h-i686-mingw32/bin/../lib/gcc/nios2-elf/4.1.2/../../../../nios2-elf/lib/mno-hw-mul\libc.a(lib_a-fvwrite.o) (_free_r)
c:/altera/11.1sp2/nios2eds/bin/gnu/h-i686-mingw32/bin/../lib/gcc/nios2-elf/4.1.2/../../../../nios2-elf/lib/mno-hw-mul\libc.a(lib_a-fwalk.o)
                              c:/altera/11.1sp2/nios2eds/bin/gnu/h-i686-mingw32/bin/../lib/gcc/nios2-elf/4.1.2/../../../../nios2-elf/lib/mno-hw-mul\libc.a(lib_a-fflush.o) (_fwalk_reent)
c:/altera/11.1sp2/nios2eds/bin/gnu/h-i686-mingw32/bin/../lib/gcc/nios2-elf/4.1.2/../../../../nios2-elf/lib/mno-hw-mul\libc.a(lib_a-makebuf.o)
                              c:/altera/11.1sp2/nios2eds/bin/gnu/h-i686-mingw32/bin/../lib/gcc/nios2-elf/4.1.2/../../../../nios2-elf/lib/mno-hw-mul\libc.a(lib_a-wsetup.o) (__smakebuf_r)
c:/altera/11.1sp2/nios2eds/bin/gnu/h-i686-mingw32/bin/../lib/gcc/nios2-elf/4.1.2/../../../../nios2-elf/lib/mno-hw-mul\libc.a(lib_a-memset.o)
                              c:/altera/11.1sp2/nios2eds/bin/gnu/h-i686-mingw32/bin/../lib/gcc/nios2-elf/4.1.2/../../../../nios2-elf/lib/mno-hw-mul\libc.a(lib_a-findfp.o) (memset)
c:/altera/11.1sp2/nios2eds/bin/gnu/h-i686-mingw32/bin/../lib/gcc/nios2-elf/4.1.2/../../../../nios2-elf/lib/mno-hw-mul\libc.a(lib_a-stdio.o)
                              c:/altera/11.1sp2/nios2eds/bin/gnu/h-i686-mingw32/bin/../lib/gcc/nios2-elf/4.1.2/../../../../nios2-elf/lib/mno-hw-mul\libc.a(lib_a-findfp.o) (__sclose)
c:/altera/11.1sp2/nios2eds/bin/gnu/h-i686-mingw32/bin/../lib/gcc/nios2-elf/4.1.2/../../../../nios2-elf/lib/mno-hw-mul\libc.a(lib_a-writer.o)
                              c:/altera/11.1sp2/nios2eds/bin/gnu/h-i686-mingw32/bin/../lib/gcc/nios2-elf/4.1.2/../../../../nios2-elf/lib/mno-hw-mul\libc.a(lib_a-stdio.o) (_write_r)
c:/altera/11.1sp2/nios2eds/bin/gnu/h-i686-mingw32/bin/../lib/gcc/nios2-elf/4.1.2/../../../../nios2-elf/lib/mno-hw-mul\libc.a(lib_a-closer.o)
                              c:/altera/11.1sp2/nios2eds/bin/gnu/h-i686-mingw32/bin/../lib/gcc/nios2-elf/4.1.2/../../../../nios2-elf/lib/mno-hw-mul\libc.a(lib_a-stdio.o) (_close_r)
c:/altera/11.1sp2/nios2eds/bin/gnu/h-i686-mingw32/bin/../lib/gcc/nios2-elf/4.1.2/../../../../nios2-elf/lib/mno-hw-mul\libc.a(lib_a-fclose.o)
                              c:/altera/11.1sp2/nios2eds/bin/gnu/h-i686-mingw32/bin/../lib/gcc/nios2-elf/4.1.2/../../../../nios2-elf/lib/mno-hw-mul\libc.a(lib_a-findfp.o) (fclose)
c:/altera/11.1sp2/nios2eds/bin/gnu/h-i686-mingw32/bin/../lib/gcc/nios2-elf/4.1.2/../../../../nios2-elf/lib/mno-hw-mul\libc.a(lib_a-fstatr.o)
                              c:/altera/11.1sp2/nios2eds/bin/gnu/h-i686-mingw32/bin/../lib/gcc/nios2-elf/4.1.2/../../../../nios2-elf/lib/mno-hw-mul\libc.a(lib_a-makebuf.o) (_fstat_r)
c:/altera/11.1sp2/nios2eds/bin/gnu/h-i686-mingw32/bin/../lib/gcc/nios2-elf/4.1.2/../../../../nios2-elf/lib/mno-hw-mul\libc.a(lib_a-isattyr.o)
                              c:/altera/11.1sp2/nios2eds/bin/gnu/h-i686-mingw32/bin/../lib/gcc/nios2-elf/4.1.2/../../../../nios2-elf/lib/mno-hw-mul\libc.a(lib_a-makebuf.o) (_isatty_r)
c:/altera/11.1sp2/nios2eds/bin/gnu/h-i686-mingw32/bin/../lib/gcc/nios2-elf/4.1.2/../../../../nios2-elf/lib/mno-hw-mul\libc.a(lib_a-lseekr.o)
                              c:/altera/11.1sp2/nios2eds/bin/gnu/h-i686-mingw32/bin/../lib/gcc/nios2-elf/4.1.2/../../../../nios2-elf/lib/mno-hw-mul\libc.a(lib_a-stdio.o) (_lseek_r)
c:/altera/11.1sp2/nios2eds/bin/gnu/h-i686-mingw32/bin/../lib/gcc/nios2-elf/4.1.2/../../../../nios2-elf/lib/mno-hw-mul\libc.a(lib_a-readr.o)
                              c:/altera/11.1sp2/nios2eds/bin/gnu/h-i686-mingw32/bin/../lib/gcc/nios2-elf/4.1.2/../../../../nios2-elf/lib/mno-hw-mul\libc.a(lib_a-stdio.o) (_read_r)
c:/altera/11.1sp2/nios2eds/bin/gnu/h-i686-mingw32/bin/../lib/gcc/nios2-elf/4.1.2/mno-hw-mul\libgcc.a(lib2-mul.o)
                              G:/WorK/Synesthesia/github/synesthesia_zen/wxp/dgn/sw/limbus_bsp/\libchibios_v240_bsp.a(alt_close.o) (__mulsi3)
G:/WorK/Synesthesia/github/synesthesia_zen/wxp/dgn/sw/limbus_bsp/\libchibios_v240_bsp.a(alt_exit.o)
                              c:/altera/11.1sp2/nios2eds/bin/gnu/h-i686-mingw32/bin/../lib/gcc/nios2-elf/4.1.2/../../../../nios2-elf/lib/mno-hw-mul\libc.a(lib_a-exit.o) (_exit)
G:/WorK/Synesthesia/github/synesthesia_zen/wxp/dgn/sw/limbus_bsp/\libchibios_v240_bsp.a(alt_fstat.o)
                              c:/altera/11.1sp2/nios2eds/bin/gnu/h-i686-mingw32/bin/../lib/gcc/nios2-elf/4.1.2/../../../../nios2-elf/lib/mno-hw-mul\libc.a(lib_a-fstatr.o) (fstat)
G:/WorK/Synesthesia/github/synesthesia_zen/wxp/dgn/sw/limbus_bsp/\libchibios_v240_bsp.a(alt_isatty.o)
                              c:/altera/11.1sp2/nios2eds/bin/gnu/h-i686-mingw32/bin/../lib/gcc/nios2-elf/4.1.2/../../../../nios2-elf/lib/mno-hw-mul\libc.a(lib_a-isattyr.o) (isatty)
G:/WorK/Synesthesia/github/synesthesia_zen/wxp/dgn/sw/limbus_bsp/\libchibios_v240_bsp.a(alt_lseek.o)
                              c:/altera/11.1sp2/nios2eds/bin/gnu/h-i686-mingw32/bin/../lib/gcc/nios2-elf/4.1.2/../../../../nios2-elf/lib/mno-hw-mul\libc.a(lib_a-lseekr.o) (lseek)
G:/WorK/Synesthesia/github/synesthesia_zen/wxp/dgn/sw/limbus_bsp/\libchibios_v240_bsp.a(alt_malloc_lock.o)
                              c:/altera/11.1sp2/nios2eds/bin/gnu/h-i686-mingw32/bin/../lib/gcc/nios2-elf/4.1.2/../../../../nios2-elf/lib/mno-hw-mul\libc.a(lib_a-mallocr.o) (__malloc_lock)
G:/WorK/Synesthesia/github/synesthesia_zen/wxp/dgn/sw/limbus_bsp/\libchibios_v240_bsp.a(alt_read.o)
                              c:/altera/11.1sp2/nios2eds/bin/gnu/h-i686-mingw32/bin/../lib/gcc/nios2-elf/4.1.2/../../../../nios2-elf/lib/mno-hw-mul\libc.a(lib_a-readr.o) (read)
G:/WorK/Synesthesia/github/synesthesia_zen/wxp/dgn/sw/limbus_bsp/\libchibios_v240_bsp.a(alt_sbrk.o)
                              c:/altera/11.1sp2/nios2eds/bin/gnu/h-i686-mingw32/bin/../lib/gcc/nios2-elf/4.1.2/../../../../nios2-elf/lib/mno-hw-mul\libc.a(lib_a-sbrkr.o) (sbrk)
G:/WorK/Synesthesia/github/synesthesia_zen/wxp/dgn/sw/limbus_bsp/\libchibios_v240_bsp.a(alt_write.o)
                              c:/altera/11.1sp2/nios2eds/bin/gnu/h-i686-mingw32/bin/../lib/gcc/nios2-elf/4.1.2/../../../../nios2-elf/lib/mno-hw-mul\libc.a(lib_a-writer.o) (write)

Allocating common symbols
Common symbol       size              file

alt_irq             0x100             G:/WorK/Synesthesia/github/synesthesia_zen/wxp/dgn/sw/limbus_bsp/\libchibios_v240_bsp.a(alt_irq_handler.o)
errno               0x4               c:/altera/11.1sp2/nios2eds/bin/gnu/h-i686-mingw32/bin/../lib/gcc/nios2-elf/4.1.2/../../../../nios2-elf/lib/mno-hw-mul\libc.a(lib_a-int_errno.o)
vtlist              0x10              G:/WorK/Synesthesia/github/synesthesia_zen/wxp/dgn/sw/limbus_bsp/\libchibios_v240_bsp.a(chvt.o)
rlist               0x20              G:/WorK/Synesthesia/github/synesthesia_zen/wxp/dgn/sw/limbus_bsp/\libchibios_v240_bsp.a(chschd.o)
_atexit0            0x190             c:/altera/11.1sp2/nios2eds/bin/gnu/h-i686-mingw32/bin/../lib/gcc/nios2-elf/4.1.2/../../../../nios2-elf/lib/mno-hw-mul\libc.a(lib_a-atexit.o)
_idle_thread_wa     0x1c0             G:/WorK/Synesthesia/github/synesthesia_zen/wxp/dgn/sw/limbus_bsp/\libchibios_v240_bsp.a(chsys.o)

Memory Configuration

Name             Origin             Length             Attributes
reset            0x01800000         0x00000020
sdram            0x01800020         0x007fffe0
*default*        0x00000000         0xffffffff

Linker script and memory map

LOAD G:/WorK/Synesthesia/github/synesthesia_zen/wxp/dgn/sw/limbus_bsp//obj/HAL/src/crt0.o
LOAD obj/default/ledos/cortex/vcortex/gpu/gpu.o
LOAD obj/default/ledos/cortex/vcortex/vga/vga.o
LOAD obj/default/ledos/graphics/graphics.o
LOAD obj/default/main.o
LOAD c:/altera/11.1sp2/nios2eds/bin/gnu/h-i686-mingw32/bin/../lib/gcc/nios2-elf/4.1.2/../../../../nios2-elf/lib/mno-hw-mul\libstdc++.a
LOAD c:/altera/11.1sp2/nios2eds/bin/gnu/h-i686-mingw32/bin/../lib/gcc/nios2-elf/4.1.2/../../../../nios2-elf/lib/mno-hw-mul\libm.a
LOAD c:/altera/11.1sp2/nios2eds/bin/gnu/h-i686-mingw32/bin/../lib/gcc/nios2-elf/4.1.2/mno-hw-mul\libgcc.a
START GROUP
LOAD c:/altera/11.1sp2/nios2eds/bin/gnu/h-i686-mingw32/bin/../lib/gcc/nios2-elf/4.1.2/../../../../nios2-elf/lib/mno-hw-mul\libc.a
LOAD c:/altera/11.1sp2/nios2eds/bin/gnu/h-i686-mingw32/bin/../lib/gcc/nios2-elf/4.1.2/mno-hw-mul\libgcc.a
LOAD G:/WorK/Synesthesia/github/synesthesia_zen/wxp/dgn/sw/limbus_bsp/\libchibios_v240_bsp.a
END GROUP
LOAD c:/altera/11.1sp2/nios2eds/bin/gnu/h-i686-mingw32/bin/../lib/gcc/nios2-elf/4.1.2/mno-hw-mul\libgcc.a
                0x01800000                __alt_mem_sdram = 0x1800000

.entry          0x01800000       0x20
 *(.entry)
 .entry         0x01800000       0x20 G:/WorK/Synesthesia/github/synesthesia_zen/wxp/dgn/sw/limbus_bsp//obj/HAL/src/crt0.o
                0x01800000                __reset

.exceptions     0x01800020      0x1a4
                0x01800020                PROVIDE (__ram_exceptions_start, ABSOLUTE (.))
                0x01800020                . = ALIGN (0x20)
 *(.irq)
 *(.exceptions.entry.label)
 .exceptions.entry.label
                0x01800020        0x0 G:/WorK/Synesthesia/github/synesthesia_zen/wxp/dgn/sw/limbus_bsp/\libchibios_v240_bsp.a(alt_irq_entry.o)
                0x01800020                alt_irq_entry
 .exceptions.entry.label
                0x01800020        0x0 G:/WorK/Synesthesia/github/synesthesia_zen/wxp/dgn/sw/limbus_bsp/\libchibios_v240_bsp.a(alt_exception_entry.o)
                0x01800020                alt_exception
 *(.exceptions.entry.user)
 *(.exceptions.entry)
 .exceptions.entry
                0x01800020       0x54 G:/WorK/Synesthesia/github/synesthesia_zen/wxp/dgn/sw/limbus_bsp/\libchibios_v240_bsp.a(alt_exception_entry.o)
 *(.exceptions.irqtest.user)
 *(.exceptions.irqtest)
 .exceptions.irqtest
                0x01800074       0x10 G:/WorK/Synesthesia/github/synesthesia_zen/wxp/dgn/sw/limbus_bsp/\libchibios_v240_bsp.a(alt_irq_entry.o)
 *(.exceptions.irqhandler.user)
 *(.exceptions.irqhandler)
 .exceptions.irqhandler
                0x01800084        0x4 G:/WorK/Synesthesia/github/synesthesia_zen/wxp/dgn/sw/limbus_bsp/\libchibios_v240_bsp.a(alt_irq_entry.o)
 *(.exceptions.irqreturn.user)
 *(.exceptions.irqreturn)
 .exceptions.irqreturn
                0x01800088        0x4 G:/WorK/Synesthesia/github/synesthesia_zen/wxp/dgn/sw/limbus_bsp/\libchibios_v240_bsp.a(alt_irq_entry.o)
 *(.exceptions.notirq.label)
 .exceptions.notirq.label
                0x0180008c        0x0 G:/WorK/Synesthesia/github/synesthesia_zen/wxp/dgn/sw/limbus_bsp/\libchibios_v240_bsp.a(alt_irq_entry.o)
 *(.exceptions.notirq.user)
 *(.exceptions.notirq)
 .exceptions.notirq
                0x0180008c        0x8 G:/WorK/Synesthesia/github/synesthesia_zen/wxp/dgn/sw/limbus_bsp/\libchibios_v240_bsp.a(alt_exception_entry.o)
 *(.exceptions.soft.user)
 *(.exceptions.soft)
 *(.exceptions.unknown.user)
 *(.exceptions.unknown)
 .exceptions.unknown
                0x01800094        0x4 G:/WorK/Synesthesia/github/synesthesia_zen/wxp/dgn/sw/limbus_bsp/\libchibios_v240_bsp.a(alt_exception_entry.o)
 *(.exceptions.exit.label)
 .exceptions.exit.label
                0x01800098        0x0 G:/WorK/Synesthesia/github/synesthesia_zen/wxp/dgn/sw/limbus_bsp/\libchibios_v240_bsp.a(alt_irq_entry.o)
 .exceptions.exit.label
                0x01800098        0x0 G:/WorK/Synesthesia/github/synesthesia_zen/wxp/dgn/sw/limbus_bsp/\libchibios_v240_bsp.a(alt_exception_entry.o)
 *(.exceptions.exit.user)
 *(.exceptions.exit)
 .exceptions.exit
                0x01800098       0x54 G:/WorK/Synesthesia/github/synesthesia_zen/wxp/dgn/sw/limbus_bsp/\libchibios_v240_bsp.a(alt_exception_entry.o)
 *(.exceptions)
 .exceptions    0x018000ec       0xd8 G:/WorK/Synesthesia/github/synesthesia_zen/wxp/dgn/sw/limbus_bsp/\libchibios_v240_bsp.a(alt_irq_handler.o)
                0x018000ec                alt_irq_handler
                0x018001c4                PROVIDE (__ram_exceptions_end, ABSOLUTE (.))
                0x01800020                PROVIDE (__flash_exceptions_start, LOADADDR (.exceptions))

.text           0x018001c4     0x91e8
                0x018001c4                PROVIDE (stext, ABSOLUTE (.))
 *(.interp)
 *(.hash)
 *(.dynsym)
 *(.dynstr)
 *(.gnu.version)
 *(.gnu.version_d)
 *(.gnu.version_r)
 *(.rel.init)
 *(.rela.init)
 *(.rel.text .rel.text.* .rel.gnu.linkonce.t.*)
 *(.rela.text .rela.text.* .rela.gnu.linkonce.t.*)
 *(.rel.fini)
 *(.rela.fini)
 *(.rel.rodata .rel.rodata.* .rel.gnu.linkonce.r.*)
 *(.rela.rodata .rela.rodata.* .rela.gnu.linkonce.r.*)
 *(.rel.data .rel.data.* .rel.gnu.linkonce.d.*)
 *(.rela.data .rela.data.* .rela.gnu.linkonce.d.*)
 *(.rel.tdata .rel.tdata.* .rel.gnu.linkonce.td.*)
 *(.rela.tdata .rela.tdata.* .rela.gnu.linkonce.td.*)
 *(.rel.tbss .rel.tbss.* .rel.gnu.linkonce.tb.*)
 *(.rela.tbss .rela.tbss.* .rela.gnu.linkonce.tb.*)
 *(.rel.ctors)
 *(.rela.ctors)
 *(.rel.dtors)
 *(.rela.dtors)
 *(.rel.got)
 *(.rela.got)
 *(.rel.sdata .rel.sdata.* .rel.gnu.linkonce.s.*)
 *(.rela.sdata .rela.sdata.* .rela.gnu.linkonce.s.*)
 *(.rel.sbss .rel.sbss.* .rel.gnu.linkonce.sb.*)
 *(.rela.sbss .rela.sbss.* .rela.gnu.linkonce.sb.*)
 *(.rel.sdata2 .rel.sdata2.* .rel.gnu.linkonce.s2.*)
 *(.rela.sdata2 .rela.sdata2.* .rela.gnu.linkonce.s2.*)
 *(.rel.sbss2 .rel.sbss2.* .rel.gnu.linkonce.sb2.*)
 *(.rela.sbss2 .rela.sbss2.* .rela.gnu.linkonce.sb2.*)
 *(.rel.bss .rel.bss.* .rel.gnu.linkonce.b.*)
 *(.rela.bss .rela.bss.* .rela.gnu.linkonce.b.*)
 *(.rel.plt)
 *(.rela.plt)
 *(.rel.dyn)
 *(.init)
 *(.plt)
 *(.text .stub .text.* .gnu.linkonce.t.*)
 .text          0x018001c4       0x3c G:/WorK/Synesthesia/github/synesthesia_zen/wxp/dgn/sw/limbus_bsp//obj/HAL/src/crt0.o
                0x018001c4                _start
 .text          0x01800200        0x0 obj/default/ledos/cortex/vcortex/gpu/gpu.o
 .text          0x01800200       0x60 obj/default/ledos/cortex/vcortex/vga/vga.o
                0x01800200                set_vga_mode
                0x0180022c                vga_disable
                0x01800248                vga_en
 .text          0x01800260      0x588 obj/default/ledos/graphics/graphics.o
                0x01800260                gpu_hst_acc
                0x018003c8                gpu_fill
                0x01800514                gpu_draw_bezier
                0x01800690                gpu_draw_line
                0x018007c8                disable_gpu
                0x018007d8                enable_gpu
 .text          0x018007e8      0x200 obj/default/main.o
                0x018007e8                main
 .text          0x018009e8      0x7e4 G:/WorK/Synesthesia/github/synesthesia_zen/wxp/dgn/sw/limbus_bsp/\libchibios_v240_bsp.a(chthreads.o)
                0x018009e8                _thread_init
                0x01800aec                chThdCreateI
                0x01800c44                chThdCreateStatic
                0x01800cd0                chThdSetPriority
                0x01800da0                chThdResume
                0x01800e00                chThdTerminate
                0x01800e60                chThdSleep
                0x01800ebc                chThdSleepUntil
                0x01800f3c                chThdYield
                0x01800fb0                chThdExit
                0x01800ff8                chThdExitS
                0x018010f0                chThdWait
 .text          0x018011cc      0x2a8 G:/WorK/Synesthesia/github/synesthesia_zen/wxp/dgn/sw/limbus_bsp/\libchibios_v240_bsp.a(chvt.o)
                0x018011cc                _vt_init
                0x01801230                chVTSetI
                0x01801344                chVTResetI
                0x018013cc                chTimeIsWithin
 .text          0x01801474       0x8c G:/WorK/Synesthesia/github/synesthesia_zen/wxp/dgn/sw/limbus_bsp/\libchibios_v240_bsp.a(chcoreasm.o)
                0x01801474                _port_thread_start
                0x01801488                port_switch
 .text          0x01801500       0xec G:/WorK/Synesthesia/github/synesthesia_zen/wxp/dgn/sw/limbus_bsp/\libchibios_v240_bsp.a(alt_load.o)
                0x01801500                alt_load
 .text          0x018015ec       0x88 G:/WorK/Synesthesia/github/synesthesia_zen/wxp/dgn/sw/limbus_bsp/\libchibios_v240_bsp.a(alt_main.o)
                0x018015ec                alt_main
 .text          0x01801674      0x258 G:/WorK/Synesthesia/github/synesthesia_zen/wxp/dgn/sw/limbus_bsp/\libchibios_v240_bsp.a(alt_printf.o)
                0x01801674                alt_printf
 .text          0x018018cc       0x40 G:/WorK/Synesthesia/github/synesthesia_zen/wxp/dgn/sw/limbus_bsp/\libchibios_v240_bsp.a(alt_putchar.o)
                0x018018cc                alt_putchar
 .text          0x0180190c       0x40 G:/WorK/Synesthesia/github/synesthesia_zen/wxp/dgn/sw/limbus_bsp/\libchibios_v240_bsp.a(alt_putstr.o)
                0x0180190c                alt_putstr
 .text          0x0180194c       0xe8 G:/WorK/Synesthesia/github/synesthesia_zen/wxp/dgn/sw/limbus_bsp/\libchibios_v240_bsp.a(alt_sys_init.o)
                0x0180194c                alt_irq_init
                0x01801980                alt_sys_init
 .text          0x01801a34      0x148 G:/WorK/Synesthesia/github/synesthesia_zen/wxp/dgn/sw/limbus_bsp/\libchibios_v240_bsp.a(altera_avalon_jtag_uart_fd.o)
                0x01801a34                altera_avalon_jtag_uart_read_fd
                0x01801a8c                altera_avalon_jtag_uart_write_fd
                0x01801ae4                altera_avalon_jtag_uart_close_fd
                0x01801b2c                altera_avalon_jtag_uart_ioctl_fd
 .text          0x01801b7c      0x40c G:/WorK/Synesthesia/github/synesthesia_zen/wxp/dgn/sw/limbus_bsp/\libchibios_v240_bsp.a(altera_avalon_jtag_uart_init.o)
                0x01801b7c                altera_avalon_jtag_uart_init
                0x01801f14                altera_avalon_jtag_uart_close
 .text          0x01801f88       0xf4 G:/WorK/Synesthesia/github/synesthesia_zen/wxp/dgn/sw/limbus_bsp/\libchibios_v240_bsp.a(altera_avalon_jtag_uart_ioctl.o)
                0x01801f88                altera_avalon_jtag_uart_ioctl
 .text          0x0180207c      0x224 G:/WorK/Synesthesia/github/synesthesia_zen/wxp/dgn/sw/limbus_bsp/\libchibios_v240_bsp.a(altera_avalon_jtag_uart_read.o)
                0x0180207c                altera_avalon_jtag_uart_read
 .text          0x018022a0      0x240 G:/WorK/Synesthesia/github/synesthesia_zen/wxp/dgn/sw/limbus_bsp/\libchibios_v240_bsp.a(altera_avalon_jtag_uart_write.o)
                0x018022a0                altera_avalon_jtag_uart_write
 .text          0x018024e0      0x100 G:/WorK/Synesthesia/github/synesthesia_zen/wxp/dgn/sw/limbus_bsp/\libchibios_v240_bsp.a(altera_avalon_timer_sc.o)
                0x01802550                alt_avalon_timer_sc_init
 .text          0x018025e0       0xf8 G:/WorK/Synesthesia/github/synesthesia_zen/wxp/dgn/sw/limbus_bsp/\libchibios_v240_bsp.a(altera_avalon_uart_fd.o)
                0x018025e0                altera_avalon_uart_read_fd
                0x01802638                altera_avalon_uart_write_fd
                0x01802690                altera_avalon_uart_close_fd
 .text          0x018026d8      0x400 G:/WorK/Synesthesia/github/synesthesia_zen/wxp/dgn/sw/limbus_bsp/\libchibios_v240_bsp.a(altera_avalon_uart_init.o)
                0x018026d8                altera_avalon_uart_init
                0x01802a78                altera_avalon_uart_close
 .text          0x01802ad8      0x290 G:/WorK/Synesthesia/github/synesthesia_zen/wxp/dgn/sw/limbus_bsp/\libchibios_v240_bsp.a(altera_avalon_uart_read.o)
                0x01802ad8                altera_avalon_uart_read
 .text          0x01802d68      0x228 G:/WorK/Synesthesia/github/synesthesia_zen/wxp/dgn/sw/limbus_bsp/\libchibios_v240_bsp.a(altera_avalon_uart_write.o)
                0x01802d68                altera_avalon_uart_write
 .text          0x01802f90      0x32c G:/WorK/Synesthesia/github/synesthesia_zen/wxp/dgn/sw/limbus_bsp/\libchibios_v240_bsp.a(chdynamic.o)
                0x01802f90                chThdAddRef
                0x01802ff4                chThdRelease
                0x01803128                chThdCreateFromHeap
                0x018031ec                chThdCreateFromMemoryPool
 .text          0x018032bc      0x4ec G:/WorK/Synesthesia/github/synesthesia_zen/wxp/dgn/sw/limbus_bsp/\libchibios_v240_bsp.a(chheap.o)
                0x018032bc                _heap_init
                0x01803318                chHeapInit
                0x018033a0                chHeapAlloc
                0x01803558                chHeapFree
                0x018036e0                chHeapStatus
 .text          0x018037a8      0x154 G:/WorK/Synesthesia/github/synesthesia_zen/wxp/dgn/sw/limbus_bsp/\libchibios_v240_bsp.a(chmemcore.o)
                0x018037a8                _core_init
                0x018037f4                chCoreAlloc
                0x01803854                chCoreAllocI
                0x018038d0                chCoreStatus
 .text          0x018038fc      0x204 G:/WorK/Synesthesia/github/synesthesia_zen/wxp/dgn/sw/limbus_bsp/\libchibios_v240_bsp.a(chmempools.o)
                0x018038fc                chPoolInit
                0x0180395c                chPoolAllocI
                0x018039e0                chPoolAlloc
                0x01803a40                chPoolFreeI
                0x01803aa0                chPoolFree
 .text          0x01803b00      0x788 G:/WorK/Synesthesia/github/synesthesia_zen/wxp/dgn/sw/limbus_bsp/\libchibios_v240_bsp.a(chmtx.o)
                0x01803b00                chMtxInit
                0x01803b48                chMtxLock
                0x01803ba0                chMtxLockS
                0x01803de4                chMtxTryLock
                0x01803e44                chMtxTryLockS
                0x01803ec8                chMtxUnlock
                0x01804064                chMtxUnlockS
                0x01804184                chMtxUnlockAll
 .text          0x01804288      0x5bc G:/WorK/Synesthesia/github/synesthesia_zen/wxp/dgn/sw/limbus_bsp/\libchibios_v240_bsp.a(chschd.o)
                0x01804288                _scheduler_init
                0x01804318                chSchReadyI
                0x018043c0                chSchGoSleepS
                0x018045ac                chSchGoSleepTimeoutS
                0x0180463c                chSchWakeupS
                0x018046e8                chSchRescheduleS
                0x01804734                chSchIsPreemptionRequired
                0x018047b4                chSchDoReschedule
 .text          0x01804844      0x20c G:/WorK/Synesthesia/github/synesthesia_zen/wxp/dgn/sw/limbus_bsp/\libchibios_v240_bsp.a(chsys.o)
                0x01804844                _idle_thread
                0x01804874                chSysInit
                0x01804924                chSysTimerHandlerI
 .text          0x01804a50      0x154 G:/WorK/Synesthesia/github/synesthesia_zen/wxp/dgn/sw/limbus_bsp/\libchibios_v240_bsp.a(alt_alarm_start.o)
                0x01804a50                alt_alarm_start
 .text          0x01804ba4      0x160 G:/WorK/Synesthesia/github/synesthesia_zen/wxp/dgn/sw/limbus_bsp/\libchibios_v240_bsp.a(alt_close.o)
                0x01804ba4                close
 .text          0x01804d04       0x1c G:/WorK/Synesthesia/github/synesthesia_zen/wxp/dgn/sw/limbus_bsp/\libchibios_v240_bsp.a(alt_dcache_flush_all.o)
                0x01804d04                alt_dcache_flush_all
 .text          0x01804d20       0x2c G:/WorK/Synesthesia/github/synesthesia_zen/wxp/dgn/sw/limbus_bsp/\libchibios_v240_bsp.a(alt_dev.o)
 .text          0x01804d4c      0x114 G:/WorK/Synesthesia/github/synesthesia_zen/wxp/dgn/sw/limbus_bsp/\libchibios_v240_bsp.a(alt_dev_llist_insert.o)
                0x01804d4c                alt_dev_llist_insert
 .text          0x01804e60       0x64 G:/WorK/Synesthesia/github/synesthesia_zen/wxp/dgn/sw/limbus_bsp/\libchibios_v240_bsp.a(alt_do_ctors.o)
                0x01804e60                _do_ctors
 .text          0x01804ec4       0x64 G:/WorK/Synesthesia/github/synesthesia_zen/wxp/dgn/sw/limbus_bsp/\libchibios_v240_bsp.a(alt_do_dtors.o)
                0x01804ec4                _do_dtors
 .text          0x01804f28        0x0 G:/WorK/Synesthesia/github/synesthesia_zen/wxp/dgn/sw/limbus_bsp/\libchibios_v240_bsp.a(alt_errno.o)
 .text          0x01804f28       0x1c G:/WorK/Synesthesia/github/synesthesia_zen/wxp/dgn/sw/limbus_bsp/\libchibios_v240_bsp.a(alt_icache_flush_all.o)
                0x01804f28                alt_icache_flush_all
 .text          0x01804f44      0x1d4 G:/WorK/Synesthesia/github/synesthesia_zen/wxp/dgn/sw/limbus_bsp/\libchibios_v240_bsp.a(alt_iic.o)
                0x01804f44                alt_ic_isr_register
                0x01804f94                alt_ic_irq_enable
                0x01805030                alt_ic_irq_disable
                0x018050d0                alt_ic_irq_enabled
 .text          0x01805118       0xf8 G:/WorK/Synesthesia/github/synesthesia_zen/wxp/dgn/sw/limbus_bsp/\libchibios_v240_bsp.a(alt_iic_isr_register.o)
                0x01805118                alt_iic_isr_register
 .text          0x01805210      0x150 G:/WorK/Synesthesia/github/synesthesia_zen/wxp/dgn/sw/limbus_bsp/\libchibios_v240_bsp.a(alt_io_redirect.o)
                0x018052e8                alt_io_redirect
 .text          0x01805360        0x0 G:/WorK/Synesthesia/github/synesthesia_zen/wxp/dgn/sw/limbus_bsp/\libchibios_v240_bsp.a(alt_irq_entry.o)
 .text          0x01805360        0x0 G:/WorK/Synesthesia/github/synesthesia_zen/wxp/dgn/sw/limbus_bsp/\libchibios_v240_bsp.a(alt_irq_handler.o)
 .text          0x01805360        0x0 G:/WorK/Synesthesia/github/synesthesia_zen/wxp/dgn/sw/limbus_bsp/\libchibios_v240_bsp.a(alt_irq_vars.o)
 .text          0x01805360      0x2e4 G:/WorK/Synesthesia/github/synesthesia_zen/wxp/dgn/sw/limbus_bsp/\libchibios_v240_bsp.a(alt_open.o)
                0x01805458                open
 .text          0x01805644       0x78 G:/WorK/Synesthesia/github/synesthesia_zen/wxp/dgn/sw/limbus_bsp/\libchibios_v240_bsp.a(alt_release_fd.o)
                0x01805644                alt_release_fd
 .text          0x018056bc      0x1a8 G:/WorK/Synesthesia/github/synesthesia_zen/wxp/dgn/sw/limbus_bsp/\libchibios_v240_bsp.a(alt_tick.o)
                0x018056bc                alt_alarm_stop
                0x01805754                alt_tick
 .text          0x01805864       0x20 G:/WorK/Synesthesia/github/synesthesia_zen/wxp/dgn/sw/limbus_bsp/\libchibios_v240_bsp.a(altera_nios2_qsys_irq.o)
                0x01805864                altera_nios2_qsys_irq_init
 .text          0x01805884       0x50 G:/WorK/Synesthesia/github/synesthesia_zen/wxp/dgn/sw/limbus_bsp/\libchibios_v240_bsp.a(chcore.o)
                0x01805884                port_halt
                0x018058ac                port_time_tick
 .text          0x018058d4        0x0 G:/WorK/Synesthesia/github/synesthesia_zen/wxp/dgn/sw/limbus_bsp/\libchibios_v240_bsp.a(alt_exception_entry.o)
 .text          0x018058d4       0x94 G:/WorK/Synesthesia/github/synesthesia_zen/wxp/dgn/sw/limbus_bsp/\libchibios_v240_bsp.a(alt_find_dev.o)
                0x018058d4                alt_find_dev
 .text          0x01805968      0x120 G:/WorK/Synesthesia/github/synesthesia_zen/wxp/dgn/sw/limbus_bsp/\libchibios_v240_bsp.a(alt_find_file.o)
                0x01805968                alt_find_file
 .text          0x01805a88       0xd0 G:/WorK/Synesthesia/github/synesthesia_zen/wxp/dgn/sw/limbus_bsp/\libchibios_v240_bsp.a(alt_get_fd.o)
                0x01805a88                alt_get_fd
 .text          0x01805b58       0x14 c:/altera/11.1sp2/nios2eds/bin/gnu/h-i686-mingw32/bin/../lib/gcc/nios2-elf/4.1.2/../../../../nios2-elf/lib/mno-hw-mul\libc.a(lib_a-atexit.o)
                0x01805b58                atexit
 .text          0x01805b6c       0x38 c:/altera/11.1sp2/nios2eds/bin/gnu/h-i686-mingw32/bin/../lib/gcc/nios2-elf/4.1.2/../../../../nios2-elf/lib/mno-hw-mul\libc.a(lib_a-exit.o)
                0x01805b6c                exit
 .text          0x01805ba4       0x90 c:/altera/11.1sp2/nios2eds/bin/gnu/h-i686-mingw32/bin/../lib/gcc/nios2-elf/4.1.2/../../../../nios2-elf/lib/mno-hw-mul\libc.a(lib_a-fputs.o)
                0x01805ba4                _fputs_r
                0x01805c18                fputs
 .text          0x01805c34      0x49c c:/altera/11.1sp2/nios2eds/bin/gnu/h-i686-mingw32/bin/../lib/gcc/nios2-elf/4.1.2/../../../../nios2-elf/lib/mno-hw-mul\libc.a(lib_a-fvwrite.o)
                0x01805c34                __sfvwrite_r
 .text          0x018060d0        0x0 c:/altera/11.1sp2/nios2eds/bin/gnu/h-i686-mingw32/bin/../lib/gcc/nios2-elf/4.1.2/../../../../nios2-elf/lib/mno-hw-mul\libc.a(lib_a-impure.o)
 .text          0x018060d0        0x0 c:/altera/11.1sp2/nios2eds/bin/gnu/h-i686-mingw32/bin/../lib/gcc/nios2-elf/4.1.2/../../../../nios2-elf/lib/mno-hw-mul\libc.a(lib_a-int_errno.o)
 .text          0x018060d0      0x740 c:/altera/11.1sp2/nios2eds/bin/gnu/h-i686-mingw32/bin/../lib/gcc/nios2-elf/4.1.2/../../../../nios2-elf/lib/mno-hw-mul\libc.a(lib_a-mallocr.o)
                0x018060d0                _malloc_r
 .text          0x01806810       0xe4 c:/altera/11.1sp2/nios2eds/bin/gnu/h-i686-mingw32/bin/../lib/gcc/nios2-elf/4.1.2/../../../../nios2-elf/lib/mno-hw-mul\libc.a(lib_a-memchr.o)
                0x01806810                memchr
 .text          0x018068f4       0x74 c:/altera/11.1sp2/nios2eds/bin/gnu/h-i686-mingw32/bin/../lib/gcc/nios2-elf/4.1.2/../../../../nios2-elf/lib/mno-hw-mul\libc.a(lib_a-memcmp.o)
                0x018068f4                memcmp
 .text          0x01806968       0xa0 c:/altera/11.1sp2/nios2eds/bin/gnu/h-i686-mingw32/bin/../lib/gcc/nios2-elf/4.1.2/../../../../nios2-elf/lib/mno-hw-mul\libc.a(lib_a-memcpy.o)
                0x01806968                memcpy
 .text          0x01806a08       0xe0 c:/altera/11.1sp2/nios2eds/bin/gnu/h-i686-mingw32/bin/../lib/gcc/nios2-elf/4.1.2/../../../../nios2-elf/lib/mno-hw-mul\libc.a(lib_a-memmove.o)
                0x01806a08                memmove
 .text          0x01806ae8      0x1ec c:/altera/11.1sp2/nios2eds/bin/gnu/h-i686-mingw32/bin/../lib/gcc/nios2-elf/4.1.2/../../../../nios2-elf/lib/mno-hw-mul\libc.a(lib_a-putc.o)
                0x01806ae8                putc
                0x01806bec                _putc_r
 .text          0x01806cd4      0x5f4 c:/altera/11.1sp2/nios2eds/bin/gnu/h-i686-mingw32/bin/../lib/gcc/nios2-elf/4.1.2/../../../../nios2-elf/lib/mno-hw-mul\libc.a(lib_a-reallocr.o)
                0x01806cd4                _realloc_r
 .text          0x018072c8       0x70 c:/altera/11.1sp2/nios2eds/bin/gnu/h-i686-mingw32/bin/../lib/gcc/nios2-elf/4.1.2/../../../../nios2-elf/lib/mno-hw-mul\libc.a(lib_a-sbrkr.o)
                0x018072c8                _sbrk_r
 .text          0x01807338       0x74 c:/altera/11.1sp2/nios2eds/bin/gnu/h-i686-mingw32/bin/../lib/gcc/nios2-elf/4.1.2/../../../../nios2-elf/lib/mno-hw-mul\libc.a(lib_a-strlen.o)
                0x01807338                strlen
 .text          0x018073ac      0x14c c:/altera/11.1sp2/nios2eds/bin/gnu/h-i686-mingw32/bin/../lib/gcc/nios2-elf/4.1.2/../../../../nios2-elf/lib/mno-hw-mul\libc.a(lib_a-wbuf.o)
                0x018073ac                __swbuf_r
                0x018074dc                __swbuf
 .text          0x018074f8      0x13c c:/altera/11.1sp2/nios2eds/bin/gnu/h-i686-mingw32/bin/../lib/gcc/nios2-elf/4.1.2/../../../../nios2-elf/lib/mno-hw-mul\libc.a(lib_a-wsetup.o)
                0x018074f8                __swsetup_r
 .text          0x01807634      0x134 c:/altera/11.1sp2/nios2eds/bin/gnu/h-i686-mingw32/bin/../lib/gcc/nios2-elf/4.1.2/../../../../nios2-elf/lib/mno-hw-mul\libc.a(lib_a-__atexit.o)
                0x01807634                __register_exitproc
 .text          0x01807768      0x1b4 c:/altera/11.1sp2/nios2eds/bin/gnu/h-i686-mingw32/bin/../lib/gcc/nios2-elf/4.1.2/../../../../nios2-elf/lib/mno-hw-mul\libc.a(lib_a-__call_atexit.o)
                0x0180776c                __call_exitprocs
 .text          0x0180791c      0x230 c:/altera/11.1sp2/nios2eds/bin/gnu/h-i686-mingw32/bin/../lib/gcc/nios2-elf/4.1.2/../../../../nios2-elf/lib/mno-hw-mul\libc.a(lib_a-fflush.o)
                0x0180791c                _fflush_r
                0x01807b18                fflush
 .text          0x01807b4c      0x2f4 c:/altera/11.1sp2/nios2eds/bin/gnu/h-i686-mingw32/bin/../lib/gcc/nios2-elf/4.1.2/../../../../nios2-elf/lib/mno-hw-mul\libc.a(lib_a-findfp.o)
                0x01807ba4                __sfp_lock_acquire
                0x01807ba8                __sfp_lock_release
                0x01807bac                __sinit_lock_acquire
                0x01807bb0                __sinit_lock_release
                0x01807bb4                __sinit
                0x01807c68                __fp_unlock_all
                0x01807c80                __fp_lock_all
                0x01807c98                _cleanup_r
                0x01807ca4                _cleanup
                0x01807cb4                __sfmoreglue
                0x01807d50                __sfp
 .text          0x01807e40      0x440 c:/altera/11.1sp2/nios2eds/bin/gnu/h-i686-mingw32/bin/../lib/gcc/nios2-elf/4.1.2/../../../../nios2-elf/lib/mno-hw-mul\libc.a(lib_a-freer.o)
                0x01807e40                _malloc_trim_r
                0x01807f6c                _free_r
 .text          0x01808280      0x180 c:/altera/11.1sp2/nios2eds/bin/gnu/h-i686-mingw32/bin/../lib/gcc/nios2-elf/4.1.2/../../../../nios2-elf/lib/mno-hw-mul\libc.a(lib_a-fwalk.o)
                0x01808280                _fwalk_reent
                0x01808348                _fwalk
 .text          0x01808400      0x194 c:/altera/11.1sp2/nios2eds/bin/gnu/h-i686-mingw32/bin/../lib/gcc/nios2-elf/4.1.2/../../../../nios2-elf/lib/mno-hw-mul\libc.a(lib_a-makebuf.o)
                0x01808400                __smakebuf_r
 .text          0x01808594       0x98 c:/altera/11.1sp2/nios2eds/bin/gnu/h-i686-mingw32/bin/../lib/gcc/nios2-elf/4.1.2/../../../../nios2-elf/lib/mno-hw-mul\libc.a(lib_a-memset.o)
                0x01808594                memset
 .text          0x0180862c      0x14c c:/altera/11.1sp2/nios2eds/bin/gnu/h-i686-mingw32/bin/../lib/gcc/nios2-elf/4.1.2/../../../../nios2-elf/lib/mno-hw-mul\libc.a(lib_a-stdio.o)
                0x0180862c                __sclose
                0x01808634                __sseek
                0x0180869c                __swrite
                0x01808718                __sread
 .text          0x01808778       0x78 c:/altera/11.1sp2/nios2eds/bin/gnu/h-i686-mingw32/bin/../lib/gcc/nios2-elf/4.1.2/../../../../nios2-elf/lib/mno-hw-mul\libc.a(lib_a-writer.o)
                0x01808778                _write_r
 .text          0x018087f0       0x70 c:/altera/11.1sp2/nios2eds/bin/gnu/h-i686-mingw32/bin/../lib/gcc/nios2-elf/4.1.2/../../../../nios2-elf/lib/mno-hw-mul\libc.a(lib_a-closer.o)
                0x018087f0                _close_r
 .text          0x01808860      0x124 c:/altera/11.1sp2/nios2eds/bin/gnu/h-i686-mingw32/bin/../lib/gcc/nios2-elf/4.1.2/../../../../nios2-elf/lib/mno-hw-mul\libc.a(lib_a-fclose.o)
                0x01808860                _fclose_r
                0x01808970                fclose
 .text          0x01808984       0x74 c:/altera/11.1sp2/nios2eds/bin/gnu/h-i686-mingw32/bin/../lib/gcc/nios2-elf/4.1.2/../../../../nios2-elf/lib/mno-hw-mul\libc.a(lib_a-fstatr.o)
                0x01808984                _fstat_r
 .text          0x018089f8       0x70 c:/altera/11.1sp2/nios2eds/bin/gnu/h-i686-mingw32/bin/../lib/gcc/nios2-elf/4.1.2/../../../../nios2-elf/lib/mno-hw-mul\libc.a(lib_a-isattyr.o)
                0x018089f8                _isatty_r
 .text          0x01808a68       0x78 c:/altera/11.1sp2/nios2eds/bin/gnu/h-i686-mingw32/bin/../lib/gcc/nios2-elf/4.1.2/../../../../nios2-elf/lib/mno-hw-mul\libc.a(lib_a-lseekr.o)
                0x01808a68                _lseek_r
 .text          0x01808ae0       0x78 c:/altera/11.1sp2/nios2eds/bin/gnu/h-i686-mingw32/bin/../lib/gcc/nios2-elf/4.1.2/../../../../nios2-elf/lib/mno-hw-mul\libc.a(lib_a-readr.o)
                0x01808ae0                _read_r
 .text          0x01808b58       0x38 c:/altera/11.1sp2/nios2eds/bin/gnu/h-i686-mingw32/bin/../lib/gcc/nios2-elf/4.1.2/mno-hw-mul\libgcc.a(lib2-mul.o)
                0x01808b58                __mulsi3
 .text          0x01808b90       0x64 G:/WorK/Synesthesia/github/synesthesia_zen/wxp/dgn/sw/limbus_bsp/\libchibios_v240_bsp.a(alt_exit.o)
                0x01808bd0                _exit
 .text          0x01808bf4      0x138 G:/WorK/Synesthesia/github/synesthesia_zen/wxp/dgn/sw/limbus_bsp/\libchibios_v240_bsp.a(alt_fstat.o)
                0x01808bf4                fstat
 .text          0x01808d2c      0x124 G:/WorK/Synesthesia/github/synesthesia_zen/wxp/dgn/sw/limbus_bsp/\libchibios_v240_bsp.a(alt_isatty.o)
                0x01808d2c                isatty
 .text          0x01808e50      0x154 G:/WorK/Synesthesia/github/synesthesia_zen/wxp/dgn/sw/limbus_bsp/\libchibios_v240_bsp.a(alt_lseek.o)
                0x01808e50                lseek
 .text          0x01808fa4       0x40 G:/WorK/Synesthesia/github/synesthesia_zen/wxp/dgn/sw/limbus_bsp/\libchibios_v240_bsp.a(alt_malloc_lock.o)
                0x01808fa4                __malloc_lock
                0x01808fc4                __malloc_unlock
 .text          0x01808fe4      0x184 G:/WorK/Synesthesia/github/synesthesia_zen/wxp/dgn/sw/limbus_bsp/\libchibios_v240_bsp.a(alt_read.o)
                0x01808fe4                read
 .text          0x01809168       0xbc G:/WorK/Synesthesia/github/synesthesia_zen/wxp/dgn/sw/limbus_bsp/\libchibios_v240_bsp.a(alt_sbrk.o)
                0x01809168                sbrk
 .text          0x01809224      0x184 G:/WorK/Synesthesia/github/synesthesia_zen/wxp/dgn/sw/limbus_bsp/\libchibios_v240_bsp.a(alt_write.o)
                0x01809224                write
 *(.gnu.warning.*)
 *(.fini)
                0x018093a8                PROVIDE (__etext, ABSOLUTE (.))
                0x018093a8                PROVIDE (_etext, ABSOLUTE (.))
                0x018093a8                PROVIDE (etext, ABSOLUTE (.))
 *(.eh_frame_hdr)
                0x018093a8                . = ALIGN (0x4)
                0x018093a8                PROVIDE (__preinit_array_start, ABSOLUTE (.))
 *(.preinit_array)
                0x018093a8                PROVIDE (__preinit_array_end, ABSOLUTE (.))
                0x018093a8                PROVIDE (__init_array_start, ABSOLUTE (.))
 *(.init_array)
                0x018093a8                PROVIDE (__init_array_end, ABSOLUTE (.))
                0x018093a8                PROVIDE (__fini_array_start, ABSOLUTE (.))
 *(.fini_array)
                0x018093a8                PROVIDE (__fini_array_end, ABSOLUTE (.))
 *(.eh_frame)
 *(.gcc_except_table)
 *(.dynamic)
                0x018093a8                PROVIDE (__CTOR_LIST__, ABSOLUTE (.))
 *(.ctors)
 *(SORT(.ctors.*))
 .ctors.65535   0x018093a8        0x4 c:/altera/11.1sp2/nios2eds/bin/gnu/h-i686-mingw32/bin/../lib/gcc/nios2-elf/4.1.2/../../../../nios2-elf/lib/mno-hw-mul\libc.a(lib_a-__call_atexit.o)
                0x018093ac                PROVIDE (__CTOR_END__, ABSOLUTE (.))
                0x018093ac                PROVIDE (__DTOR_LIST__, ABSOLUTE (.))
 *(.dtors)
 *(SORT(.dtors.*))
                0x018093ac                PROVIDE (__DTOR_END__, ABSOLUTE (.))
 *(.jcr)
                0x018093ac                . = ALIGN (0x4)

.rodata         0x018093ac       0xb4
                0x018093ac                PROVIDE (__ram_rodata_start, ABSOLUTE (.))
                0x018093ac                . = ALIGN (0x4)
 *(.rodata .rodata.* .gnu.linkonce.r.*)
 .rodata.str1.4
                0x018093ac       0x66 obj/default/main.o
                                 0x68 (size before relaxing)
 *fill*         0x01809412        0x2 00
 .rodata        0x01809414       0x10 G:/WorK/Synesthesia/github/synesthesia_zen/wxp/dgn/sw/limbus_bsp/\libchibios_v240_bsp.a(alt_main.o)
 .rodata        0x01809424       0x1c G:/WorK/Synesthesia/github/synesthesia_zen/wxp/dgn/sw/limbus_bsp/\libchibios_v240_bsp.a(alt_sys_init.o)
 .rodata        0x01809440       0x10 G:/WorK/Synesthesia/github/synesthesia_zen/wxp/dgn/sw/limbus_bsp/\libchibios_v240_bsp.a(chsys.o)
 .rodata        0x01809450        0xc G:/WorK/Synesthesia/github/synesthesia_zen/wxp/dgn/sw/limbus_bsp/\libchibios_v240_bsp.a(alt_dev.o)
 .rodata.str1.4
                0x0180945c        0x4 c:/altera/11.1sp2/nios2eds/bin/gnu/h-i686-mingw32/bin/../lib/gcc/nios2-elf/4.1.2/../../../../nios2-elf/lib/mno-hw-mul\libc.a(lib_a-impure.o)
 *(.rodata1)
                0x01809460                . = ALIGN (0x4)
                0x01809460                PROVIDE (__ram_rodata_end, ABSOLUTE (.))
                0x018093ac                PROVIDE (__flash_rodata_start, LOADADDR (.rodata))

.rwdata         0x01809460     0x1b0c load address 0x0180af6c
                0x01809460                PROVIDE (__ram_rwdata_start, ABSOLUTE (.))
                0x01809460                . = ALIGN (0x4)
 *(.got.plt)
 *(.got)
 *(.data1)
 *(.data .data.* .gnu.linkonce.d.*)
 .data          0x01809460        0x0 G:/WorK/Synesthesia/github/synesthesia_zen/wxp/dgn/sw/limbus_bsp//obj/HAL/src/crt0.o
 .data          0x01809460        0x0 obj/default/ledos/cortex/vcortex/gpu/gpu.o
 .data          0x01809460        0x0 obj/default/ledos/cortex/vcortex/vga/vga.o
 .data          0x01809460        0x0 obj/default/ledos/graphics/graphics.o
 .data          0x01809460        0x0 obj/default/main.o
 .data          0x01809460        0x0 G:/WorK/Synesthesia/github/synesthesia_zen/wxp/dgn/sw/limbus_bsp/\libchibios_v240_bsp.a(chthreads.o)
 .data          0x01809460        0x0 G:/WorK/Synesthesia/github/synesthesia_zen/wxp/dgn/sw/limbus_bsp/\libchibios_v240_bsp.a(chvt.o)
 .data          0x01809460        0x0 G:/WorK/Synesthesia/github/synesthesia_zen/wxp/dgn/sw/limbus_bsp/\libchibios_v240_bsp.a(chcoreasm.o)
 .data          0x01809460        0x0 G:/WorK/Synesthesia/github/synesthesia_zen/wxp/dgn/sw/limbus_bsp/\libchibios_v240_bsp.a(alt_load.o)
 .data          0x01809460        0x0 G:/WorK/Synesthesia/github/synesthesia_zen/wxp/dgn/sw/limbus_bsp/\libchibios_v240_bsp.a(alt_main.o)
 .data          0x01809460        0x0 G:/WorK/Synesthesia/github/synesthesia_zen/wxp/dgn/sw/limbus_bsp/\libchibios_v240_bsp.a(alt_printf.o)
 .data          0x01809460        0x0 G:/WorK/Synesthesia/github/synesthesia_zen/wxp/dgn/sw/limbus_bsp/\libchibios_v240_bsp.a(alt_putchar.o)
 .data          0x01809460        0x0 G:/WorK/Synesthesia/github/synesthesia_zen/wxp/dgn/sw/limbus_bsp/\libchibios_v240_bsp.a(alt_putstr.o)
 .data          0x01809460     0x1124 G:/WorK/Synesthesia/github/synesthesia_zen/wxp/dgn/sw/limbus_bsp/\libchibios_v240_bsp.a(alt_sys_init.o)
 .data          0x0180a584        0x0 G:/WorK/Synesthesia/github/synesthesia_zen/wxp/dgn/sw/limbus_bsp/\libchibios_v240_bsp.a(altera_avalon_jtag_uart_fd.o)
 .data          0x0180a584        0x0 G:/WorK/Synesthesia/github/synesthesia_zen/wxp/dgn/sw/limbus_bsp/\libchibios_v240_bsp.a(altera_avalon_jtag_uart_init.o)
 .data          0x0180a584        0x0 G:/WorK/Synesthesia/github/synesthesia_zen/wxp/dgn/sw/limbus_bsp/\libchibios_v240_bsp.a(altera_avalon_jtag_uart_ioctl.o)
 .data          0x0180a584        0x0 G:/WorK/Synesthesia/github/synesthesia_zen/wxp/dgn/sw/limbus_bsp/\libchibios_v240_bsp.a(altera_avalon_jtag_uart_read.o)
 .data          0x0180a584        0x0 G:/WorK/Synesthesia/github/synesthesia_zen/wxp/dgn/sw/limbus_bsp/\libchibios_v240_bsp.a(altera_avalon_jtag_uart_write.o)
 .data          0x0180a584        0x0 G:/WorK/Synesthesia/github/synesthesia_zen/wxp/dgn/sw/limbus_bsp/\libchibios_v240_bsp.a(altera_avalon_timer_sc.o)
 .data          0x0180a584        0x0 G:/WorK/Synesthesia/github/synesthesia_zen/wxp/dgn/sw/limbus_bsp/\libchibios_v240_bsp.a(altera_avalon_uart_fd.o)
 .data          0x0180a584        0x0 G:/WorK/Synesthesia/github/synesthesia_zen/wxp/dgn/sw/limbus_bsp/\libchibios_v240_bsp.a(altera_avalon_uart_init.o)
 .data          0x0180a584        0x0 G:/WorK/Synesthesia/github/synesthesia_zen/wxp/dgn/sw/limbus_bsp/\libchibios_v240_bsp.a(altera_avalon_uart_read.o)
 .data          0x0180a584        0x0 G:/WorK/Synesthesia/github/synesthesia_zen/wxp/dgn/sw/limbus_bsp/\libchibios_v240_bsp.a(altera_avalon_uart_write.o)
 .data          0x0180a584        0x0 G:/WorK/Synesthesia/github/synesthesia_zen/wxp/dgn/sw/limbus_bsp/\libchibios_v240_bsp.a(chdynamic.o)
 .data          0x0180a584        0x0 G:/WorK/Synesthesia/github/synesthesia_zen/wxp/dgn/sw/limbus_bsp/\libchibios_v240_bsp.a(chheap.o)
 .data          0x0180a584        0x0 G:/WorK/Synesthesia/github/synesthesia_zen/wxp/dgn/sw/limbus_bsp/\libchibios_v240_bsp.a(chmemcore.o)
 .data          0x0180a584        0x0 G:/WorK/Synesthesia/github/synesthesia_zen/wxp/dgn/sw/limbus_bsp/\libchibios_v240_bsp.a(chmempools.o)
 .data          0x0180a584        0x0 G:/WorK/Synesthesia/github/synesthesia_zen/wxp/dgn/sw/limbus_bsp/\libchibios_v240_bsp.a(chmtx.o)
 .data          0x0180a584        0x0 G:/WorK/Synesthesia/github/synesthesia_zen/wxp/dgn/sw/limbus_bsp/\libchibios_v240_bsp.a(chschd.o)
 .data          0x0180a584        0x0 G:/WorK/Synesthesia/github/synesthesia_zen/wxp/dgn/sw/limbus_bsp/\libchibios_v240_bsp.a(chsys.o)
 .data          0x0180a584        0x0 G:/WorK/Synesthesia/github/synesthesia_zen/wxp/dgn/sw/limbus_bsp/\libchibios_v240_bsp.a(alt_alarm_start.o)
 .data          0x0180a584        0x0 G:/WorK/Synesthesia/github/synesthesia_zen/wxp/dgn/sw/limbus_bsp/\libchibios_v240_bsp.a(alt_close.o)
 .data          0x0180a584        0x0 G:/WorK/Synesthesia/github/synesthesia_zen/wxp/dgn/sw/limbus_bsp/\libchibios_v240_bsp.a(alt_dcache_flush_all.o)
 .data          0x0180a584      0x1a8 G:/WorK/Synesthesia/github/synesthesia_zen/wxp/dgn/sw/limbus_bsp/\libchibios_v240_bsp.a(alt_dev.o)
                0x0180a584                alt_dev_null
                0x0180a5ac                alt_fd_list
 .data          0x0180a72c        0x0 G:/WorK/Synesthesia/github/synesthesia_zen/wxp/dgn/sw/limbus_bsp/\libchibios_v240_bsp.a(alt_dev_llist_insert.o)
 .data          0x0180a72c        0x0 G:/WorK/Synesthesia/github/synesthesia_zen/wxp/dgn/sw/limbus_bsp/\libchibios_v240_bsp.a(alt_do_ctors.o)
 .data          0x0180a72c        0x0 G:/WorK/Synesthesia/github/synesthesia_zen/wxp/dgn/sw/limbus_bsp/\libchibios_v240_bsp.a(alt_do_dtors.o)
 .data          0x0180a72c        0x0 G:/WorK/Synesthesia/github/synesthesia_zen/wxp/dgn/sw/limbus_bsp/\libchibios_v240_bsp.a(alt_errno.o)
 .data          0x0180a72c        0x0 G:/WorK/Synesthesia/github/synesthesia_zen/wxp/dgn/sw/limbus_bsp/\libchibios_v240_bsp.a(alt_icache_flush_all.o)
 .data          0x0180a72c        0x0 G:/WorK/Synesthesia/github/synesthesia_zen/wxp/dgn/sw/limbus_bsp/\libchibios_v240_bsp.a(alt_iic.o)
 .data          0x0180a72c        0x0 G:/WorK/Synesthesia/github/synesthesia_zen/wxp/dgn/sw/limbus_bsp/\libchibios_v240_bsp.a(alt_iic_isr_register.o)
 .data          0x0180a72c        0x0 G:/WorK/Synesthesia/github/synesthesia_zen/wxp/dgn/sw/limbus_bsp/\libchibios_v240_bsp.a(alt_io_redirect.o)
 .data          0x0180a72c        0x0 G:/WorK/Synesthesia/github/synesthesia_zen/wxp/dgn/sw/limbus_bsp/\libchibios_v240_bsp.a(alt_irq_entry.o)
 .data          0x0180a72c        0x0 G:/WorK/Synesthesia/github/synesthesia_zen/wxp/dgn/sw/limbus_bsp/\libchibios_v240_bsp.a(alt_irq_handler.o)
 .data          0x0180a72c        0x0 G:/WorK/Synesthesia/github/synesthesia_zen/wxp/dgn/sw/limbus_bsp/\libchibios_v240_bsp.a(alt_irq_vars.o)
 .data          0x0180a72c        0x0 G:/WorK/Synesthesia/github/synesthesia_zen/wxp/dgn/sw/limbus_bsp/\libchibios_v240_bsp.a(alt_open.o)
 .data          0x0180a72c        0x0 G:/WorK/Synesthesia/github/synesthesia_zen/wxp/dgn/sw/limbus_bsp/\libchibios_v240_bsp.a(alt_release_fd.o)
 .data          0x0180a72c        0x0 G:/WorK/Synesthesia/github/synesthesia_zen/wxp/dgn/sw/limbus_bsp/\libchibios_v240_bsp.a(alt_tick.o)
 .data          0x0180a72c        0x0 G:/WorK/Synesthesia/github/synesthesia_zen/wxp/dgn/sw/limbus_bsp/\libchibios_v240_bsp.a(altera_nios2_qsys_irq.o)
 .data          0x0180a72c        0x0 G:/WorK/Synesthesia/github/synesthesia_zen/wxp/dgn/sw/limbus_bsp/\libchibios_v240_bsp.a(chcore.o)
 .data          0x0180a72c        0x0 G:/WorK/Synesthesia/github/synesthesia_zen/wxp/dgn/sw/limbus_bsp/\libchibios_v240_bsp.a(alt_exception_entry.o)
 .data          0x0180a72c        0x0 G:/WorK/Synesthesia/github/synesthesia_zen/wxp/dgn/sw/limbus_bsp/\libchibios_v240_bsp.a(alt_find_dev.o)
 .data          0x0180a72c        0x0 G:/WorK/Synesthesia/github/synesthesia_zen/wxp/dgn/sw/limbus_bsp/\libchibios_v240_bsp.a(alt_find_file.o)
 .data          0x0180a72c        0x0 G:/WorK/Synesthesia/github/synesthesia_zen/wxp/dgn/sw/limbus_bsp/\libchibios_v240_bsp.a(alt_get_fd.o)
 .data          0x0180a72c        0x0 c:/altera/11.1sp2/nios2eds/bin/gnu/h-i686-mingw32/bin/../lib/gcc/nios2-elf/4.1.2/../../../../nios2-elf/lib/mno-hw-mul\libc.a(lib_a-atexit.o)
 .data          0x0180a72c        0x0 c:/altera/11.1sp2/nios2eds/bin/gnu/h-i686-mingw32/bin/../lib/gcc/nios2-elf/4.1.2/../../../../nios2-elf/lib/mno-hw-mul\libc.a(lib_a-exit.o)
 .data          0x0180a72c        0x0 c:/altera/11.1sp2/nios2eds/bin/gnu/h-i686-mingw32/bin/../lib/gcc/nios2-elf/4.1.2/../../../../nios2-elf/lib/mno-hw-mul\libc.a(lib_a-fputs.o)
 .data          0x0180a72c        0x0 c:/altera/11.1sp2/nios2eds/bin/gnu/h-i686-mingw32/bin/../lib/gcc/nios2-elf/4.1.2/../../../../nios2-elf/lib/mno-hw-mul\libc.a(lib_a-fvwrite.o)
 .data          0x0180a72c      0x400 c:/altera/11.1sp2/nios2eds/bin/gnu/h-i686-mingw32/bin/../lib/gcc/nios2-elf/4.1.2/../../../../nios2-elf/lib/mno-hw-mul\libc.a(lib_a-impure.o)
 .data          0x0180ab2c        0x0 c:/altera/11.1sp2/nios2eds/bin/gnu/h-i686-mingw32/bin/../lib/gcc/nios2-elf/4.1.2/../../../../nios2-elf/lib/mno-hw-mul\libc.a(lib_a-int_errno.o)
 .data          0x0180ab2c      0x408 c:/altera/11.1sp2/nios2eds/bin/gnu/h-i686-mingw32/bin/../lib/gcc/nios2-elf/4.1.2/../../../../nios2-elf/lib/mno-hw-mul\libc.a(lib_a-mallocr.o)
                0x0180ab2c                __malloc_av_
 .data          0x0180af34        0x0 c:/altera/11.1sp2/nios2eds/bin/gnu/h-i686-mingw32/bin/../lib/gcc/nios2-elf/4.1.2/../../../../nios2-elf/lib/mno-hw-mul\libc.a(lib_a-memchr.o)
 .data          0x0180af34        0x0 c:/altera/11.1sp2/nios2eds/bin/gnu/h-i686-mingw32/bin/../lib/gcc/nios2-elf/4.1.2/../../../../nios2-elf/lib/mno-hw-mul\libc.a(lib_a-memcmp.o)
 .data          0x0180af34        0x0 c:/altera/11.1sp2/nios2eds/bin/gnu/h-i686-mingw32/bin/../lib/gcc/nios2-elf/4.1.2/../../../../nios2-elf/lib/mno-hw-mul\libc.a(lib_a-memcpy.o)
 .data          0x0180af34        0x0 c:/altera/11.1sp2/nios2eds/bin/gnu/h-i686-mingw32/bin/../lib/gcc/nios2-elf/4.1.2/../../../../nios2-elf/lib/mno-hw-mul\libc.a(lib_a-memmove.o)
 .data          0x0180af34        0x0 c:/altera/11.1sp2/nios2eds/bin/gnu/h-i686-mingw32/bin/../lib/gcc/nios2-elf/4.1.2/../../../../nios2-elf/lib/mno-hw-mul\libc.a(lib_a-putc.o)
 .data          0x0180af34        0x0 c:/altera/11.1sp2/nios2eds/bin/gnu/h-i686-mingw32/bin/../lib/gcc/nios2-elf/4.1.2/../../../../nios2-elf/lib/mno-hw-mul\libc.a(lib_a-reallocr.o)
 .data          0x0180af34        0x0 c:/altera/11.1sp2/nios2eds/bin/gnu/h-i686-mingw32/bin/../lib/gcc/nios2-elf/4.1.2/../../../../nios2-elf/lib/mno-hw-mul\libc.a(lib_a-sbrkr.o)
 .data          0x0180af34        0x0 c:/altera/11.1sp2/nios2eds/bin/gnu/h-i686-mingw32/bin/../lib/gcc/nios2-elf/4.1.2/../../../../nios2-elf/lib/mno-hw-mul\libc.a(lib_a-strlen.o)
 .data          0x0180af34        0x0 c:/altera/11.1sp2/nios2eds/bin/gnu/h-i686-mingw32/bin/../lib/gcc/nios2-elf/4.1.2/../../../../nios2-elf/lib/mno-hw-mul\libc.a(lib_a-wbuf.o)
 .data          0x0180af34        0x0 c:/altera/11.1sp2/nios2eds/bin/gnu/h-i686-mingw32/bin/../lib/gcc/nios2-elf/4.1.2/../../../../nios2-elf/lib/mno-hw-mul\libc.a(lib_a-wsetup.o)
 .data          0x0180af34        0x0 c:/altera/11.1sp2/nios2eds/bin/gnu/h-i686-mingw32/bin/../lib/gcc/nios2-elf/4.1.2/../../../../nios2-elf/lib/mno-hw-mul\libc.a(lib_a-__atexit.o)
 .data          0x0180af34        0x0 c:/altera/11.1sp2/nios2eds/bin/gnu/h-i686-mingw32/bin/../lib/gcc/nios2-elf/4.1.2/../../../../nios2-elf/lib/mno-hw-mul\libc.a(lib_a-__call_atexit.o)
 .data          0x0180af34        0x0 c:/altera/11.1sp2/nios2eds/bin/gnu/h-i686-mingw32/bin/../lib/gcc/nios2-elf/4.1.2/../../../../nios2-elf/lib/mno-hw-mul\libc.a(lib_a-fflush.o)
 .data          0x0180af34        0x0 c:/altera/11.1sp2/nios2eds/bin/gnu/h-i686-mingw32/bin/../lib/gcc/nios2-elf/4.1.2/../../../../nios2-elf/lib/mno-hw-mul\libc.a(lib_a-findfp.o)
 .data          0x0180af34        0x0 c:/altera/11.1sp2/nios2eds/bin/gnu/h-i686-mingw32/bin/../lib/gcc/nios2-elf/4.1.2/../../../../nios2-elf/lib/mno-hw-mul\libc.a(lib_a-freer.o)
 .data          0x0180af34        0x0 c:/altera/11.1sp2/nios2eds/bin/gnu/h-i686-mingw32/bin/../lib/gcc/nios2-elf/4.1.2/../../../../nios2-elf/lib/mno-hw-mul\libc.a(lib_a-fwalk.o)
 .data          0x0180af34        0x0 c:/altera/11.1sp2/nios2eds/bin/gnu/h-i686-mingw32/bin/../lib/gcc/nios2-elf/4.1.2/../../../../nios2-elf/lib/mno-hw-mul\libc.a(lib_a-makebuf.o)
 .data          0x0180af34        0x0 c:/altera/11.1sp2/nios2eds/bin/gnu/h-i686-mingw32/bin/../lib/gcc/nios2-elf/4.1.2/../../../../nios2-elf/lib/mno-hw-mul\libc.a(lib_a-memset.o)
 .data          0x0180af34        0x0 c:/altera/11.1sp2/nios2eds/bin/gnu/h-i686-mingw32/bin/../lib/gcc/nios2-elf/4.1.2/../../../../nios2-elf/lib/mno-hw-mul\libc.a(lib_a-stdio.o)
 .data          0x0180af34        0x0 c:/altera/11.1sp2/nios2eds/bin/gnu/h-i686-mingw32/bin/../lib/gcc/nios2-elf/4.1.2/../../../../nios2-elf/lib/mno-hw-mul\libc.a(lib_a-writer.o)
 .data          0x0180af34        0x0 c:/altera/11.1sp2/nios2eds/bin/gnu/h-i686-mingw32/bin/../lib/gcc/nios2-elf/4.1.2/../../../../nios2-elf/lib/mno-hw-mul\libc.a(lib_a-closer.o)
 .data          0x0180af34        0x0 c:/altera/11.1sp2/nios2eds/bin/gnu/h-i686-mingw32/bin/../lib/gcc/nios2-elf/4.1.2/../../../../nios2-elf/lib/mno-hw-mul\libc.a(lib_a-fclose.o)
 .data          0x0180af34        0x0 c:/altera/11.1sp2/nios2eds/bin/gnu/h-i686-mingw32/bin/../lib/gcc/nios2-elf/4.1.2/../../../../nios2-elf/lib/mno-hw-mul\libc.a(lib_a-fstatr.o)
 .data          0x0180af34        0x0 c:/altera/11.1sp2/nios2eds/bin/gnu/h-i686-mingw32/bin/../lib/gcc/nios2-elf/4.1.2/../../../../nios2-elf/lib/mno-hw-mul\libc.a(lib_a-isattyr.o)
 .data          0x0180af34        0x0 c:/altera/11.1sp2/nios2eds/bin/gnu/h-i686-mingw32/bin/../lib/gcc/nios2-elf/4.1.2/../../../../nios2-elf/lib/mno-hw-mul\libc.a(lib_a-lseekr.o)
 .data          0x0180af34        0x0 c:/altera/11.1sp2/nios2eds/bin/gnu/h-i686-mingw32/bin/../lib/gcc/nios2-elf/4.1.2/../../../../nios2-elf/lib/mno-hw-mul\libc.a(lib_a-readr.o)
 .data          0x0180af34        0x0 c:/altera/11.1sp2/nios2eds/bin/gnu/h-i686-mingw32/bin/../lib/gcc/nios2-elf/4.1.2/mno-hw-mul\libgcc.a(lib2-mul.o)
 .data          0x0180af34        0x0 G:/WorK/Synesthesia/github/synesthesia_zen/wxp/dgn/sw/limbus_bsp/\libchibios_v240_bsp.a(alt_exit.o)
 .data          0x0180af34        0x0 G:/WorK/Synesthesia/github/synesthesia_zen/wxp/dgn/sw/limbus_bsp/\libchibios_v240_bsp.a(alt_fstat.o)
 .data          0x0180af34        0x0 G:/WorK/Synesthesia/github/synesthesia_zen/wxp/dgn/sw/limbus_bsp/\libchibios_v240_bsp.a(alt_isatty.o)
 .data          0x0180af34        0x0 G:/WorK/Synesthesia/github/synesthesia_zen/wxp/dgn/sw/limbus_bsp/\libchibios_v240_bsp.a(alt_lseek.o)
 .data          0x0180af34        0x0 G:/WorK/Synesthesia/github/synesthesia_zen/wxp/dgn/sw/limbus_bsp/\libchibios_v240_bsp.a(alt_malloc_lock.o)
 .data          0x0180af34        0x0 G:/WorK/Synesthesia/github/synesthesia_zen/wxp/dgn/sw/limbus_bsp/\libchibios_v240_bsp.a(alt_read.o)
 .data          0x0180af34        0x0 G:/WorK/Synesthesia/github/synesthesia_zen/wxp/dgn/sw/limbus_bsp/\libchibios_v240_bsp.a(alt_sbrk.o)
 .data          0x0180af34        0x0 G:/WorK/Synesthesia/github/synesthesia_zen/wxp/dgn/sw/limbus_bsp/\libchibios_v240_bsp.a(alt_write.o)
                0x01812f34                _gp = ABSOLUTE ((. + 0x8000))
                0x01812f34                PROVIDE (gp, _gp)
 *(.rwdata .rwdata.*)
 *(.sdata .sdata.* .gnu.linkonce.s.*)
 .sdata         0x0180af34       0x14 G:/WorK/Synesthesia/github/synesthesia_zen/wxp/dgn/sw/limbus_bsp/\libchibios_v240_bsp.a(alt_dev.o)
                0x0180af34                alt_fs_list
                0x0180af3c                alt_dev_list
                0x0180af44                alt_max_fd
 .sdata         0x0180af48        0x4 G:/WorK/Synesthesia/github/synesthesia_zen/wxp/dgn/sw/limbus_bsp/\libchibios_v240_bsp.a(alt_errno.o)
                0x0180af48                alt_errno
 .sdata         0x0180af4c        0x4 G:/WorK/Synesthesia/github/synesthesia_zen/wxp/dgn/sw/limbus_bsp/\libchibios_v240_bsp.a(alt_irq_vars.o)
                0x0180af4c                alt_priority_mask
 .sdata         0x0180af50        0x8 G:/WorK/Synesthesia/github/synesthesia_zen/wxp/dgn/sw/limbus_bsp/\libchibios_v240_bsp.a(alt_tick.o)
                0x0180af50                alt_alarm_list
 .sdata         0x0180af58        0x8 c:/altera/11.1sp2/nios2eds/bin/gnu/h-i686-mingw32/bin/../lib/gcc/nios2-elf/4.1.2/../../../../nios2-elf/lib/mno-hw-mul\libc.a(lib_a-impure.o)
                0x0180af58                _impure_ptr
                0x0180af5c                _global_impure_ptr
 .sdata         0x0180af60        0x8 c:/altera/11.1sp2/nios2eds/bin/gnu/h-i686-mingw32/bin/../lib/gcc/nios2-elf/4.1.2/../../../../nios2-elf/lib/mno-hw-mul\libc.a(lib_a-mallocr.o)
                0x0180af60                __malloc_trim_threshold
                0x0180af64                __malloc_sbrk_base
 .sdata         0x0180af68        0x4 G:/WorK/Synesthesia/github/synesthesia_zen/wxp/dgn/sw/limbus_bsp/\libchibios_v240_bsp.a(alt_sbrk.o)
 *(.sdata2 .sdata2.* .gnu.linkonce.s2.*)
                0x0180af6c                . = ALIGN (0x4)
                0x0180af6c                _edata = ABSOLUTE (.)
                0x0180af6c                PROVIDE (edata, ABSOLUTE (.))
                0x0180af6c                PROVIDE (__ram_rwdata_end, ABSOLUTE (.))
                0x0180af6c                PROVIDE (__flash_rwdata_start, LOADADDR (.rwdata))

.bss            0x0180ca78      0x53c
                0x0180ca78                __bss_start = ABSOLUTE (.)
                0x0180ca78                PROVIDE (__sbss_start, ABSOLUTE (.))
                0x0180ca78                PROVIDE (___sbss_start, ABSOLUTE (.))
 *(.dynsbss)
 *(.sbss .sbss.* .gnu.linkonce.sb.*)
 .sbss          0x0180ca78        0xc G:/WorK/Synesthesia/github/synesthesia_zen/wxp/dgn/sw/limbus_bsp/\libchibios_v240_bsp.a(alt_main.o)
                0x0180ca78                alt_argc
                0x0180ca7c                alt_argv
                0x0180ca80                alt_envp
 .sbss          0x0180ca84        0x8 G:/WorK/Synesthesia/github/synesthesia_zen/wxp/dgn/sw/limbus_bsp/\libchibios_v240_bsp.a(chmemcore.o)
 .sbss          0x0180ca8c        0x4 G:/WorK/Synesthesia/github/synesthesia_zen/wxp/dgn/sw/limbus_bsp/\libchibios_v240_bsp.a(alt_irq_vars.o)
                0x0180ca8c                alt_irq_active
 .sbss          0x0180ca90        0x8 G:/WorK/Synesthesia/github/synesthesia_zen/wxp/dgn/sw/limbus_bsp/\libchibios_v240_bsp.a(alt_tick.o)
                0x0180ca90                _alt_tick_rate
                0x0180ca94                _alt_nticks
 .sbss          0x0180ca98        0x4 c:/altera/11.1sp2/nios2eds/bin/gnu/h-i686-mingw32/bin/../lib/gcc/nios2-elf/4.1.2/../../../../nios2-elf/lib/mno-hw-mul\libc.a(lib_a-int_errno.o)
                0x0180ca98                errno
 .sbss          0x0180ca9c        0xc c:/altera/11.1sp2/nios2eds/bin/gnu/h-i686-mingw32/bin/../lib/gcc/nios2-elf/4.1.2/../../../../nios2-elf/lib/mno-hw-mul\libc.a(lib_a-mallocr.o)
                0x0180ca9c                __malloc_top_pad
                0x0180caa0                __malloc_max_sbrked_mem
                0x0180caa4                __malloc_max_total_mem
 *(.sbss2 .sbss2.* .gnu.linkonce.sb2.*)
 *(.scommon)
                0x0180caa8                PROVIDE (__sbss_end, ABSOLUTE (.))
                0x0180caa8                PROVIDE (___sbss_end, ABSOLUTE (.))
 *(.dynbss)
 *(.bss .bss.* .gnu.linkonce.b.*)
 .bss           0x0180caa8        0x0 G:/WorK/Synesthesia/github/synesthesia_zen/wxp/dgn/sw/limbus_bsp//obj/HAL/src/crt0.o
 .bss           0x0180caa8        0x0 obj/default/ledos/cortex/vcortex/gpu/gpu.o
 .bss           0x0180caa8        0x0 obj/default/ledos/cortex/vcortex/vga/vga.o
 .bss           0x0180caa8        0x0 obj/default/ledos/graphics/graphics.o
 .bss           0x0180caa8        0x0 obj/default/main.o
 .bss           0x0180caa8        0x0 G:/WorK/Synesthesia/github/synesthesia_zen/wxp/dgn/sw/limbus_bsp/\libchibios_v240_bsp.a(chthreads.o)
 .bss           0x0180caa8        0x0 G:/WorK/Synesthesia/github/synesthesia_zen/wxp/dgn/sw/limbus_bsp/\libchibios_v240_bsp.a(chvt.o)
 .bss           0x0180caa8        0x0 G:/WorK/Synesthesia/github/synesthesia_zen/wxp/dgn/sw/limbus_bsp/\libchibios_v240_bsp.a(chcoreasm.o)
 .bss           0x0180caa8        0x0 G:/WorK/Synesthesia/github/synesthesia_zen/wxp/dgn/sw/limbus_bsp/\libchibios_v240_bsp.a(alt_load.o)
 .bss           0x0180caa8        0x0 G:/WorK/Synesthesia/github/synesthesia_zen/wxp/dgn/sw/limbus_bsp/\libchibios_v240_bsp.a(alt_main.o)
 .bss           0x0180caa8        0x0 G:/WorK/Synesthesia/github/synesthesia_zen/wxp/dgn/sw/limbus_bsp/\libchibios_v240_bsp.a(alt_printf.o)
 .bss           0x0180caa8        0x0 G:/WorK/Synesthesia/github/synesthesia_zen/wxp/dgn/sw/limbus_bsp/\libchibios_v240_bsp.a(alt_putchar.o)
 .bss           0x0180caa8        0x0 G:/WorK/Synesthesia/github/synesthesia_zen/wxp/dgn/sw/limbus_bsp/\libchibios_v240_bsp.a(alt_putstr.o)
 .bss           0x0180caa8        0x0 G:/WorK/Synesthesia/github/synesthesia_zen/wxp/dgn/sw/limbus_bsp/\libchibios_v240_bsp.a(alt_sys_init.o)
 .bss           0x0180caa8        0x0 G:/WorK/Synesthesia/github/synesthesia_zen/wxp/dgn/sw/limbus_bsp/\libchibios_v240_bsp.a(altera_avalon_jtag_uart_fd.o)
 .bss           0x0180caa8        0x0 G:/WorK/Synesthesia/github/synesthesia_zen/wxp/dgn/sw/limbus_bsp/\libchibios_v240_bsp.a(altera_avalon_jtag_uart_init.o)
 .bss           0x0180caa8        0x0 G:/WorK/Synesthesia/github/synesthesia_zen/wxp/dgn/sw/limbus_bsp/\libchibios_v240_bsp.a(altera_avalon_jtag_uart_ioctl.o)
 .bss           0x0180caa8        0x0 G:/WorK/Synesthesia/github/synesthesia_zen/wxp/dgn/sw/limbus_bsp/\libchibios_v240_bsp.a(altera_avalon_jtag_uart_read.o)
 .bss           0x0180caa8        0x0 G:/WorK/Synesthesia/github/synesthesia_zen/wxp/dgn/sw/limbus_bsp/\libchibios_v240_bsp.a(altera_avalon_jtag_uart_write.o)
 .bss           0x0180caa8        0x0 G:/WorK/Synesthesia/github/synesthesia_zen/wxp/dgn/sw/limbus_bsp/\libchibios_v240_bsp.a(altera_avalon_timer_sc.o)
 .bss           0x0180caa8        0x0 G:/WorK/Synesthesia/github/synesthesia_zen/wxp/dgn/sw/limbus_bsp/\libchibios_v240_bsp.a(altera_avalon_uart_fd.o)
 .bss           0x0180caa8        0x0 G:/WorK/Synesthesia/github/synesthesia_zen/wxp/dgn/sw/limbus_bsp/\libchibios_v240_bsp.a(altera_avalon_uart_init.o)
 .bss           0x0180caa8        0x0 G:/WorK/Synesthesia/github/synesthesia_zen/wxp/dgn/sw/limbus_bsp/\libchibios_v240_bsp.a(altera_avalon_uart_read.o)
 .bss           0x0180caa8        0x0 G:/WorK/Synesthesia/github/synesthesia_zen/wxp/dgn/sw/limbus_bsp/\libchibios_v240_bsp.a(altera_avalon_uart_write.o)
 .bss           0x0180caa8        0x0 G:/WorK/Synesthesia/github/synesthesia_zen/wxp/dgn/sw/limbus_bsp/\libchibios_v240_bsp.a(chdynamic.o)
 .bss           0x0180caa8       0x1c G:/WorK/Synesthesia/github/synesthesia_zen/wxp/dgn/sw/limbus_bsp/\libchibios_v240_bsp.a(chheap.o)
 .bss           0x0180cac4        0x0 G:/WorK/Synesthesia/github/synesthesia_zen/wxp/dgn/sw/limbus_bsp/\libchibios_v240_bsp.a(chmemcore.o)
 .bss           0x0180cac4        0x0 G:/WorK/Synesthesia/github/synesthesia_zen/wxp/dgn/sw/limbus_bsp/\libchibios_v240_bsp.a(chmempools.o)
 .bss           0x0180cac4        0x0 G:/WorK/Synesthesia/github/synesthesia_zen/wxp/dgn/sw/limbus_bsp/\libchibios_v240_bsp.a(chmtx.o)
 .bss           0x0180cac4        0x0 G:/WorK/Synesthesia/github/synesthesia_zen/wxp/dgn/sw/limbus_bsp/\libchibios_v240_bsp.a(chschd.o)
 .bss           0x0180cac4       0x48 G:/WorK/Synesthesia/github/synesthesia_zen/wxp/dgn/sw/limbus_bsp/\libchibios_v240_bsp.a(chsys.o)
 .bss           0x0180cb0c        0x0 G:/WorK/Synesthesia/github/synesthesia_zen/wxp/dgn/sw/limbus_bsp/\libchibios_v240_bsp.a(alt_alarm_start.o)
 .bss           0x0180cb0c        0x0 G:/WorK/Synesthesia/github/synesthesia_zen/wxp/dgn/sw/limbus_bsp/\libchibios_v240_bsp.a(alt_close.o)
 .bss           0x0180cb0c        0x0 G:/WorK/Synesthesia/github/synesthesia_zen/wxp/dgn/sw/limbus_bsp/\libchibios_v240_bsp.a(alt_dcache_flush_all.o)
 .bss           0x0180cb0c        0x0 G:/WorK/Synesthesia/github/synesthesia_zen/wxp/dgn/sw/limbus_bsp/\libchibios_v240_bsp.a(alt_dev.o)
 .bss           0x0180cb0c        0x0 G:/WorK/Synesthesia/github/synesthesia_zen/wxp/dgn/sw/limbus_bsp/\libchibios_v240_bsp.a(alt_dev_llist_insert.o)
 .bss           0x0180cb0c        0x0 G:/WorK/Synesthesia/github/synesthesia_zen/wxp/dgn/sw/limbus_bsp/\libchibios_v240_bsp.a(alt_do_ctors.o)
 .bss           0x0180cb0c        0x0 G:/WorK/Synesthesia/github/synesthesia_zen/wxp/dgn/sw/limbus_bsp/\libchibios_v240_bsp.a(alt_do_dtors.o)
 .bss           0x0180cb0c        0x0 G:/WorK/Synesthesia/github/synesthesia_zen/wxp/dgn/sw/limbus_bsp/\libchibios_v240_bsp.a(alt_errno.o)
 .bss           0x0180cb0c        0x0 G:/WorK/Synesthesia/github/synesthesia_zen/wxp/dgn/sw/limbus_bsp/\libchibios_v240_bsp.a(alt_icache_flush_all.o)
 .bss           0x0180cb0c        0x0 G:/WorK/Synesthesia/github/synesthesia_zen/wxp/dgn/sw/limbus_bsp/\libchibios_v240_bsp.a(alt_iic.o)
 .bss           0x0180cb0c        0x0 G:/WorK/Synesthesia/github/synesthesia_zen/wxp/dgn/sw/limbus_bsp/\libchibios_v240_bsp.a(alt_iic_isr_register.o)
 .bss           0x0180cb0c        0x0 G:/WorK/Synesthesia/github/synesthesia_zen/wxp/dgn/sw/limbus_bsp/\libchibios_v240_bsp.a(alt_io_redirect.o)
 .bss           0x0180cb0c        0x0 G:/WorK/Synesthesia/github/synesthesia_zen/wxp/dgn/sw/limbus_bsp/\libchibios_v240_bsp.a(alt_irq_entry.o)
 .bss           0x0180cb0c        0x0 G:/WorK/Synesthesia/github/synesthesia_zen/wxp/dgn/sw/limbus_bsp/\libchibios_v240_bsp.a(alt_irq_handler.o)
 .bss           0x0180cb0c        0x0 G:/WorK/Synesthesia/github/synesthesia_zen/wxp/dgn/sw/limbus_bsp/\libchibios_v240_bsp.a(alt_irq_vars.o)
 .bss           0x0180cb0c        0x0 G:/WorK/Synesthesia/github/synesthesia_zen/wxp/dgn/sw/limbus_bsp/\libchibios_v240_bsp.a(alt_open.o)
 .bss           0x0180cb0c        0x0 G:/WorK/Synesthesia/github/synesthesia_zen/wxp/dgn/sw/limbus_bsp/\libchibios_v240_bsp.a(alt_release_fd.o)
 .bss           0x0180cb0c        0x0 G:/WorK/Synesthesia/github/synesthesia_zen/wxp/dgn/sw/limbus_bsp/\libchibios_v240_bsp.a(alt_tick.o)
 .bss           0x0180cb0c        0x0 G:/WorK/Synesthesia/github/synesthesia_zen/wxp/dgn/sw/limbus_bsp/\libchibios_v240_bsp.a(altera_nios2_qsys_irq.o)
 .bss           0x0180cb0c        0x0 G:/WorK/Synesthesia/github/synesthesia_zen/wxp/dgn/sw/limbus_bsp/\libchibios_v240_bsp.a(chcore.o)
 .bss           0x0180cb0c        0x0 G:/WorK/Synesthesia/github/synesthesia_zen/wxp/dgn/sw/limbus_bsp/\libchibios_v240_bsp.a(alt_exception_entry.o)
 .bss           0x0180cb0c        0x0 G:/WorK/Synesthesia/github/synesthesia_zen/wxp/dgn/sw/limbus_bsp/\libchibios_v240_bsp.a(alt_find_dev.o)
 .bss           0x0180cb0c        0x0 G:/WorK/Synesthesia/github/synesthesia_zen/wxp/dgn/sw/limbus_bsp/\libchibios_v240_bsp.a(alt_find_file.o)
 .bss           0x0180cb0c        0x0 G:/WorK/Synesthesia/github/synesthesia_zen/wxp/dgn/sw/limbus_bsp/\libchibios_v240_bsp.a(alt_get_fd.o)
 .bss           0x0180cb0c        0x0 c:/altera/11.1sp2/nios2eds/bin/gnu/h-i686-mingw32/bin/../lib/gcc/nios2-elf/4.1.2/../../../../nios2-elf/lib/mno-hw-mul\libc.a(lib_a-atexit.o)
 .bss           0x0180cb0c        0x0 c:/altera/11.1sp2/nios2eds/bin/gnu/h-i686-mingw32/bin/../lib/gcc/nios2-elf/4.1.2/../../../../nios2-elf/lib/mno-hw-mul\libc.a(lib_a-exit.o)
 .bss           0x0180cb0c        0x0 c:/altera/11.1sp2/nios2eds/bin/gnu/h-i686-mingw32/bin/../lib/gcc/nios2-elf/4.1.2/../../../../nios2-elf/lib/mno-hw-mul\libc.a(lib_a-fputs.o)
 .bss           0x0180cb0c        0x0 c:/altera/11.1sp2/nios2eds/bin/gnu/h-i686-mingw32/bin/../lib/gcc/nios2-elf/4.1.2/../../../../nios2-elf/lib/mno-hw-mul\libc.a(lib_a-fvwrite.o)
 .bss           0x0180cb0c        0x0 c:/altera/11.1sp2/nios2eds/bin/gnu/h-i686-mingw32/bin/../lib/gcc/nios2-elf/4.1.2/../../../../nios2-elf/lib/mno-hw-mul\libc.a(lib_a-impure.o)
 .bss           0x0180cb0c        0x0 c:/altera/11.1sp2/nios2eds/bin/gnu/h-i686-mingw32/bin/../lib/gcc/nios2-elf/4.1.2/../../../../nios2-elf/lib/mno-hw-mul\libc.a(lib_a-int_errno.o)
 .bss           0x0180cb0c       0x28 c:/altera/11.1sp2/nios2eds/bin/gnu/h-i686-mingw32/bin/../lib/gcc/nios2-elf/4.1.2/../../../../nios2-elf/lib/mno-hw-mul\libc.a(lib_a-mallocr.o)
                0x0180cb0c                __malloc_current_mallinfo
 .bss           0x0180cb34        0x0 c:/altera/11.1sp2/nios2eds/bin/gnu/h-i686-mingw32/bin/../lib/gcc/nios2-elf/4.1.2/../../../../nios2-elf/lib/mno-hw-mul\libc.a(lib_a-memchr.o)
 .bss           0x0180cb34        0x0 c:/altera/11.1sp2/nios2eds/bin/gnu/h-i686-mingw32/bin/../lib/gcc/nios2-elf/4.1.2/../../../../nios2-elf/lib/mno-hw-mul\libc.a(lib_a-memcmp.o)
 .bss           0x0180cb34        0x0 c:/altera/11.1sp2/nios2eds/bin/gnu/h-i686-mingw32/bin/../lib/gcc/nios2-elf/4.1.2/../../../../nios2-elf/lib/mno-hw-mul\libc.a(lib_a-memcpy.o)
 .bss           0x0180cb34        0x0 c:/altera/11.1sp2/nios2eds/bin/gnu/h-i686-mingw32/bin/../lib/gcc/nios2-elf/4.1.2/../../../../nios2-elf/lib/mno-hw-mul\libc.a(lib_a-memmove.o)
 .bss           0x0180cb34        0x0 c:/altera/11.1sp2/nios2eds/bin/gnu/h-i686-mingw32/bin/../lib/gcc/nios2-elf/4.1.2/../../../../nios2-elf/lib/mno-hw-mul\libc.a(lib_a-putc.o)
 .bss           0x0180cb34        0x0 c:/altera/11.1sp2/nios2eds/bin/gnu/h-i686-mingw32/bin/../lib/gcc/nios2-elf/4.1.2/../../../../nios2-elf/lib/mno-hw-mul\libc.a(lib_a-reallocr.o)
 .bss           0x0180cb34        0x0 c:/altera/11.1sp2/nios2eds/bin/gnu/h-i686-mingw32/bin/../lib/gcc/nios2-elf/4.1.2/../../../../nios2-elf/lib/mno-hw-mul\libc.a(lib_a-sbrkr.o)
 .bss           0x0180cb34        0x0 c:/altera/11.1sp2/nios2eds/bin/gnu/h-i686-mingw32/bin/../lib/gcc/nios2-elf/4.1.2/../../../../nios2-elf/lib/mno-hw-mul\libc.a(lib_a-strlen.o)
 .bss           0x0180cb34        0x0 c:/altera/11.1sp2/nios2eds/bin/gnu/h-i686-mingw32/bin/../lib/gcc/nios2-elf/4.1.2/../../../../nios2-elf/lib/mno-hw-mul\libc.a(lib_a-wbuf.o)
 .bss           0x0180cb34        0x0 c:/altera/11.1sp2/nios2eds/bin/gnu/h-i686-mingw32/bin/../lib/gcc/nios2-elf/4.1.2/../../../../nios2-elf/lib/mno-hw-mul\libc.a(lib_a-wsetup.o)
 .bss           0x0180cb34        0x0 c:/altera/11.1sp2/nios2eds/bin/gnu/h-i686-mingw32/bin/../lib/gcc/nios2-elf/4.1.2/../../../../nios2-elf/lib/mno-hw-mul\libc.a(lib_a-__atexit.o)
 .bss           0x0180cb34        0x0 c:/altera/11.1sp2/nios2eds/bin/gnu/h-i686-mingw32/bin/../lib/gcc/nios2-elf/4.1.2/../../../../nios2-elf/lib/mno-hw-mul\libc.a(lib_a-__call_atexit.o)
 .bss           0x0180cb34        0x0 c:/altera/11.1sp2/nios2eds/bin/gnu/h-i686-mingw32/bin/../lib/gcc/nios2-elf/4.1.2/../../../../nios2-elf/lib/mno-hw-mul\libc.a(lib_a-fflush.o)
 .bss           0x0180cb34        0x0 c:/altera/11.1sp2/nios2eds/bin/gnu/h-i686-mingw32/bin/../lib/gcc/nios2-elf/4.1.2/../../../../nios2-elf/lib/mno-hw-mul\libc.a(lib_a-findfp.o)
 .bss           0x0180cb34        0x0 c:/altera/11.1sp2/nios2eds/bin/gnu/h-i686-mingw32/bin/../lib/gcc/nios2-elf/4.1.2/../../../../nios2-elf/lib/mno-hw-mul\libc.a(lib_a-freer.o)
 .bss           0x0180cb34        0x0 c:/altera/11.1sp2/nios2eds/bin/gnu/h-i686-mingw32/bin/../lib/gcc/nios2-elf/4.1.2/../../../../nios2-elf/lib/mno-hw-mul\libc.a(lib_a-fwalk.o)
 .bss           0x0180cb34        0x0 c:/altera/11.1sp2/nios2eds/bin/gnu/h-i686-mingw32/bin/../lib/gcc/nios2-elf/4.1.2/../../../../nios2-elf/lib/mno-hw-mul\libc.a(lib_a-makebuf.o)
 .bss           0x0180cb34        0x0 c:/altera/11.1sp2/nios2eds/bin/gnu/h-i686-mingw32/bin/../lib/gcc/nios2-elf/4.1.2/../../../../nios2-elf/lib/mno-hw-mul\libc.a(lib_a-memset.o)
 .bss           0x0180cb34        0x0 c:/altera/11.1sp2/nios2eds/bin/gnu/h-i686-mingw32/bin/../lib/gcc/nios2-elf/4.1.2/../../../../nios2-elf/lib/mno-hw-mul\libc.a(lib_a-stdio.o)
 .bss           0x0180cb34        0x0 c:/altera/11.1sp2/nios2eds/bin/gnu/h-i686-mingw32/bin/../lib/gcc/nios2-elf/4.1.2/../../../../nios2-elf/lib/mno-hw-mul\libc.a(lib_a-writer.o)
 .bss           0x0180cb34        0x0 c:/altera/11.1sp2/nios2eds/bin/gnu/h-i686-mingw32/bin/../lib/gcc/nios2-elf/4.1.2/../../../../nios2-elf/lib/mno-hw-mul\libc.a(lib_a-closer.o)
 .bss           0x0180cb34        0x0 c:/altera/11.1sp2/nios2eds/bin/gnu/h-i686-mingw32/bin/../lib/gcc/nios2-elf/4.1.2/../../../../nios2-elf/lib/mno-hw-mul\libc.a(lib_a-fclose.o)
 .bss           0x0180cb34        0x0 c:/altera/11.1sp2/nios2eds/bin/gnu/h-i686-mingw32/bin/../lib/gcc/nios2-elf/4.1.2/../../../../nios2-elf/lib/mno-hw-mul\libc.a(lib_a-fstatr.o)
 .bss           0x0180cb34        0x0 c:/altera/11.1sp2/nios2eds/bin/gnu/h-i686-mingw32/bin/../lib/gcc/nios2-elf/4.1.2/../../../../nios2-elf/lib/mno-hw-mul\libc.a(lib_a-isattyr.o)
 .bss           0x0180cb34        0x0 c:/altera/11.1sp2/nios2eds/bin/gnu/h-i686-mingw32/bin/../lib/gcc/nios2-elf/4.1.2/../../../../nios2-elf/lib/mno-hw-mul\libc.a(lib_a-lseekr.o)
 .bss           0x0180cb34        0x0 c:/altera/11.1sp2/nios2eds/bin/gnu/h-i686-mingw32/bin/../lib/gcc/nios2-elf/4.1.2/../../../../nios2-elf/lib/mno-hw-mul\libc.a(lib_a-readr.o)
 .bss           0x0180cb34        0x0 c:/altera/11.1sp2/nios2eds/bin/gnu/h-i686-mingw32/bin/../lib/gcc/nios2-elf/4.1.2/mno-hw-mul\libgcc.a(lib2-mul.o)
 .bss           0x0180cb34        0x0 G:/WorK/Synesthesia/github/synesthesia_zen/wxp/dgn/sw/limbus_bsp/\libchibios_v240_bsp.a(alt_exit.o)
 .bss           0x0180cb34        0x0 G:/WorK/Synesthesia/github/synesthesia_zen/wxp/dgn/sw/limbus_bsp/\libchibios_v240_bsp.a(alt_fstat.o)
 .bss           0x0180cb34        0x0 G:/WorK/Synesthesia/github/synesthesia_zen/wxp/dgn/sw/limbus_bsp/\libchibios_v240_bsp.a(alt_isatty.o)
 .bss           0x0180cb34        0x0 G:/WorK/Synesthesia/github/synesthesia_zen/wxp/dgn/sw/limbus_bsp/\libchibios_v240_bsp.a(alt_lseek.o)
 .bss           0x0180cb34        0x0 G:/WorK/Synesthesia/github/synesthesia_zen/wxp/dgn/sw/limbus_bsp/\libchibios_v240_bsp.a(alt_malloc_lock.o)
 .bss           0x0180cb34        0x0 G:/WorK/Synesthesia/github/synesthesia_zen/wxp/dgn/sw/limbus_bsp/\libchibios_v240_bsp.a(alt_read.o)
 .bss           0x0180cb34        0x0 G:/WorK/Synesthesia/github/synesthesia_zen/wxp/dgn/sw/limbus_bsp/\libchibios_v240_bsp.a(alt_sbrk.o)
 .bss           0x0180cb34        0x0 G:/WorK/Synesthesia/github/synesthesia_zen/wxp/dgn/sw/limbus_bsp/\libchibios_v240_bsp.a(alt_write.o)
 *(COMMON)
 COMMON         0x0180cb34       0x10 G:/WorK/Synesthesia/github/synesthesia_zen/wxp/dgn/sw/limbus_bsp/\libchibios_v240_bsp.a(chvt.o)
                0x0180cb34                vtlist
 COMMON         0x0180cb44       0x20 G:/WorK/Synesthesia/github/synesthesia_zen/wxp/dgn/sw/limbus_bsp/\libchibios_v240_bsp.a(chschd.o)
                0x0180cb44                rlist
 COMMON         0x0180cb64      0x1c0 G:/WorK/Synesthesia/github/synesthesia_zen/wxp/dgn/sw/limbus_bsp/\libchibios_v240_bsp.a(chsys.o)
                0x0180cb64                _idle_thread_wa
 COMMON         0x0180cd24      0x100 G:/WorK/Synesthesia/github/synesthesia_zen/wxp/dgn/sw/limbus_bsp/\libchibios_v240_bsp.a(alt_irq_handler.o)
                0x0180cd24                alt_irq
 COMMON         0x0180ce24      0x190 c:/altera/11.1sp2/nios2eds/bin/gnu/h-i686-mingw32/bin/../lib/gcc/nios2-elf/4.1.2/../../../../nios2-elf/lib/mno-hw-mul\libc.a(lib_a-atexit.o)
                0x0180ce24                _atexit0
                0x0180cfb4                . = ALIGN (0x4)
                0x0180cfb4                __bss_end = ABSOLUTE (.)

.sdram          0x0180cfb4        0x0
                0x0180cfb4                PROVIDE (_alt_partition_sdram_start, ABSOLUTE (.))
 *(.sdram. sdram.*)
                0x0180cfb4                . = ALIGN (0x4)
                0x0180cfb4                PROVIDE (_alt_partition_sdram_end, ABSOLUTE (.))
                0x0180cfb4                _end = ABSOLUTE (.)
                0x0180cfb4                end = ABSOLUTE (.)
                0x0180cfb4                __alt_stack_base = ABSOLUTE (.)
                0x0180cfb4                PROVIDE (_alt_partition_sdram_load_addr, LOADADDR (.sdram))

.stab
 *(.stab)

.stabstr
 *(.stabstr)

.stab.excl
 *(.stab.excl)

.stab.exclstr
 *(.stab.exclstr)

.stab.index
 *(.stab.index)

.stab.indexstr
 *(.stab.indexstr)

.comment        0x00000000       0x26
 *(.comment)
 .comment       0x00000000       0x26 obj/default/ledos/cortex/vcortex/gpu/gpu.o
                                 0x27 (size before relaxing)
 .comment       0x00000000       0x27 obj/default/ledos/cortex/vcortex/vga/vga.o
 .comment       0x00000000       0x27 obj/default/ledos/graphics/graphics.o
 .comment       0x00000000       0x27 obj/default/main.o
 .comment       0x00000000       0x27 G:/WorK/Synesthesia/github/synesthesia_zen/wxp/dgn/sw/limbus_bsp/\libchibios_v240_bsp.a(chthreads.o)
 .comment       0x00000000       0x27 G:/WorK/Synesthesia/github/synesthesia_zen/wxp/dgn/sw/limbus_bsp/\libchibios_v240_bsp.a(chvt.o)
 .comment       0x00000000       0x27 G:/WorK/Synesthesia/github/synesthesia_zen/wxp/dgn/sw/limbus_bsp/\libchibios_v240_bsp.a(alt_load.o)
 .comment       0x00000000       0x27 G:/WorK/Synesthesia/github/synesthesia_zen/wxp/dgn/sw/limbus_bsp/\libchibios_v240_bsp.a(alt_main.o)
 .comment       0x00000000       0x27 G:/WorK/Synesthesia/github/synesthesia_zen/wxp/dgn/sw/limbus_bsp/\libchibios_v240_bsp.a(alt_printf.o)
 .comment       0x00000000       0x27 G:/WorK/Synesthesia/github/synesthesia_zen/wxp/dgn/sw/limbus_bsp/\libchibios_v240_bsp.a(alt_putchar.o)
 .comment       0x00000000       0x27 G:/WorK/Synesthesia/github/synesthesia_zen/wxp/dgn/sw/limbus_bsp/\libchibios_v240_bsp.a(alt_putstr.o)
 .comment       0x00000000       0x27 G:/WorK/Synesthesia/github/synesthesia_zen/wxp/dgn/sw/limbus_bsp/\libchibios_v240_bsp.a(alt_sys_init.o)
 .comment       0x00000000       0x27 G:/WorK/Synesthesia/github/synesthesia_zen/wxp/dgn/sw/limbus_bsp/\libchibios_v240_bsp.a(altera_avalon_jtag_uart_fd.o)
 .comment       0x00000000       0x27 G:/WorK/Synesthesia/github/synesthesia_zen/wxp/dgn/sw/limbus_bsp/\libchibios_v240_bsp.a(altera_avalon_jtag_uart_init.o)
 .comment       0x00000000       0x27 G:/WorK/Synesthesia/github/synesthesia_zen/wxp/dgn/sw/limbus_bsp/\libchibios_v240_bsp.a(altera_avalon_jtag_uart_ioctl.o)
 .comment       0x00000000       0x27 G:/WorK/Synesthesia/github/synesthesia_zen/wxp/dgn/sw/limbus_bsp/\libchibios_v240_bsp.a(altera_avalon_jtag_uart_read.o)
 .comment       0x00000000       0x27 G:/WorK/Synesthesia/github/synesthesia_zen/wxp/dgn/sw/limbus_bsp/\libchibios_v240_bsp.a(altera_avalon_jtag_uart_write.o)
 .comment       0x00000000       0x27 G:/WorK/Synesthesia/github/synesthesia_zen/wxp/dgn/sw/limbus_bsp/\libchibios_v240_bsp.a(altera_avalon_timer_sc.o)
 .comment       0x00000000       0x27 G:/WorK/Synesthesia/github/synesthesia_zen/wxp/dgn/sw/limbus_bsp/\libchibios_v240_bsp.a(altera_avalon_uart_fd.o)
 .comment       0x00000000       0x27 G:/WorK/Synesthesia/github/synesthesia_zen/wxp/dgn/sw/limbus_bsp/\libchibios_v240_bsp.a(altera_avalon_uart_init.o)
 .comment       0x00000000       0x27 G:/WorK/Synesthesia/github/synesthesia_zen/wxp/dgn/sw/limbus_bsp/\libchibios_v240_bsp.a(altera_avalon_uart_read.o)
 .comment       0x00000000       0x27 G:/WorK/Synesthesia/github/synesthesia_zen/wxp/dgn/sw/limbus_bsp/\libchibios_v240_bsp.a(altera_avalon_uart_write.o)
 .comment       0x00000000       0x27 G:/WorK/Synesthesia/github/synesthesia_zen/wxp/dgn/sw/limbus_bsp/\libchibios_v240_bsp.a(chdynamic.o)
 .comment       0x00000000       0x27 G:/WorK/Synesthesia/github/synesthesia_zen/wxp/dgn/sw/limbus_bsp/\libchibios_v240_bsp.a(chheap.o)
 .comment       0x00000000       0x27 G:/WorK/Synesthesia/github/synesthesia_zen/wxp/dgn/sw/limbus_bsp/\libchibios_v240_bsp.a(chmemcore.o)
 .comment       0x00000000       0x27 G:/WorK/Synesthesia/github/synesthesia_zen/wxp/dgn/sw/limbus_bsp/\libchibios_v240_bsp.a(chmempools.o)
 .comment       0x00000000       0x27 G:/WorK/Synesthesia/github/synesthesia_zen/wxp/dgn/sw/limbus_bsp/\libchibios_v240_bsp.a(chmtx.o)
 .comment       0x00000000       0x27 G:/WorK/Synesthesia/github/synesthesia_zen/wxp/dgn/sw/limbus_bsp/\libchibios_v240_bsp.a(chschd.o)
 .comment       0x00000000       0x27 G:/WorK/Synesthesia/github/synesthesia_zen/wxp/dgn/sw/limbus_bsp/\libchibios_v240_bsp.a(chsys.o)
 .comment       0x00000000       0x27 G:/WorK/Synesthesia/github/synesthesia_zen/wxp/dgn/sw/limbus_bsp/\libchibios_v240_bsp.a(alt_alarm_start.o)
 .comment       0x00000000       0x27 G:/WorK/Synesthesia/github/synesthesia_zen/wxp/dgn/sw/limbus_bsp/\libchibios_v240_bsp.a(alt_close.o)
 .comment       0x00000000       0x27 G:/WorK/Synesthesia/github/synesthesia_zen/wxp/dgn/sw/limbus_bsp/\libchibios_v240_bsp.a(alt_dcache_flush_all.o)
 .comment       0x00000000       0x27 G:/WorK/Synesthesia/github/synesthesia_zen/wxp/dgn/sw/limbus_bsp/\libchibios_v240_bsp.a(alt_dev.o)
 .comment       0x00000000       0x27 G:/WorK/Synesthesia/github/synesthesia_zen/wxp/dgn/sw/limbus_bsp/\libchibios_v240_bsp.a(alt_dev_llist_insert.o)
 .comment       0x00000000       0x27 G:/WorK/Synesthesia/github/synesthesia_zen/wxp/dgn/sw/limbus_bsp/\libchibios_v240_bsp.a(alt_do_ctors.o)
 .comment       0x00000000       0x27 G:/WorK/Synesthesia/github/synesthesia_zen/wxp/dgn/sw/limbus_bsp/\libchibios_v240_bsp.a(alt_do_dtors.o)
 .comment       0x00000000       0x27 G:/WorK/Synesthesia/github/synesthesia_zen/wxp/dgn/sw/limbus_bsp/\libchibios_v240_bsp.a(alt_errno.o)
 .comment       0x00000000       0x27 G:/WorK/Synesthesia/github/synesthesia_zen/wxp/dgn/sw/limbus_bsp/\libchibios_v240_bsp.a(alt_icache_flush_all.o)
 .comment       0x00000000       0x27 G:/WorK/Synesthesia/github/synesthesia_zen/wxp/dgn/sw/limbus_bsp/\libchibios_v240_bsp.a(alt_iic.o)
 .comment       0x00000000       0x27 G:/WorK/Synesthesia/github/synesthesia_zen/wxp/dgn/sw/limbus_bsp/\libchibios_v240_bsp.a(alt_iic_isr_register.o)
 .comment       0x00000000       0x27 G:/WorK/Synesthesia/github/synesthesia_zen/wxp/dgn/sw/limbus_bsp/\libchibios_v240_bsp.a(alt_io_redirect.o)
 .comment       0x00000000       0x27 G:/WorK/Synesthesia/github/synesthesia_zen/wxp/dgn/sw/limbus_bsp/\libchibios_v240_bsp.a(alt_irq_handler.o)
 .comment       0x00000000       0x27 G:/WorK/Synesthesia/github/synesthesia_zen/wxp/dgn/sw/limbus_bsp/\libchibios_v240_bsp.a(alt_irq_vars.o)
 .comment       0x00000000       0x27 G:/WorK/Synesthesia/github/synesthesia_zen/wxp/dgn/sw/limbus_bsp/\libchibios_v240_bsp.a(alt_open.o)
 .comment       0x00000000       0x27 G:/WorK/Synesthesia/github/synesthesia_zen/wxp/dgn/sw/limbus_bsp/\libchibios_v240_bsp.a(alt_release_fd.o)
 .comment       0x00000000       0x27 G:/WorK/Synesthesia/github/synesthesia_zen/wxp/dgn/sw/limbus_bsp/\libchibios_v240_bsp.a(alt_tick.o)
 .comment       0x00000000       0x27 G:/WorK/Synesthesia/github/synesthesia_zen/wxp/dgn/sw/limbus_bsp/\libchibios_v240_bsp.a(altera_nios2_qsys_irq.o)
 .comment       0x00000000       0x27 G:/WorK/Synesthesia/github/synesthesia_zen/wxp/dgn/sw/limbus_bsp/\libchibios_v240_bsp.a(chcore.o)
 .comment       0x00000000       0x27 G:/WorK/Synesthesia/github/synesthesia_zen/wxp/dgn/sw/limbus_bsp/\libchibios_v240_bsp.a(alt_find_dev.o)
 .comment       0x00000000       0x27 G:/WorK/Synesthesia/github/synesthesia_zen/wxp/dgn/sw/limbus_bsp/\libchibios_v240_bsp.a(alt_find_file.o)
 .comment       0x00000000       0x27 G:/WorK/Synesthesia/github/synesthesia_zen/wxp/dgn/sw/limbus_bsp/\libchibios_v240_bsp.a(alt_get_fd.o)
 .comment       0x00000000       0x27 c:/altera/11.1sp2/nios2eds/bin/gnu/h-i686-mingw32/bin/../lib/gcc/nios2-elf/4.1.2/../../../../nios2-elf/lib/mno-hw-mul\libc.a(lib_a-atexit.o)
 .comment       0x00000000       0x27 c:/altera/11.1sp2/nios2eds/bin/gnu/h-i686-mingw32/bin/../lib/gcc/nios2-elf/4.1.2/../../../../nios2-elf/lib/mno-hw-mul\libc.a(lib_a-exit.o)
 .comment       0x00000000       0x27 c:/altera/11.1sp2/nios2eds/bin/gnu/h-i686-mingw32/bin/../lib/gcc/nios2-elf/4.1.2/../../../../nios2-elf/lib/mno-hw-mul\libc.a(lib_a-fputs.o)
 .comment       0x00000000       0x27 c:/altera/11.1sp2/nios2eds/bin/gnu/h-i686-mingw32/bin/../lib/gcc/nios2-elf/4.1.2/../../../../nios2-elf/lib/mno-hw-mul\libc.a(lib_a-fvwrite.o)
 .comment       0x00000000       0x27 c:/altera/11.1sp2/nios2eds/bin/gnu/h-i686-mingw32/bin/../lib/gcc/nios2-elf/4.1.2/../../../../nios2-elf/lib/mno-hw-mul\libc.a(lib_a-impure.o)
 .comment       0x00000000       0x27 c:/altera/11.1sp2/nios2eds/bin/gnu/h-i686-mingw32/bin/../lib/gcc/nios2-elf/4.1.2/../../../../nios2-elf/lib/mno-hw-mul\libc.a(lib_a-int_errno.o)
 .comment       0x00000000       0x27 c:/altera/11.1sp2/nios2eds/bin/gnu/h-i686-mingw32/bin/../lib/gcc/nios2-elf/4.1.2/../../../../nios2-elf/lib/mno-hw-mul\libc.a(lib_a-mallocr.o)
 .comment       0x00000000       0x27 c:/altera/11.1sp2/nios2eds/bin/gnu/h-i686-mingw32/bin/../lib/gcc/nios2-elf/4.1.2/../../../../nios2-elf/lib/mno-hw-mul\libc.a(lib_a-memchr.o)
 .comment       0x00000000       0x27 c:/altera/11.1sp2/nios2eds/bin/gnu/h-i686-mingw32/bin/../lib/gcc/nios2-elf/4.1.2/../../../../nios2-elf/lib/mno-hw-mul\libc.a(lib_a-memcmp.o)
 .comment       0x00000000       0x27 c:/altera/11.1sp2/nios2eds/bin/gnu/h-i686-mingw32/bin/../lib/gcc/nios2-elf/4.1.2/../../../../nios2-elf/lib/mno-hw-mul\libc.a(lib_a-memcpy.o)
 .comment       0x00000000       0x27 c:/altera/11.1sp2/nios2eds/bin/gnu/h-i686-mingw32/bin/../lib/gcc/nios2-elf/4.1.2/../../../../nios2-elf/lib/mno-hw-mul\libc.a(lib_a-memmove.o)
 .comment       0x00000000       0x27 c:/altera/11.1sp2/nios2eds/bin/gnu/h-i686-mingw32/bin/../lib/gcc/nios2-elf/4.1.2/../../../../nios2-elf/lib/mno-hw-mul\libc.a(lib_a-putc.o)
 .comment       0x00000000       0x27 c:/altera/11.1sp2/nios2eds/bin/gnu/h-i686-mingw32/bin/../lib/gcc/nios2-elf/4.1.2/../../../../nios2-elf/lib/mno-hw-mul\libc.a(lib_a-reallocr.o)
 .comment       0x00000000       0x27 c:/altera/11.1sp2/nios2eds/bin/gnu/h-i686-mingw32/bin/../lib/gcc/nios2-elf/4.1.2/../../../../nios2-elf/lib/mno-hw-mul\libc.a(lib_a-sbrkr.o)
 .comment       0x00000000       0x27 c:/altera/11.1sp2/nios2eds/bin/gnu/h-i686-mingw32/bin/../lib/gcc/nios2-elf/4.1.2/../../../../nios2-elf/lib/mno-hw-mul\libc.a(lib_a-strlen.o)
 .comment       0x00000000       0x27 c:/altera/11.1sp2/nios2eds/bin/gnu/h-i686-mingw32/bin/../lib/gcc/nios2-elf/4.1.2/../../../../nios2-elf/lib/mno-hw-mul\libc.a(lib_a-wbuf.o)
 .comment       0x00000000       0x27 c:/altera/11.1sp2/nios2eds/bin/gnu/h-i686-mingw32/bin/../lib/gcc/nios2-elf/4.1.2/../../../../nios2-elf/lib/mno-hw-mul\libc.a(lib_a-wsetup.o)
 .comment       0x00000000       0x27 c:/altera/11.1sp2/nios2eds/bin/gnu/h-i686-mingw32/bin/../lib/gcc/nios2-elf/4.1.2/../../../../nios2-elf/lib/mno-hw-mul\libc.a(lib_a-__atexit.o)
 .comment       0x00000000       0x27 c:/altera/11.1sp2/nios2eds/bin/gnu/h-i686-mingw32/bin/../lib/gcc/nios2-elf/4.1.2/../../../../nios2-elf/lib/mno-hw-mul\libc.a(lib_a-__call_atexit.o)
 .comment       0x00000000       0x27 c:/altera/11.1sp2/nios2eds/bin/gnu/h-i686-mingw32/bin/../lib/gcc/nios2-elf/4.1.2/../../../../nios2-elf/lib/mno-hw-mul\libc.a(lib_a-fflush.o)
 .comment       0x00000000       0x27 c:/altera/11.1sp2/nios2eds/bin/gnu/h-i686-mingw32/bin/../lib/gcc/nios2-elf/4.1.2/../../../../nios2-elf/lib/mno-hw-mul\libc.a(lib_a-findfp.o)
 .comment       0x00000000       0x27 c:/altera/11.1sp2/nios2eds/bin/gnu/h-i686-mingw32/bin/../lib/gcc/nios2-elf/4.1.2/../../../../nios2-elf/lib/mno-hw-mul\libc.a(lib_a-freer.o)
 .comment       0x00000000       0x27 c:/altera/11.1sp2/nios2eds/bin/gnu/h-i686-mingw32/bin/../lib/gcc/nios2-elf/4.1.2/../../../../nios2-elf/lib/mno-hw-mul\libc.a(lib_a-fwalk.o)
 .comment       0x00000000       0x27 c:/altera/11.1sp2/nios2eds/bin/gnu/h-i686-mingw32/bin/../lib/gcc/nios2-elf/4.1.2/../../../../nios2-elf/lib/mno-hw-mul\libc.a(lib_a-makebuf.o)
 .comment       0x00000000       0x27 c:/altera/11.1sp2/nios2eds/bin/gnu/h-i686-mingw32/bin/../lib/gcc/nios2-elf/4.1.2/../../../../nios2-elf/lib/mno-hw-mul\libc.a(lib_a-memset.o)
 .comment       0x00000000       0x27 c:/altera/11.1sp2/nios2eds/bin/gnu/h-i686-mingw32/bin/../lib/gcc/nios2-elf/4.1.2/../../../../nios2-elf/lib/mno-hw-mul\libc.a(lib_a-stdio.o)
 .comment       0x00000000       0x27 c:/altera/11.1sp2/nios2eds/bin/gnu/h-i686-mingw32/bin/../lib/gcc/nios2-elf/4.1.2/../../../../nios2-elf/lib/mno-hw-mul\libc.a(lib_a-writer.o)
 .comment       0x00000000       0x27 c:/altera/11.1sp2/nios2eds/bin/gnu/h-i686-mingw32/bin/../lib/gcc/nios2-elf/4.1.2/../../../../nios2-elf/lib/mno-hw-mul\libc.a(lib_a-closer.o)
 .comment       0x00000000       0x27 c:/altera/11.1sp2/nios2eds/bin/gnu/h-i686-mingw32/bin/../lib/gcc/nios2-elf/4.1.2/../../../../nios2-elf/lib/mno-hw-mul\libc.a(lib_a-fclose.o)
 .comment       0x00000000       0x27 c:/altera/11.1sp2/nios2eds/bin/gnu/h-i686-mingw32/bin/../lib/gcc/nios2-elf/4.1.2/../../../../nios2-elf/lib/mno-hw-mul\libc.a(lib_a-fstatr.o)
 .comment       0x00000000       0x27 c:/altera/11.1sp2/nios2eds/bin/gnu/h-i686-mingw32/bin/../lib/gcc/nios2-elf/4.1.2/../../../../nios2-elf/lib/mno-hw-mul\libc.a(lib_a-isattyr.o)
 .comment       0x00000000       0x27 c:/altera/11.1sp2/nios2eds/bin/gnu/h-i686-mingw32/bin/../lib/gcc/nios2-elf/4.1.2/../../../../nios2-elf/lib/mno-hw-mul\libc.a(lib_a-lseekr.o)
 .comment       0x00000000       0x27 c:/altera/11.1sp2/nios2eds/bin/gnu/h-i686-mingw32/bin/../lib/gcc/nios2-elf/4.1.2/../../../../nios2-elf/lib/mno-hw-mul\libc.a(lib_a-readr.o)
 .comment       0x00000000       0x27 c:/altera/11.1sp2/nios2eds/bin/gnu/h-i686-mingw32/bin/../lib/gcc/nios2-elf/4.1.2/mno-hw-mul\libgcc.a(lib2-mul.o)
 .comment       0x00000000       0x27 G:/WorK/Synesthesia/github/synesthesia_zen/wxp/dgn/sw/limbus_bsp/\libchibios_v240_bsp.a(alt_exit.o)
 .comment       0x00000000       0x27 G:/WorK/Synesthesia/github/synesthesia_zen/wxp/dgn/sw/limbus_bsp/\libchibios_v240_bsp.a(alt_fstat.o)
 .comment       0x00000000       0x27 G:/WorK/Synesthesia/github/synesthesia_zen/wxp/dgn/sw/limbus_bsp/\libchibios_v240_bsp.a(alt_isatty.o)
 .comment       0x00000000       0x27 G:/WorK/Synesthesia/github/synesthesia_zen/wxp/dgn/sw/limbus_bsp/\libchibios_v240_bsp.a(alt_lseek.o)
 .comment       0x00000000       0x27 G:/WorK/Synesthesia/github/synesthesia_zen/wxp/dgn/sw/limbus_bsp/\libchibios_v240_bsp.a(alt_malloc_lock.o)
 .comment       0x00000000       0x27 G:/WorK/Synesthesia/github/synesthesia_zen/wxp/dgn/sw/limbus_bsp/\libchibios_v240_bsp.a(alt_read.o)
 .comment       0x00000000       0x27 G:/WorK/Synesthesia/github/synesthesia_zen/wxp/dgn/sw/limbus_bsp/\libchibios_v240_bsp.a(alt_sbrk.o)
 .comment       0x00000000       0x27 G:/WorK/Synesthesia/github/synesthesia_zen/wxp/dgn/sw/limbus_bsp/\libchibios_v240_bsp.a(alt_write.o)

.debug
 *(.debug)

.line
 *(.line)

.debug_srcinfo
 *(.debug_srcinfo)

.debug_sfnames
 *(.debug_sfnames)

.debug_aranges  0x00000000      0xbb8
 *(.debug_aranges)
 .debug_aranges
                0x00000000       0x28 G:/WorK/Synesthesia/github/synesthesia_zen/wxp/dgn/sw/limbus_bsp//obj/HAL/src/crt0.o
 .debug_aranges
                0x00000028       0x20 obj/default/ledos/cortex/vcortex/vga/vga.o
 .debug_aranges
                0x00000048       0x20 obj/default/ledos/graphics/graphics.o
 .debug_aranges
                0x00000068       0x20 obj/default/main.o
 .debug_aranges
                0x00000088       0x20 G:/WorK/Synesthesia/github/synesthesia_zen/wxp/dgn/sw/limbus_bsp/\libchibios_v240_bsp.a(chthreads.o)
 .debug_aranges
                0x000000a8       0x20 G:/WorK/Synesthesia/github/synesthesia_zen/wxp/dgn/sw/limbus_bsp/\libchibios_v240_bsp.a(chvt.o)
 .debug_aranges
                0x000000c8       0x20 G:/WorK/Synesthesia/github/synesthesia_zen/wxp/dgn/sw/limbus_bsp/\libchibios_v240_bsp.a(chcoreasm.o)
 .debug_aranges
                0x000000e8       0x20 G:/WorK/Synesthesia/github/synesthesia_zen/wxp/dgn/sw/limbus_bsp/\libchibios_v240_bsp.a(alt_load.o)
 .debug_aranges
                0x00000108       0x20 G:/WorK/Synesthesia/github/synesthesia_zen/wxp/dgn/sw/limbus_bsp/\libchibios_v240_bsp.a(alt_main.o)
 .debug_aranges
                0x00000128       0x20 G:/WorK/Synesthesia/github/synesthesia_zen/wxp/dgn/sw/limbus_bsp/\libchibios_v240_bsp.a(alt_printf.o)
 .debug_aranges
                0x00000148       0x20 G:/WorK/Synesthesia/github/synesthesia_zen/wxp/dgn/sw/limbus_bsp/\libchibios_v240_bsp.a(alt_putchar.o)
 .debug_aranges
                0x00000168       0x20 G:/WorK/Synesthesia/github/synesthesia_zen/wxp/dgn/sw/limbus_bsp/\libchibios_v240_bsp.a(alt_putstr.o)
 .debug_aranges
                0x00000188       0x20 G:/WorK/Synesthesia/github/synesthesia_zen/wxp/dgn/sw/limbus_bsp/\libchibios_v240_bsp.a(alt_sys_init.o)
 .debug_aranges
                0x000001a8       0x20 G:/WorK/Synesthesia/github/synesthesia_zen/wxp/dgn/sw/limbus_bsp/\libchibios_v240_bsp.a(altera_avalon_jtag_uart_fd.o)
 .debug_aranges
                0x000001c8       0x20 G:/WorK/Synesthesia/github/synesthesia_zen/wxp/dgn/sw/limbus_bsp/\libchibios_v240_bsp.a(altera_avalon_jtag_uart_init.o)
 .debug_aranges
                0x000001e8       0x20 G:/WorK/Synesthesia/github/synesthesia_zen/wxp/dgn/sw/limbus_bsp/\libchibios_v240_bsp.a(altera_avalon_jtag_uart_ioctl.o)
 .debug_aranges
                0x00000208       0x20 G:/WorK/Synesthesia/github/synesthesia_zen/wxp/dgn/sw/limbus_bsp/\libchibios_v240_bsp.a(altera_avalon_jtag_uart_read.o)
 .debug_aranges
                0x00000228       0x20 G:/WorK/Synesthesia/github/synesthesia_zen/wxp/dgn/sw/limbus_bsp/\libchibios_v240_bsp.a(altera_avalon_jtag_uart_write.o)
 .debug_aranges
                0x00000248       0x20 G:/WorK/Synesthesia/github/synesthesia_zen/wxp/dgn/sw/limbus_bsp/\libchibios_v240_bsp.a(altera_avalon_timer_sc.o)
 .debug_aranges
                0x00000268       0x20 G:/WorK/Synesthesia/github/synesthesia_zen/wxp/dgn/sw/limbus_bsp/\libchibios_v240_bsp.a(altera_avalon_uart_fd.o)
 .debug_aranges
                0x00000288       0x20 G:/WorK/Synesthesia/github/synesthesia_zen/wxp/dgn/sw/limbus_bsp/\libchibios_v240_bsp.a(altera_avalon_uart_init.o)
 .debug_aranges
                0x000002a8       0x20 G:/WorK/Synesthesia/github/synesthesia_zen/wxp/dgn/sw/limbus_bsp/\libchibios_v240_bsp.a(altera_avalon_uart_read.o)
 .debug_aranges
                0x000002c8       0x20 G:/WorK/Synesthesia/github/synesthesia_zen/wxp/dgn/sw/limbus_bsp/\libchibios_v240_bsp.a(altera_avalon_uart_write.o)
 .debug_aranges
                0x000002e8       0x20 G:/WorK/Synesthesia/github/synesthesia_zen/wxp/dgn/sw/limbus_bsp/\libchibios_v240_bsp.a(chdynamic.o)
 .debug_aranges
                0x00000308       0x20 G:/WorK/Synesthesia/github/synesthesia_zen/wxp/dgn/sw/limbus_bsp/\libchibios_v240_bsp.a(chheap.o)
 .debug_aranges
                0x00000328       0x20 G:/WorK/Synesthesia/github/synesthesia_zen/wxp/dgn/sw/limbus_bsp/\libchibios_v240_bsp.a(chmemcore.o)
 .debug_aranges
                0x00000348       0x20 G:/WorK/Synesthesia/github/synesthesia_zen/wxp/dgn/sw/limbus_bsp/\libchibios_v240_bsp.a(chmempools.o)
 .debug_aranges
                0x00000368       0x20 G:/WorK/Synesthesia/github/synesthesia_zen/wxp/dgn/sw/limbus_bsp/\libchibios_v240_bsp.a(chmtx.o)
 .debug_aranges
                0x00000388       0x20 G:/WorK/Synesthesia/github/synesthesia_zen/wxp/dgn/sw/limbus_bsp/\libchibios_v240_bsp.a(chschd.o)
 .debug_aranges
                0x000003a8       0x20 G:/WorK/Synesthesia/github/synesthesia_zen/wxp/dgn/sw/limbus_bsp/\libchibios_v240_bsp.a(chsys.o)
 .debug_aranges
                0x000003c8       0x20 G:/WorK/Synesthesia/github/synesthesia_zen/wxp/dgn/sw/limbus_bsp/\libchibios_v240_bsp.a(alt_alarm_start.o)
 .debug_aranges
                0x000003e8       0x20 G:/WorK/Synesthesia/github/synesthesia_zen/wxp/dgn/sw/limbus_bsp/\libchibios_v240_bsp.a(alt_close.o)
 .debug_aranges
                0x00000408       0x20 G:/WorK/Synesthesia/github/synesthesia_zen/wxp/dgn/sw/limbus_bsp/\libchibios_v240_bsp.a(alt_dcache_flush_all.o)
 .debug_aranges
                0x00000428       0x20 G:/WorK/Synesthesia/github/synesthesia_zen/wxp/dgn/sw/limbus_bsp/\libchibios_v240_bsp.a(alt_dev.o)
 .debug_aranges
                0x00000448       0x20 G:/WorK/Synesthesia/github/synesthesia_zen/wxp/dgn/sw/limbus_bsp/\libchibios_v240_bsp.a(alt_dev_llist_insert.o)
 .debug_aranges
                0x00000468       0x20 G:/WorK/Synesthesia/github/synesthesia_zen/wxp/dgn/sw/limbus_bsp/\libchibios_v240_bsp.a(alt_do_ctors.o)
 .debug_aranges
                0x00000488       0x20 G:/WorK/Synesthesia/github/synesthesia_zen/wxp/dgn/sw/limbus_bsp/\libchibios_v240_bsp.a(alt_do_dtors.o)
 .debug_aranges
                0x000004a8       0x20 G:/WorK/Synesthesia/github/synesthesia_zen/wxp/dgn/sw/limbus_bsp/\libchibios_v240_bsp.a(alt_icache_flush_all.o)
 .debug_aranges
                0x000004c8       0x20 G:/WorK/Synesthesia/github/synesthesia_zen/wxp/dgn/sw/limbus_bsp/\libchibios_v240_bsp.a(alt_iic.o)
 .debug_aranges
                0x000004e8       0x20 G:/WorK/Synesthesia/github/synesthesia_zen/wxp/dgn/sw/limbus_bsp/\libchibios_v240_bsp.a(alt_iic_isr_register.o)
 .debug_aranges
                0x00000508       0x20 G:/WorK/Synesthesia/github/synesthesia_zen/wxp/dgn/sw/limbus_bsp/\libchibios_v240_bsp.a(alt_io_redirect.o)
 .debug_aranges
                0x00000528       0x30 G:/WorK/Synesthesia/github/synesthesia_zen/wxp/dgn/sw/limbus_bsp/\libchibios_v240_bsp.a(alt_irq_entry.o)
 .debug_aranges
                0x00000558       0x28 G:/WorK/Synesthesia/github/synesthesia_zen/wxp/dgn/sw/limbus_bsp/\libchibios_v240_bsp.a(alt_irq_handler.o)
 .debug_aranges
                0x00000580       0x20 G:/WorK/Synesthesia/github/synesthesia_zen/wxp/dgn/sw/limbus_bsp/\libchibios_v240_bsp.a(alt_open.o)
 .debug_aranges
                0x000005a0       0x20 G:/WorK/Synesthesia/github/synesthesia_zen/wxp/dgn/sw/limbus_bsp/\libchibios_v240_bsp.a(alt_release_fd.o)
 .debug_aranges
                0x000005c0       0x20 G:/WorK/Synesthesia/github/synesthesia_zen/wxp/dgn/sw/limbus_bsp/\libchibios_v240_bsp.a(alt_tick.o)
 .debug_aranges
                0x000005e0       0x20 G:/WorK/Synesthesia/github/synesthesia_zen/wxp/dgn/sw/limbus_bsp/\libchibios_v240_bsp.a(altera_nios2_qsys_irq.o)
 .debug_aranges
                0x00000600       0x20 G:/WorK/Synesthesia/github/synesthesia_zen/wxp/dgn/sw/limbus_bsp/\libchibios_v240_bsp.a(chcore.o)
 .debug_aranges
                0x00000620       0x38 G:/WorK/Synesthesia/github/synesthesia_zen/wxp/dgn/sw/limbus_bsp/\libchibios_v240_bsp.a(alt_exception_entry.o)
 .debug_aranges
                0x00000658       0x20 G:/WorK/Synesthesia/github/synesthesia_zen/wxp/dgn/sw/limbus_bsp/\libchibios_v240_bsp.a(alt_find_dev.o)
 .debug_aranges
                0x00000678       0x20 G:/WorK/Synesthesia/github/synesthesia_zen/wxp/dgn/sw/limbus_bsp/\libchibios_v240_bsp.a(alt_find_file.o)
 .debug_aranges
                0x00000698       0x20 G:/WorK/Synesthesia/github/synesthesia_zen/wxp/dgn/sw/limbus_bsp/\libchibios_v240_bsp.a(alt_get_fd.o)
 .debug_aranges
                0x000006b8       0x20 c:/altera/11.1sp2/nios2eds/bin/gnu/h-i686-mingw32/bin/../lib/gcc/nios2-elf/4.1.2/../../../../nios2-elf/lib/mno-hw-mul\libc.a(lib_a-atexit.o)
 .debug_aranges
                0x000006d8       0x20 c:/altera/11.1sp2/nios2eds/bin/gnu/h-i686-mingw32/bin/../lib/gcc/nios2-elf/4.1.2/../../../../nios2-elf/lib/mno-hw-mul\libc.a(lib_a-exit.o)
 .debug_aranges
                0x000006f8       0x20 c:/altera/11.1sp2/nios2eds/bin/gnu/h-i686-mingw32/bin/../lib/gcc/nios2-elf/4.1.2/../../../../nios2-elf/lib/mno-hw-mul\libc.a(lib_a-fputs.o)
 .debug_aranges
                0x00000718       0x20 c:/altera/11.1sp2/nios2eds/bin/gnu/h-i686-mingw32/bin/../lib/gcc/nios2-elf/4.1.2/../../../../nios2-elf/lib/mno-hw-mul\libc.a(lib_a-fvwrite.o)
 .debug_aranges
                0x00000738       0x20 c:/altera/11.1sp2/nios2eds/bin/gnu/h-i686-mingw32/bin/../lib/gcc/nios2-elf/4.1.2/../../../../nios2-elf/lib/mno-hw-mul\libc.a(lib_a-mallocr.o)
 .debug_aranges
                0x00000758       0x20 c:/altera/11.1sp2/nios2eds/bin/gnu/h-i686-mingw32/bin/../lib/gcc/nios2-elf/4.1.2/../../../../nios2-elf/lib/mno-hw-mul\libc.a(lib_a-memchr.o)
 .debug_aranges
                0x00000778       0x20 c:/altera/11.1sp2/nios2eds/bin/gnu/h-i686-mingw32/bin/../lib/gcc/nios2-elf/4.1.2/../../../../nios2-elf/lib/mno-hw-mul\libc.a(lib_a-memcmp.o)
 .debug_aranges
                0x00000798       0x20 c:/altera/11.1sp2/nios2eds/bin/gnu/h-i686-mingw32/bin/../lib/gcc/nios2-elf/4.1.2/../../../../nios2-elf/lib/mno-hw-mul\libc.a(lib_a-memcpy.o)
 .debug_aranges
                0x000007b8       0x20 c:/altera/11.1sp2/nios2eds/bin/gnu/h-i686-mingw32/bin/../lib/gcc/nios2-elf/4.1.2/../../../../nios2-elf/lib/mno-hw-mul\libc.a(lib_a-memmove.o)
 .debug_aranges
                0x000007d8       0x20 c:/altera/11.1sp2/nios2eds/bin/gnu/h-i686-mingw32/bin/../lib/gcc/nios2-elf/4.1.2/../../../../nios2-elf/lib/mno-hw-mul\libc.a(lib_a-putc.o)
 .debug_aranges
                0x000007f8       0x20 c:/altera/11.1sp2/nios2eds/bin/gnu/h-i686-mingw32/bin/../lib/gcc/nios2-elf/4.1.2/../../../../nios2-elf/lib/mno-hw-mul\libc.a(lib_a-reallocr.o)
 .debug_aranges
                0x00000818       0x20 c:/altera/11.1sp2/nios2eds/bin/gnu/h-i686-mingw32/bin/../lib/gcc/nios2-elf/4.1.2/../../../../nios2-elf/lib/mno-hw-mul\libc.a(lib_a-sbrkr.o)
 .debug_aranges
                0x00000838       0x20 c:/altera/11.1sp2/nios2eds/bin/gnu/h-i686-mingw32/bin/../lib/gcc/nios2-elf/4.1.2/../../../../nios2-elf/lib/mno-hw-mul\libc.a(lib_a-strlen.o)
 .debug_aranges
                0x00000858       0x20 c:/altera/11.1sp2/nios2eds/bin/gnu/h-i686-mingw32/bin/../lib/gcc/nios2-elf/4.1.2/../../../../nios2-elf/lib/mno-hw-mul\libc.a(lib_a-wbuf.o)
 .debug_aranges
                0x00000878       0x20 c:/altera/11.1sp2/nios2eds/bin/gnu/h-i686-mingw32/bin/../lib/gcc/nios2-elf/4.1.2/../../../../nios2-elf/lib/mno-hw-mul\libc.a(lib_a-wsetup.o)
 .debug_aranges
                0x00000898       0x20 c:/altera/11.1sp2/nios2eds/bin/gnu/h-i686-mingw32/bin/../lib/gcc/nios2-elf/4.1.2/../../../../nios2-elf/lib/mno-hw-mul\libc.a(lib_a-__atexit.o)
 .debug_aranges
                0x000008b8       0x20 c:/altera/11.1sp2/nios2eds/bin/gnu/h-i686-mingw32/bin/../lib/gcc/nios2-elf/4.1.2/../../../../nios2-elf/lib/mno-hw-mul\libc.a(lib_a-__call_atexit.o)
 .debug_aranges
                0x000008d8       0x20 c:/altera/11.1sp2/nios2eds/bin/gnu/h-i686-mingw32/bin/../lib/gcc/nios2-elf/4.1.2/../../../../nios2-elf/lib/mno-hw-mul\libc.a(lib_a-fflush.o)
 .debug_aranges
                0x000008f8       0x20 c:/altera/11.1sp2/nios2eds/bin/gnu/h-i686-mingw32/bin/../lib/gcc/nios2-elf/4.1.2/../../../../nios2-elf/lib/mno-hw-mul\libc.a(lib_a-findfp.o)
 .debug_aranges
                0x00000918       0x20 c:/altera/11.1sp2/nios2eds/bin/gnu/h-i686-mingw32/bin/../lib/gcc/nios2-elf/4.1.2/../../../../nios2-elf/lib/mno-hw-mul\libc.a(lib_a-freer.o)
 .debug_aranges
                0x00000938       0x20 c:/altera/11.1sp2/nios2eds/bin/gnu/h-i686-mingw32/bin/../lib/gcc/nios2-elf/4.1.2/../../../../nios2-elf/lib/mno-hw-mul\libc.a(lib_a-fwalk.o)
 .debug_aranges
                0x00000958       0x20 c:/altera/11.1sp2/nios2eds/bin/gnu/h-i686-mingw32/bin/../lib/gcc/nios2-elf/4.1.2/../../../../nios2-elf/lib/mno-hw-mul\libc.a(lib_a-makebuf.o)
 .debug_aranges
                0x00000978       0x20 c:/altera/11.1sp2/nios2eds/bin/gnu/h-i686-mingw32/bin/../lib/gcc/nios2-elf/4.1.2/../../../../nios2-elf/lib/mno-hw-mul\libc.a(lib_a-memset.o)
 .debug_aranges
                0x00000998       0x20 c:/altera/11.1sp2/nios2eds/bin/gnu/h-i686-mingw32/bin/../lib/gcc/nios2-elf/4.1.2/../../../../nios2-elf/lib/mno-hw-mul\libc.a(lib_a-stdio.o)
 .debug_aranges
                0x000009b8       0x20 c:/altera/11.1sp2/nios2eds/bin/gnu/h-i686-mingw32/bin/../lib/gcc/nios2-elf/4.1.2/../../../../nios2-elf/lib/mno-hw-mul\libc.a(lib_a-writer.o)
 .debug_aranges
                0x000009d8       0x20 c:/altera/11.1sp2/nios2eds/bin/gnu/h-i686-mingw32/bin/../lib/gcc/nios2-elf/4.1.2/../../../../nios2-elf/lib/mno-hw-mul\libc.a(lib_a-closer.o)
 .debug_aranges
                0x000009f8       0x20 c:/altera/11.1sp2/nios2eds/bin/gnu/h-i686-mingw32/bin/../lib/gcc/nios2-elf/4.1.2/../../../../nios2-elf/lib/mno-hw-mul\libc.a(lib_a-fclose.o)
 .debug_aranges
                0x00000a18       0x20 c:/altera/11.1sp2/nios2eds/bin/gnu/h-i686-mingw32/bin/../lib/gcc/nios2-elf/4.1.2/../../../../nios2-elf/lib/mno-hw-mul\libc.a(lib_a-fstatr.o)
 .debug_aranges
                0x00000a38       0x20 c:/altera/11.1sp2/nios2eds/bin/gnu/h-i686-mingw32/bin/../lib/gcc/nios2-elf/4.1.2/../../../../nios2-elf/lib/mno-hw-mul\libc.a(lib_a-isattyr.o)
 .debug_aranges
                0x00000a58       0x20 c:/altera/11.1sp2/nios2eds/bin/gnu/h-i686-mingw32/bin/../lib/gcc/nios2-elf/4.1.2/../../../../nios2-elf/lib/mno-hw-mul\libc.a(lib_a-lseekr.o)
 .debug_aranges
                0x00000a78       0x20 c:/altera/11.1sp2/nios2eds/bin/gnu/h-i686-mingw32/bin/../lib/gcc/nios2-elf/4.1.2/../../../../nios2-elf/lib/mno-hw-mul\libc.a(lib_a-readr.o)
 .debug_aranges
                0x00000a98       0x20 c:/altera/11.1sp2/nios2eds/bin/gnu/h-i686-mingw32/bin/../lib/gcc/nios2-elf/4.1.2/mno-hw-mul\libgcc.a(lib2-mul.o)
 .debug_aranges
                0x00000ab8       0x20 G:/WorK/Synesthesia/github/synesthesia_zen/wxp/dgn/sw/limbus_bsp/\libchibios_v240_bsp.a(alt_exit.o)
 .debug_aranges
                0x00000ad8       0x20 G:/WorK/Synesthesia/github/synesthesia_zen/wxp/dgn/sw/limbus_bsp/\libchibios_v240_bsp.a(alt_fstat.o)
 .debug_aranges
                0x00000af8       0x20 G:/WorK/Synesthesia/github/synesthesia_zen/wxp/dgn/sw/limbus_bsp/\libchibios_v240_bsp.a(alt_isatty.o)
 .debug_aranges
                0x00000b18       0x20 G:/WorK/Synesthesia/github/synesthesia_zen/wxp/dgn/sw/limbus_bsp/\libchibios_v240_bsp.a(alt_lseek.o)
 .debug_aranges
                0x00000b38       0x20 G:/WorK/Synesthesia/github/synesthesia_zen/wxp/dgn/sw/limbus_bsp/\libchibios_v240_bsp.a(alt_malloc_lock.o)
 .debug_aranges
                0x00000b58       0x20 G:/WorK/Synesthesia/github/synesthesia_zen/wxp/dgn/sw/limbus_bsp/\libchibios_v240_bsp.a(alt_read.o)
 .debug_aranges
                0x00000b78       0x20 G:/WorK/Synesthesia/github/synesthesia_zen/wxp/dgn/sw/limbus_bsp/\libchibios_v240_bsp.a(alt_sbrk.o)
 .debug_aranges
                0x00000b98       0x20 G:/WorK/Synesthesia/github/synesthesia_zen/wxp/dgn/sw/limbus_bsp/\libchibios_v240_bsp.a(alt_write.o)

.debug_pubnames
                0x00000000     0x146a
 *(.debug_pubnames)
 .debug_pubnames
                0x00000000       0x3e obj/default/ledos/cortex/vcortex/vga/vga.o
 .debug_pubnames
                0x0000003e       0x74 obj/default/ledos/graphics/graphics.o
 .debug_pubnames
                0x000000b2       0x1b obj/default/main.o
 .debug_pubnames
                0x000000cd       0xdf G:/WorK/Synesthesia/github/synesthesia_zen/wxp/dgn/sw/limbus_bsp/\libchibios_v240_bsp.a(chthreads.o)
 .debug_pubnames
                0x000001ac       0x59 G:/WorK/Synesthesia/github/synesthesia_zen/wxp/dgn/sw/limbus_bsp/\libchibios_v240_bsp.a(chvt.o)
 .debug_pubnames
                0x00000205       0x1f G:/WorK/Synesthesia/github/synesthesia_zen/wxp/dgn/sw/limbus_bsp/\libchibios_v240_bsp.a(alt_load.o)
 .debug_pubnames
                0x00000224       0x46 G:/WorK/Synesthesia/github/synesthesia_zen/wxp/dgn/sw/limbus_bsp/\libchibios_v240_bsp.a(alt_main.o)
 .debug_pubnames
                0x0000026a       0x21 G:/WorK/Synesthesia/github/synesthesia_zen/wxp/dgn/sw/limbus_bsp/\libchibios_v240_bsp.a(alt_printf.o)
 .debug_pubnames
                0x0000028b       0x22 G:/WorK/Synesthesia/github/synesthesia_zen/wxp/dgn/sw/limbus_bsp/\libchibios_v240_bsp.a(alt_putchar.o)
 .debug_pubnames
                0x000002ad       0x21 G:/WorK/Synesthesia/github/synesthesia_zen/wxp/dgn/sw/limbus_bsp/\libchibios_v240_bsp.a(alt_putstr.o)
 .debug_pubnames
                0x000002ce       0x34 G:/WorK/Synesthesia/github/synesthesia_zen/wxp/dgn/sw/limbus_bsp/\libchibios_v240_bsp.a(alt_sys_init.o)
 .debug_pubnames
                0x00000302       0xa5 G:/WorK/Synesthesia/github/synesthesia_zen/wxp/dgn/sw/limbus_bsp/\libchibios_v240_bsp.a(altera_avalon_jtag_uart_fd.o)
 .debug_pubnames
                0x000003a7       0x55 G:/WorK/Synesthesia/github/synesthesia_zen/wxp/dgn/sw/limbus_bsp/\libchibios_v240_bsp.a(altera_avalon_jtag_uart_init.o)
 .debug_pubnames
                0x000003fc       0x34 G:/WorK/Synesthesia/github/synesthesia_zen/wxp/dgn/sw/limbus_bsp/\libchibios_v240_bsp.a(altera_avalon_jtag_uart_ioctl.o)
 .debug_pubnames
                0x00000430       0x33 G:/WorK/Synesthesia/github/synesthesia_zen/wxp/dgn/sw/limbus_bsp/\libchibios_v240_bsp.a(altera_avalon_jtag_uart_read.o)
 .debug_pubnames
                0x00000463       0x34 G:/WorK/Synesthesia/github/synesthesia_zen/wxp/dgn/sw/limbus_bsp/\libchibios_v240_bsp.a(altera_avalon_jtag_uart_write.o)
 .debug_pubnames
                0x00000497       0x2f G:/WorK/Synesthesia/github/synesthesia_zen/wxp/dgn/sw/limbus_bsp/\libchibios_v240_bsp.a(altera_avalon_timer_sc.o)
 .debug_pubnames
                0x000004c6       0x71 G:/WorK/Synesthesia/github/synesthesia_zen/wxp/dgn/sw/limbus_bsp/\libchibios_v240_bsp.a(altera_avalon_uart_fd.o)
 .debug_pubnames
                0x00000537       0x4b G:/WorK/Synesthesia/github/synesthesia_zen/wxp/dgn/sw/limbus_bsp/\libchibios_v240_bsp.a(altera_avalon_uart_init.o)
 .debug_pubnames
                0x00000582       0x2e G:/WorK/Synesthesia/github/synesthesia_zen/wxp/dgn/sw/limbus_bsp/\libchibios_v240_bsp.a(altera_avalon_uart_read.o)
 .debug_pubnames
                0x000005b0       0x2f G:/WorK/Synesthesia/github/synesthesia_zen/wxp/dgn/sw/limbus_bsp/\libchibios_v240_bsp.a(altera_avalon_uart_write.o)
 .debug_pubnames
                0x000005df       0x69 G:/WorK/Synesthesia/github/synesthesia_zen/wxp/dgn/sw/limbus_bsp/\libchibios_v240_bsp.a(chdynamic.o)
 .debug_pubnames
                0x00000648       0x60 G:/WorK/Synesthesia/github/synesthesia_zen/wxp/dgn/sw/limbus_bsp/\libchibios_v240_bsp.a(chheap.o)
 .debug_pubnames
                0x000006a8       0x53 G:/WorK/Synesthesia/github/synesthesia_zen/wxp/dgn/sw/limbus_bsp/\libchibios_v240_bsp.a(chmemcore.o)
 .debug_pubnames
                0x000006fb       0x61 G:/WorK/Synesthesia/github/synesthesia_zen/wxp/dgn/sw/limbus_bsp/\libchibios_v240_bsp.a(chmempools.o)
 .debug_pubnames
                0x0000075c       0x94 G:/WorK/Synesthesia/github/synesthesia_zen/wxp/dgn/sw/limbus_bsp/\libchibios_v240_bsp.a(chmtx.o)
 .debug_pubnames
                0x000007f0       0xc5 G:/WorK/Synesthesia/github/synesthesia_zen/wxp/dgn/sw/limbus_bsp/\libchibios_v240_bsp.a(chschd.o)
 .debug_pubnames
                0x000008b5       0x5c G:/WorK/Synesthesia/github/synesthesia_zen/wxp/dgn/sw/limbus_bsp/\libchibios_v240_bsp.a(chsys.o)
 .debug_pubnames
                0x00000911       0x26 G:/WorK/Synesthesia/github/synesthesia_zen/wxp/dgn/sw/limbus_bsp/\libchibios_v240_bsp.a(alt_alarm_start.o)
 .debug_pubnames
                0x00000937       0x1c G:/WorK/Synesthesia/github/synesthesia_zen/wxp/dgn/sw/limbus_bsp/\libchibios_v240_bsp.a(alt_close.o)
 .debug_pubnames
                0x00000953       0x2b G:/WorK/Synesthesia/github/synesthesia_zen/wxp/dgn/sw/limbus_bsp/\libchibios_v240_bsp.a(alt_dcache_flush_all.o)
 .debug_pubnames
                0x0000097e       0x63 G:/WorK/Synesthesia/github/synesthesia_zen/wxp/dgn/sw/limbus_bsp/\libchibios_v240_bsp.a(alt_dev.o)
 .debug_pubnames
                0x000009e1       0x2b G:/WorK/Synesthesia/github/synesthesia_zen/wxp/dgn/sw/limbus_bsp/\libchibios_v240_bsp.a(alt_dev_llist_insert.o)
 .debug_pubnames
                0x00000a0c       0x20 G:/WorK/Synesthesia/github/synesthesia_zen/wxp/dgn/sw/limbus_bsp/\libchibios_v240_bsp.a(alt_do_ctors.o)
 .debug_pubnames
                0x00000a2c       0x20 G:/WorK/Synesthesia/github/synesthesia_zen/wxp/dgn/sw/limbus_bsp/\libchibios_v240_bsp.a(alt_do_dtors.o)
 .debug_pubnames
                0x00000a4c       0x20 G:/WorK/Synesthesia/github/synesthesia_zen/wxp/dgn/sw/limbus_bsp/\libchibios_v240_bsp.a(alt_errno.o)
 .debug_pubnames
                0x00000a6c       0x2b G:/WorK/Synesthesia/github/synesthesia_zen/wxp/dgn/sw/limbus_bsp/\libchibios_v240_bsp.a(alt_icache_flush_all.o)
 .debug_pubnames
                0x00000a97       0x6e G:/WorK/Synesthesia/github/synesthesia_zen/wxp/dgn/sw/limbus_bsp/\libchibios_v240_bsp.a(alt_iic.o)
 .debug_pubnames
                0x00000b05       0x2b G:/WorK/Synesthesia/github/synesthesia_zen/wxp/dgn/sw/limbus_bsp/\libchibios_v240_bsp.a(alt_iic_isr_register.o)
 .debug_pubnames
                0x00000b30       0x26 G:/WorK/Synesthesia/github/synesthesia_zen/wxp/dgn/sw/limbus_bsp/\libchibios_v240_bsp.a(alt_io_redirect.o)
 .debug_pubnames
                0x00000b56       0x32 G:/WorK/Synesthesia/github/synesthesia_zen/wxp/dgn/sw/limbus_bsp/\libchibios_v240_bsp.a(alt_irq_handler.o)
 .debug_pubnames
                0x00000b88       0x3b G:/WorK/Synesthesia/github/synesthesia_zen/wxp/dgn/sw/limbus_bsp/\libchibios_v240_bsp.a(alt_irq_vars.o)
 .debug_pubnames
                0x00000bc3       0x1b G:/WorK/Synesthesia/github/synesthesia_zen/wxp/dgn/sw/limbus_bsp/\libchibios_v240_bsp.a(alt_open.o)
 .debug_pubnames
                0x00000bde       0x25 G:/WorK/Synesthesia/github/synesthesia_zen/wxp/dgn/sw/limbus_bsp/\libchibios_v240_bsp.a(alt_release_fd.o)
 .debug_pubnames
                0x00000c03       0x68 G:/WorK/Synesthesia/github/synesthesia_zen/wxp/dgn/sw/limbus_bsp/\libchibios_v240_bsp.a(alt_tick.o)
 .debug_pubnames
                0x00000c6b       0x31 G:/WorK/Synesthesia/github/synesthesia_zen/wxp/dgn/sw/limbus_bsp/\libchibios_v240_bsp.a(altera_nios2_qsys_irq.o)
 .debug_pubnames
                0x00000c9c       0x33 G:/WorK/Synesthesia/github/synesthesia_zen/wxp/dgn/sw/limbus_bsp/\libchibios_v240_bsp.a(chcore.o)
 .debug_pubnames
                0x00000ccf       0x23 G:/WorK/Synesthesia/github/synesthesia_zen/wxp/dgn/sw/limbus_bsp/\libchibios_v240_bsp.a(alt_find_dev.o)
 .debug_pubnames
                0x00000cf2       0x24 G:/WorK/Synesthesia/github/synesthesia_zen/wxp/dgn/sw/limbus_bsp/\libchibios_v240_bsp.a(alt_find_file.o)
 .debug_pubnames
                0x00000d16       0x21 G:/WorK/Synesthesia/github/synesthesia_zen/wxp/dgn/sw/limbus_bsp/\libchibios_v240_bsp.a(alt_get_fd.o)
 .debug_pubnames
                0x00000d37       0x2a c:/altera/11.1sp2/nios2eds/bin/gnu/h-i686-mingw32/bin/../lib/gcc/nios2-elf/4.1.2/../../../../nios2-elf/lib/mno-hw-mul\libc.a(lib_a-atexit.o)
 .debug_pubnames
                0x00000d61       0x1b c:/altera/11.1sp2/nios2eds/bin/gnu/h-i686-mingw32/bin/../lib/gcc/nios2-elf/4.1.2/../../../../nios2-elf/lib/mno-hw-mul\libc.a(lib_a-exit.o)
 .debug_pubnames
                0x00000d7c       0x29 c:/altera/11.1sp2/nios2eds/bin/gnu/h-i686-mingw32/bin/../lib/gcc/nios2-elf/4.1.2/../../../../nios2-elf/lib/mno-hw-mul\libc.a(lib_a-fputs.o)
 .debug_pubnames
                0x00000da5       0x23 c:/altera/11.1sp2/nios2eds/bin/gnu/h-i686-mingw32/bin/../lib/gcc/nios2-elf/4.1.2/../../../../nios2-elf/lib/mno-hw-mul\libc.a(lib_a-fvwrite.o)
 .debug_pubnames
                0x00000dc8       0x39 c:/altera/11.1sp2/nios2eds/bin/gnu/h-i686-mingw32/bin/../lib/gcc/nios2-elf/4.1.2/../../../../nios2-elf/lib/mno-hw-mul\libc.a(lib_a-impure.o)
 .debug_pubnames
                0x00000e01       0x1c c:/altera/11.1sp2/nios2eds/bin/gnu/h-i686-mingw32/bin/../lib/gcc/nios2-elf/4.1.2/../../../../nios2-elf/lib/mno-hw-mul\libc.a(lib_a-int_errno.o)
 .debug_pubnames
                0x00000e1d       0xce c:/altera/11.1sp2/nios2eds/bin/gnu/h-i686-mingw32/bin/../lib/gcc/nios2-elf/4.1.2/../../../../nios2-elf/lib/mno-hw-mul\libc.a(lib_a-mallocr.o)
 .debug_pubnames
                0x00000eeb       0x1d c:/altera/11.1sp2/nios2eds/bin/gnu/h-i686-mingw32/bin/../lib/gcc/nios2-elf/4.1.2/../../../../nios2-elf/lib/mno-hw-mul\libc.a(lib_a-memchr.o)
 .debug_pubnames
                0x00000f08       0x1d c:/altera/11.1sp2/nios2eds/bin/gnu/h-i686-mingw32/bin/../lib/gcc/nios2-elf/4.1.2/../../../../nios2-elf/lib/mno-hw-mul\libc.a(lib_a-memcmp.o)
 .debug_pubnames
                0x00000f25       0x1d c:/altera/11.1sp2/nios2eds/bin/gnu/h-i686-mingw32/bin/../lib/gcc/nios2-elf/4.1.2/../../../../nios2-elf/lib/mno-hw-mul\libc.a(lib_a-memcpy.o)
 .debug_pubnames
                0x00000f42       0x1e c:/altera/11.1sp2/nios2eds/bin/gnu/h-i686-mingw32/bin/../lib/gcc/nios2-elf/4.1.2/../../../../nios2-elf/lib/mno-hw-mul\libc.a(lib_a-memmove.o)
 .debug_pubnames
                0x00000f60       0x27 c:/altera/11.1sp2/nios2eds/bin/gnu/h-i686-mingw32/bin/../lib/gcc/nios2-elf/4.1.2/../../../../nios2-elf/lib/mno-hw-mul\libc.a(lib_a-putc.o)
 .debug_pubnames
                0x00000f87       0x21 c:/altera/11.1sp2/nios2eds/bin/gnu/h-i686-mingw32/bin/../lib/gcc/nios2-elf/4.1.2/../../../../nios2-elf/lib/mno-hw-mul\libc.a(lib_a-reallocr.o)
 .debug_pubnames
                0x00000fa8       0x1e c:/altera/11.1sp2/nios2eds/bin/gnu/h-i686-mingw32/bin/../lib/gcc/nios2-elf/4.1.2/../../../../nios2-elf/lib/mno-hw-mul\libc.a(lib_a-sbrkr.o)
 .debug_pubnames
                0x00000fc6       0x1d c:/altera/11.1sp2/nios2eds/bin/gnu/h-i686-mingw32/bin/../lib/gcc/nios2-elf/4.1.2/../../../../nios2-elf/lib/mno-hw-mul\libc.a(lib_a-strlen.o)
 .debug_pubnames
                0x00000fe3       0x2c c:/altera/11.1sp2/nios2eds/bin/gnu/h-i686-mingw32/bin/../lib/gcc/nios2-elf/4.1.2/../../../../nios2-elf/lib/mno-hw-mul\libc.a(lib_a-wbuf.o)
 .debug_pubnames
                0x0000100f       0x22 c:/altera/11.1sp2/nios2eds/bin/gnu/h-i686-mingw32/bin/../lib/gcc/nios2-elf/4.1.2/../../../../nios2-elf/lib/mno-hw-mul\libc.a(lib_a-wsetup.o)
 .debug_pubnames
                0x00001031       0x2a c:/altera/11.1sp2/nios2eds/bin/gnu/h-i686-mingw32/bin/../lib/gcc/nios2-elf/4.1.2/../../../../nios2-elf/lib/mno-hw-mul\libc.a(lib_a-__atexit.o)
 .debug_pubnames
                0x0000105b       0x27 c:/altera/11.1sp2/nios2eds/bin/gnu/h-i686-mingw32/bin/../lib/gcc/nios2-elf/4.1.2/../../../../nios2-elf/lib/mno-hw-mul\libc.a(lib_a-__call_atexit.o)
 .debug_pubnames
                0x00001082       0x2b c:/altera/11.1sp2/nios2eds/bin/gnu/h-i686-mingw32/bin/../lib/gcc/nios2-elf/4.1.2/../../../../nios2-elf/lib/mno-hw-mul\libc.a(lib_a-fflush.o)
 .debug_pubnames
                0x000010ad       0xdb c:/altera/11.1sp2/nios2eds/bin/gnu/h-i686-mingw32/bin/../lib/gcc/nios2-elf/4.1.2/../../../../nios2-elf/lib/mno-hw-mul\libc.a(lib_a-findfp.o)
 .debug_pubnames
                0x00001188       0x31 c:/altera/11.1sp2/nios2eds/bin/gnu/h-i686-mingw32/bin/../lib/gcc/nios2-elf/4.1.2/../../../../nios2-elf/lib/mno-hw-mul\libc.a(lib_a-freer.o)
 .debug_pubnames
                0x000011b9       0x2e c:/altera/11.1sp2/nios2eds/bin/gnu/h-i686-mingw32/bin/../lib/gcc/nios2-elf/4.1.2/../../../../nios2-elf/lib/mno-hw-mul\libc.a(lib_a-fwalk.o)
 .debug_pubnames
                0x000011e7       0x23 c:/altera/11.1sp2/nios2eds/bin/gnu/h-i686-mingw32/bin/../lib/gcc/nios2-elf/4.1.2/../../../../nios2-elf/lib/mno-hw-mul\libc.a(lib_a-makebuf.o)
 .debug_pubnames
                0x0000120a       0x1d c:/altera/11.1sp2/nios2eds/bin/gnu/h-i686-mingw32/bin/../lib/gcc/nios2-elf/4.1.2/../../../../nios2-elf/lib/mno-hw-mul\libc.a(lib_a-memset.o)
 .debug_pubnames
                0x00001227       0x44 c:/altera/11.1sp2/nios2eds/bin/gnu/h-i686-mingw32/bin/../lib/gcc/nios2-elf/4.1.2/../../../../nios2-elf/lib/mno-hw-mul\libc.a(lib_a-stdio.o)
 .debug_pubnames
                0x0000126b       0x1f c:/altera/11.1sp2/nios2eds/bin/gnu/h-i686-mingw32/bin/../lib/gcc/nios2-elf/4.1.2/../../../../nios2-elf/lib/mno-hw-mul\libc.a(lib_a-writer.o)
 .debug_pubnames
                0x0000128a       0x1f c:/altera/11.1sp2/nios2eds/bin/gnu/h-i686-mingw32/bin/../lib/gcc/nios2-elf/4.1.2/../../../../nios2-elf/lib/mno-hw-mul\libc.a(lib_a-closer.o)
 .debug_pubnames
                0x000012a9       0x2b c:/altera/11.1sp2/nios2eds/bin/gnu/h-i686-mingw32/bin/../lib/gcc/nios2-elf/4.1.2/../../../../nios2-elf/lib/mno-hw-mul\libc.a(lib_a-fclose.o)
 .debug_pubnames
                0x000012d4       0x1f c:/altera/11.1sp2/nios2eds/bin/gnu/h-i686-mingw32/bin/../lib/gcc/nios2-elf/4.1.2/../../../../nios2-elf/lib/mno-hw-mul\libc.a(lib_a-fstatr.o)
 .debug_pubnames
                0x000012f3       0x20 c:/altera/11.1sp2/nios2eds/bin/gnu/h-i686-mingw32/bin/../lib/gcc/nios2-elf/4.1.2/../../../../nios2-elf/lib/mno-hw-mul\libc.a(lib_a-isattyr.o)
 .debug_pubnames
                0x00001313       0x1f c:/altera/11.1sp2/nios2eds/bin/gnu/h-i686-mingw32/bin/../lib/gcc/nios2-elf/4.1.2/../../../../nios2-elf/lib/mno-hw-mul\libc.a(lib_a-lseekr.o)
 .debug_pubnames
                0x00001332       0x1e c:/altera/11.1sp2/nios2eds/bin/gnu/h-i686-mingw32/bin/../lib/gcc/nios2-elf/4.1.2/../../../../nios2-elf/lib/mno-hw-mul\libc.a(lib_a-readr.o)
 .debug_pubnames
                0x00001350       0x1f c:/altera/11.1sp2/nios2eds/bin/gnu/h-i686-mingw32/bin/../lib/gcc/nios2-elf/4.1.2/mno-hw-mul\libgcc.a(lib2-mul.o)
 .debug_pubnames
                0x0000136f       0x1c G:/WorK/Synesthesia/github/synesthesia_zen/wxp/dgn/sw/limbus_bsp/\libchibios_v240_bsp.a(alt_exit.o)
 .debug_pubnames
                0x0000138b       0x1c G:/WorK/Synesthesia/github/synesthesia_zen/wxp/dgn/sw/limbus_bsp/\libchibios_v240_bsp.a(alt_fstat.o)
 .debug_pubnames
                0x000013a7       0x1d G:/WorK/Synesthesia/github/synesthesia_zen/wxp/dgn/sw/limbus_bsp/\libchibios_v240_bsp.a(alt_isatty.o)
 .debug_pubnames
                0x000013c4       0x1c G:/WorK/Synesthesia/github/synesthesia_zen/wxp/dgn/sw/limbus_bsp/\libchibios_v240_bsp.a(alt_lseek.o)
 .debug_pubnames
                0x000013e0       0x38 G:/WorK/Synesthesia/github/synesthesia_zen/wxp/dgn/sw/limbus_bsp/\libchibios_v240_bsp.a(alt_malloc_lock.o)
 .debug_pubnames
                0x00001418       0x1b G:/WorK/Synesthesia/github/synesthesia_zen/wxp/dgn/sw/limbus_bsp/\libchibios_v240_bsp.a(alt_read.o)
 .debug_pubnames
                0x00001433       0x1b G:/WorK/Synesthesia/github/synesthesia_zen/wxp/dgn/sw/limbus_bsp/\libchibios_v240_bsp.a(alt_sbrk.o)
 .debug_pubnames
                0x0000144e       0x1c G:/WorK/Synesthesia/github/synesthesia_zen/wxp/dgn/sw/limbus_bsp/\libchibios_v240_bsp.a(alt_write.o)

.debug_info     0x00000000    0x2280d
 *(.debug_info .gnu.linkonce.wi.*)
 .debug_info    0x00000000       0x72 G:/WorK/Synesthesia/github/synesthesia_zen/wxp/dgn/sw/limbus_bsp//obj/HAL/src/crt0.o
 .debug_info    0x00000072        0x0 obj/default/ledos/cortex/vcortex/gpu/gpu.o
 .debug_info    0x00000072       0xc9 obj/default/ledos/cortex/vcortex/vga/vga.o
 .debug_info    0x0000013b      0x398 obj/default/ledos/graphics/graphics.o
 .debug_info    0x000004d3      0x22d obj/default/main.o
 .debug_info    0x00000700      0xd20 G:/WorK/Synesthesia/github/synesthesia_zen/wxp/dgn/sw/limbus_bsp/\libchibios_v240_bsp.a(chthreads.o)
 .debug_info    0x00001420      0x388 G:/WorK/Synesthesia/github/synesthesia_zen/wxp/dgn/sw/limbus_bsp/\libchibios_v240_bsp.a(chvt.o)
 .debug_info    0x000017a8       0x91 G:/WorK/Synesthesia/github/synesthesia_zen/wxp/dgn/sw/limbus_bsp/\libchibios_v240_bsp.a(chcoreasm.o)
 .debug_info    0x00001839      0x284 G:/WorK/Synesthesia/github/synesthesia_zen/wxp/dgn/sw/limbus_bsp/\libchibios_v240_bsp.a(alt_load.o)
 .debug_info    0x00001abd      0x286 G:/WorK/Synesthesia/github/synesthesia_zen/wxp/dgn/sw/limbus_bsp/\libchibios_v240_bsp.a(alt_main.o)
 .debug_info    0x00001d43      0x19f G:/WorK/Synesthesia/github/synesthesia_zen/wxp/dgn/sw/limbus_bsp/\libchibios_v240_bsp.a(alt_printf.o)
 .debug_info    0x00001ee2      0xbf3 G:/WorK/Synesthesia/github/synesthesia_zen/wxp/dgn/sw/limbus_bsp/\libchibios_v240_bsp.a(alt_putchar.o)
 .debug_info    0x00002ad5      0xbf3 G:/WorK/Synesthesia/github/synesthesia_zen/wxp/dgn/sw/limbus_bsp/\libchibios_v240_bsp.a(alt_putstr.o)
 .debug_info    0x000036c8      0x875 G:/WorK/Synesthesia/github/synesthesia_zen/wxp/dgn/sw/limbus_bsp/\libchibios_v240_bsp.a(alt_sys_init.o)
 .debug_info    0x00003f3d      0x7d0 G:/WorK/Synesthesia/github/synesthesia_zen/wxp/dgn/sw/limbus_bsp/\libchibios_v240_bsp.a(altera_avalon_jtag_uart_fd.o)
 .debug_info    0x0000470d      0x5f8 G:/WorK/Synesthesia/github/synesthesia_zen/wxp/dgn/sw/limbus_bsp/\libchibios_v240_bsp.a(altera_avalon_jtag_uart_init.o)
 .debug_info    0x00004d05      0x43a G:/WorK/Synesthesia/github/synesthesia_zen/wxp/dgn/sw/limbus_bsp/\libchibios_v240_bsp.a(altera_avalon_jtag_uart_ioctl.o)
 .debug_info    0x0000513f      0x53d G:/WorK/Synesthesia/github/synesthesia_zen/wxp/dgn/sw/limbus_bsp/\libchibios_v240_bsp.a(altera_avalon_jtag_uart_read.o)
 .debug_info    0x0000567c      0x535 G:/WorK/Synesthesia/github/synesthesia_zen/wxp/dgn/sw/limbus_bsp/\libchibios_v240_bsp.a(altera_avalon_jtag_uart_write.o)
 .debug_info    0x00005bb1      0x382 G:/WorK/Synesthesia/github/synesthesia_zen/wxp/dgn/sw/limbus_bsp/\libchibios_v240_bsp.a(altera_avalon_timer_sc.o)
 .debug_info    0x00005f33      0x633 G:/WorK/Synesthesia/github/synesthesia_zen/wxp/dgn/sw/limbus_bsp/\libchibios_v240_bsp.a(altera_avalon_uart_fd.o)
 .debug_info    0x00006566      0x505 G:/WorK/Synesthesia/github/synesthesia_zen/wxp/dgn/sw/limbus_bsp/\libchibios_v240_bsp.a(altera_avalon_uart_init.o)
 .debug_info    0x00006a6b      0x4b9 G:/WorK/Synesthesia/github/synesthesia_zen/wxp/dgn/sw/limbus_bsp/\libchibios_v240_bsp.a(altera_avalon_uart_read.o)
 .debug_info    0x00006f24      0x4b7 G:/WorK/Synesthesia/github/synesthesia_zen/wxp/dgn/sw/limbus_bsp/\libchibios_v240_bsp.a(altera_avalon_uart_write.o)
 .debug_info    0x000073db      0x9db G:/WorK/Synesthesia/github/synesthesia_zen/wxp/dgn/sw/limbus_bsp/\libchibios_v240_bsp.a(chdynamic.o)
 .debug_info    0x00007db6      0x81d G:/WorK/Synesthesia/github/synesthesia_zen/wxp/dgn/sw/limbus_bsp/\libchibios_v240_bsp.a(chheap.o)
 .debug_info    0x000085d3      0x321 G:/WorK/Synesthesia/github/synesthesia_zen/wxp/dgn/sw/limbus_bsp/\libchibios_v240_bsp.a(chmemcore.o)
 .debug_info    0x000088f4      0x42c G:/WorK/Synesthesia/github/synesthesia_zen/wxp/dgn/sw/limbus_bsp/\libchibios_v240_bsp.a(chmempools.o)
 .debug_info    0x00008d20      0xa87 G:/WorK/Synesthesia/github/synesthesia_zen/wxp/dgn/sw/limbus_bsp/\libchibios_v240_bsp.a(chmtx.o)
 .debug_info    0x000097a7      0x94b G:/WorK/Synesthesia/github/synesthesia_zen/wxp/dgn/sw/limbus_bsp/\libchibios_v240_bsp.a(chschd.o)
 .debug_info    0x0000a0f2      0x84b G:/WorK/Synesthesia/github/synesthesia_zen/wxp/dgn/sw/limbus_bsp/\libchibios_v240_bsp.a(chsys.o)
 .debug_info    0x0000a93d      0x439 G:/WorK/Synesthesia/github/synesthesia_zen/wxp/dgn/sw/limbus_bsp/\libchibios_v240_bsp.a(alt_alarm_start.o)
 .debug_info    0x0000ad76      0x45e G:/WorK/Synesthesia/github/synesthesia_zen/wxp/dgn/sw/limbus_bsp/\libchibios_v240_bsp.a(alt_close.o)
 .debug_info    0x0000b1d4      0x153 G:/WorK/Synesthesia/github/synesthesia_zen/wxp/dgn/sw/limbus_bsp/\libchibios_v240_bsp.a(alt_dcache_flush_all.o)
 .debug_info    0x0000b327      0x676 G:/WorK/Synesthesia/github/synesthesia_zen/wxp/dgn/sw/limbus_bsp/\libchibios_v240_bsp.a(alt_dev.o)
 .debug_info    0x0000b99d      0x2ae G:/WorK/Synesthesia/github/synesthesia_zen/wxp/dgn/sw/limbus_bsp/\libchibios_v240_bsp.a(alt_dev_llist_insert.o)
 .debug_info    0x0000bc4b      0x106 G:/WorK/Synesthesia/github/synesthesia_zen/wxp/dgn/sw/limbus_bsp/\libchibios_v240_bsp.a(alt_do_ctors.o)
 .debug_info    0x0000bd51      0x105 G:/WorK/Synesthesia/github/synesthesia_zen/wxp/dgn/sw/limbus_bsp/\libchibios_v240_bsp.a(alt_do_dtors.o)
 .debug_info    0x0000be56      0x15b G:/WorK/Synesthesia/github/synesthesia_zen/wxp/dgn/sw/limbus_bsp/\libchibios_v240_bsp.a(alt_errno.o)
 .debug_info    0x0000bfb1      0x153 G:/WorK/Synesthesia/github/synesthesia_zen/wxp/dgn/sw/limbus_bsp/\libchibios_v240_bsp.a(alt_icache_flush_all.o)
 .debug_info    0x0000c104      0x48a G:/WorK/Synesthesia/github/synesthesia_zen/wxp/dgn/sw/limbus_bsp/\libchibios_v240_bsp.a(alt_iic.o)
 .debug_info    0x0000c58e      0x30b G:/WorK/Synesthesia/github/synesthesia_zen/wxp/dgn/sw/limbus_bsp/\libchibios_v240_bsp.a(alt_iic_isr_register.o)
 .debug_info    0x0000c899      0x68c G:/WorK/Synesthesia/github/synesthesia_zen/wxp/dgn/sw/limbus_bsp/\libchibios_v240_bsp.a(alt_io_redirect.o)
 .debug_info    0x0000cf25       0x7b G:/WorK/Synesthesia/github/synesthesia_zen/wxp/dgn/sw/limbus_bsp/\libchibios_v240_bsp.a(alt_irq_entry.o)
 .debug_info    0x0000cfa0      0x26c G:/WorK/Synesthesia/github/synesthesia_zen/wxp/dgn/sw/limbus_bsp/\libchibios_v240_bsp.a(alt_irq_handler.o)
 .debug_info    0x0000d20c      0x15e G:/WorK/Synesthesia/github/synesthesia_zen/wxp/dgn/sw/limbus_bsp/\libchibios_v240_bsp.a(alt_irq_vars.o)
 .debug_info    0x0000d36a      0x51c G:/WorK/Synesthesia/github/synesthesia_zen/wxp/dgn/sw/limbus_bsp/\libchibios_v240_bsp.a(alt_open.o)
 .debug_info    0x0000d886      0x3e9 G:/WorK/Synesthesia/github/synesthesia_zen/wxp/dgn/sw/limbus_bsp/\libchibios_v240_bsp.a(alt_release_fd.o)
 .debug_info    0x0000dc6f      0x3f5 G:/WorK/Synesthesia/github/synesthesia_zen/wxp/dgn/sw/limbus_bsp/\libchibios_v240_bsp.a(alt_tick.o)
 .debug_info    0x0000e064      0x15a G:/WorK/Synesthesia/github/synesthesia_zen/wxp/dgn/sw/limbus_bsp/\libchibios_v240_bsp.a(altera_nios2_qsys_irq.o)
 .debug_info    0x0000e1be      0x1df G:/WorK/Synesthesia/github/synesthesia_zen/wxp/dgn/sw/limbus_bsp/\libchibios_v240_bsp.a(chcore.o)
 .debug_info    0x0000e39d       0x81 G:/WorK/Synesthesia/github/synesthesia_zen/wxp/dgn/sw/limbus_bsp/\libchibios_v240_bsp.a(alt_exception_entry.o)
 .debug_info    0x0000e41e      0x40f G:/WorK/Synesthesia/github/synesthesia_zen/wxp/dgn/sw/limbus_bsp/\libchibios_v240_bsp.a(alt_find_dev.o)
 .debug_info    0x0000e82d      0x416 G:/WorK/Synesthesia/github/synesthesia_zen/wxp/dgn/sw/limbus_bsp/\libchibios_v240_bsp.a(alt_find_file.o)
 .debug_info    0x0000ec43      0x457 G:/WorK/Synesthesia/github/synesthesia_zen/wxp/dgn/sw/limbus_bsp/\libchibios_v240_bsp.a(alt_get_fd.o)
 .debug_info    0x0000f09a      0x181 c:/altera/11.1sp2/nios2eds/bin/gnu/h-i686-mingw32/bin/../lib/gcc/nios2-elf/4.1.2/../../../../nios2-elf/lib/mno-hw-mul\libc.a(lib_a-atexit.o)
 .debug_info    0x0000f21b      0x93f c:/altera/11.1sp2/nios2eds/bin/gnu/h-i686-mingw32/bin/../lib/gcc/nios2-elf/4.1.2/../../../../nios2-elf/lib/mno-hw-mul\libc.a(lib_a-exit.o)
 .debug_info    0x0000fb5a      0xa40 c:/altera/11.1sp2/nios2eds/bin/gnu/h-i686-mingw32/bin/../lib/gcc/nios2-elf/4.1.2/../../../../nios2-elf/lib/mno-hw-mul\libc.a(lib_a-fputs.o)
 .debug_info    0x0001059a      0xa88 c:/altera/11.1sp2/nios2eds/bin/gnu/h-i686-mingw32/bin/../lib/gcc/nios2-elf/4.1.2/../../../../nios2-elf/lib/mno-hw-mul\libc.a(lib_a-fvwrite.o)
 .debug_info    0x00011022      0x93d c:/altera/11.1sp2/nios2eds/bin/gnu/h-i686-mingw32/bin/../lib/gcc/nios2-elf/4.1.2/../../../../nios2-elf/lib/mno-hw-mul\libc.a(lib_a-impure.o)
 .debug_info    0x0001195f       0x8c c:/altera/11.1sp2/nios2eds/bin/gnu/h-i686-mingw32/bin/../lib/gcc/nios2-elf/4.1.2/../../../../nios2-elf/lib/mno-hw-mul\libc.a(lib_a-int_errno.o)
 .debug_info    0x000119eb      0xcd0 c:/altera/11.1sp2/nios2eds/bin/gnu/h-i686-mingw32/bin/../lib/gcc/nios2-elf/4.1.2/../../../../nios2-elf/lib/mno-hw-mul\libc.a(lib_a-mallocr.o)
 .debug_info    0x000126bb      0x138 c:/altera/11.1sp2/nios2eds/bin/gnu/h-i686-mingw32/bin/../lib/gcc/nios2-elf/4.1.2/../../../../nios2-elf/lib/mno-hw-mul\libc.a(lib_a-memchr.o)
 .debug_info    0x000127f3      0x115 c:/altera/11.1sp2/nios2eds/bin/gnu/h-i686-mingw32/bin/../lib/gcc/nios2-elf/4.1.2/../../../../nios2-elf/lib/mno-hw-mul\libc.a(lib_a-memcmp.o)
 .debug_info    0x00012908      0x106 c:/altera/11.1sp2/nios2eds/bin/gnu/h-i686-mingw32/bin/../lib/gcc/nios2-elf/4.1.2/../../../../nios2-elf/lib/mno-hw-mul\libc.a(lib_a-memcpy.o)
 .debug_info    0x00012a0e      0x13e c:/altera/11.1sp2/nios2eds/bin/gnu/h-i686-mingw32/bin/../lib/gcc/nios2-elf/4.1.2/../../../../nios2-elf/lib/mno-hw-mul\libc.a(lib_a-memmove.o)
 .debug_info    0x00012b4c      0x9c1 c:/altera/11.1sp2/nios2eds/bin/gnu/h-i686-mingw32/bin/../lib/gcc/nios2-elf/4.1.2/../../../../nios2-elf/lib/mno-hw-mul\libc.a(lib_a-putc.o)
 .debug_info    0x0001350d      0xbd7 c:/altera/11.1sp2/nios2eds/bin/gnu/h-i686-mingw32/bin/../lib/gcc/nios2-elf/4.1.2/../../../../nios2-elf/lib/mno-hw-mul\libc.a(lib_a-reallocr.o)
 .debug_info    0x000140e4      0x962 c:/altera/11.1sp2/nios2eds/bin/gnu/h-i686-mingw32/bin/../lib/gcc/nios2-elf/4.1.2/../../../../nios2-elf/lib/mno-hw-mul\libc.a(lib_a-sbrkr.o)
 .debug_info    0x00014a46       0xdb c:/altera/11.1sp2/nios2eds/bin/gnu/h-i686-mingw32/bin/../lib/gcc/nios2-elf/4.1.2/../../../../nios2-elf/lib/mno-hw-mul\libc.a(lib_a-strlen.o)
 .debug_info    0x00014b21      0x9ae c:/altera/11.1sp2/nios2eds/bin/gnu/h-i686-mingw32/bin/../lib/gcc/nios2-elf/4.1.2/../../../../nios2-elf/lib/mno-hw-mul\libc.a(lib_a-wbuf.o)
 .debug_info    0x000154cf      0x95d c:/altera/11.1sp2/nios2eds/bin/gnu/h-i686-mingw32/bin/../lib/gcc/nios2-elf/4.1.2/../../../../nios2-elf/lib/mno-hw-mul\libc.a(lib_a-wsetup.o)
 .debug_info    0x00015e2c      0x99c c:/altera/11.1sp2/nios2eds/bin/gnu/h-i686-mingw32/bin/../lib/gcc/nios2-elf/4.1.2/../../../../nios2-elf/lib/mno-hw-mul\libc.a(lib_a-__atexit.o)
 .debug_info    0x000167c8      0x9e2 c:/altera/11.1sp2/nios2eds/bin/gnu/h-i686-mingw32/bin/../lib/gcc/nios2-elf/4.1.2/../../../../nios2-elf/lib/mno-hw-mul\libc.a(lib_a-__call_atexit.o)
 .debug_info    0x000171aa      0x9fe c:/altera/11.1sp2/nios2eds/bin/gnu/h-i686-mingw32/bin/../lib/gcc/nios2-elf/4.1.2/../../../../nios2-elf/lib/mno-hw-mul\libc.a(lib_a-fflush.o)
 .debug_info    0x00017ba8      0xb72 c:/altera/11.1sp2/nios2eds/bin/gnu/h-i686-mingw32/bin/../lib/gcc/nios2-elf/4.1.2/../../../../nios2-elf/lib/mno-hw-mul\libc.a(lib_a-findfp.o)
 .debug_info    0x0001871a      0xbc9 c:/altera/11.1sp2/nios2eds/bin/gnu/h-i686-mingw32/bin/../lib/gcc/nios2-elf/4.1.2/../../../../nios2-elf/lib/mno-hw-mul\libc.a(lib_a-freer.o)
 .debug_info    0x000192e3      0xaed c:/altera/11.1sp2/nios2eds/bin/gnu/h-i686-mingw32/bin/../lib/gcc/nios2-elf/4.1.2/../../../../nios2-elf/lib/mno-hw-mul\libc.a(lib_a-fwalk.o)
 .debug_info    0x00019dd0      0xb1a c:/altera/11.1sp2/nios2eds/bin/gnu/h-i686-mingw32/bin/../lib/gcc/nios2-elf/4.1.2/../../../../nios2-elf/lib/mno-hw-mul\libc.a(lib_a-makebuf.o)
 .debug_info    0x0001a8ea      0x113 c:/altera/11.1sp2/nios2eds/bin/gnu/h-i686-mingw32/bin/../lib/gcc/nios2-elf/4.1.2/../../../../nios2-elf/lib/mno-hw-mul\libc.a(lib_a-memset.o)
 .debug_info    0x0001a9fd      0xaac c:/altera/11.1sp2/nios2eds/bin/gnu/h-i686-mingw32/bin/../lib/gcc/nios2-elf/4.1.2/../../../../nios2-elf/lib/mno-hw-mul\libc.a(lib_a-stdio.o)
 .debug_info    0x0001b4a9      0x993 c:/altera/11.1sp2/nios2eds/bin/gnu/h-i686-mingw32/bin/../lib/gcc/nios2-elf/4.1.2/../../../../nios2-elf/lib/mno-hw-mul\libc.a(lib_a-writer.o)
 .debug_info    0x0001be3c      0x958 c:/altera/11.1sp2/nios2eds/bin/gnu/h-i686-mingw32/bin/../lib/gcc/nios2-elf/4.1.2/../../../../nios2-elf/lib/mno-hw-mul\libc.a(lib_a-closer.o)
 .debug_info    0x0001c794      0x994 c:/altera/11.1sp2/nios2eds/bin/gnu/h-i686-mingw32/bin/../lib/gcc/nios2-elf/4.1.2/../../../../nios2-elf/lib/mno-hw-mul\libc.a(lib_a-fclose.o)
 .debug_info    0x0001d128      0xafc c:/altera/11.1sp2/nios2eds/bin/gnu/h-i686-mingw32/bin/../lib/gcc/nios2-elf/4.1.2/../../../../nios2-elf/lib/mno-hw-mul\libc.a(lib_a-fstatr.o)
 .debug_info    0x0001dc24      0x958 c:/altera/11.1sp2/nios2eds/bin/gnu/h-i686-mingw32/bin/../lib/gcc/nios2-elf/4.1.2/../../../../nios2-elf/lib/mno-hw-mul\libc.a(lib_a-isattyr.o)
 .debug_info    0x0001e57c      0x981 c:/altera/11.1sp2/nios2eds/bin/gnu/h-i686-mingw32/bin/../lib/gcc/nios2-elf/4.1.2/../../../../nios2-elf/lib/mno-hw-mul\libc.a(lib_a-lseekr.o)
 .debug_info    0x0001eefd      0x98c c:/altera/11.1sp2/nios2eds/bin/gnu/h-i686-mingw32/bin/../lib/gcc/nios2-elf/4.1.2/../../../../nios2-elf/lib/mno-hw-mul\libc.a(lib_a-readr.o)
 .debug_info    0x0001f889       0xf3 c:/altera/11.1sp2/nios2eds/bin/gnu/h-i686-mingw32/bin/../lib/gcc/nios2-elf/4.1.2/mno-hw-mul\libgcc.a(lib2-mul.o)
 .debug_info    0x0001f97c      0x184 G:/WorK/Synesthesia/github/synesthesia_zen/wxp/dgn/sw/limbus_bsp/\libchibios_v240_bsp.a(alt_exit.o)
 .debug_info    0x0001fb00      0x657 G:/WorK/Synesthesia/github/synesthesia_zen/wxp/dgn/sw/limbus_bsp/\libchibios_v240_bsp.a(alt_fstat.o)
 .debug_info    0x00020157      0x65d G:/WorK/Synesthesia/github/synesthesia_zen/wxp/dgn/sw/limbus_bsp/\libchibios_v240_bsp.a(alt_isatty.o)
 .debug_info    0x000207b4      0x491 G:/WorK/Synesthesia/github/synesthesia_zen/wxp/dgn/sw/limbus_bsp/\libchibios_v240_bsp.a(alt_lseek.o)
 .debug_info    0x00020c45      0xc0f G:/WorK/Synesthesia/github/synesthesia_zen/wxp/dgn/sw/limbus_bsp/\libchibios_v240_bsp.a(alt_malloc_lock.o)
 .debug_info    0x00021854      0x681 G:/WorK/Synesthesia/github/synesthesia_zen/wxp/dgn/sw/limbus_bsp/\libchibios_v240_bsp.a(alt_read.o)
 .debug_info    0x00021ed5      0x2ae G:/WorK/Synesthesia/github/synesthesia_zen/wxp/dgn/sw/limbus_bsp/\libchibios_v240_bsp.a(alt_sbrk.o)
 .debug_info    0x00022183      0x68a G:/WorK/Synesthesia/github/synesthesia_zen/wxp/dgn/sw/limbus_bsp/\libchibios_v240_bsp.a(alt_write.o)

.debug_abbrev   0x00000000     0x6bf0
 *(.debug_abbrev)
 .debug_abbrev  0x00000000       0x12 G:/WorK/Synesthesia/github/synesthesia_zen/wxp/dgn/sw/limbus_bsp//obj/HAL/src/crt0.o
 .debug_abbrev  0x00000012        0x1 obj/default/ledos/cortex/vcortex/gpu/gpu.o
 .debug_abbrev  0x00000013       0x7b obj/default/ledos/cortex/vcortex/vga/vga.o
 .debug_abbrev  0x0000008e      0x105 obj/default/ledos/graphics/graphics.o
 .debug_abbrev  0x00000193       0xcc obj/default/main.o
 .debug_abbrev  0x0000025f      0x241 G:/WorK/Synesthesia/github/synesthesia_zen/wxp/dgn/sw/limbus_bsp/\libchibios_v240_bsp.a(chthreads.o)
 .debug_abbrev  0x000004a0      0x10a G:/WorK/Synesthesia/github/synesthesia_zen/wxp/dgn/sw/limbus_bsp/\libchibios_v240_bsp.a(chvt.o)
 .debug_abbrev  0x000005aa       0x14 G:/WorK/Synesthesia/github/synesthesia_zen/wxp/dgn/sw/limbus_bsp/\libchibios_v240_bsp.a(chcoreasm.o)
 .debug_abbrev  0x000005be       0x88 G:/WorK/Synesthesia/github/synesthesia_zen/wxp/dgn/sw/limbus_bsp/\libchibios_v240_bsp.a(alt_load.o)
 .debug_abbrev  0x00000646       0xf8 G:/WorK/Synesthesia/github/synesthesia_zen/wxp/dgn/sw/limbus_bsp/\libchibios_v240_bsp.a(alt_main.o)
 .debug_abbrev  0x0000073e       0x91 G:/WorK/Synesthesia/github/synesthesia_zen/wxp/dgn/sw/limbus_bsp/\libchibios_v240_bsp.a(alt_printf.o)
 .debug_abbrev  0x000007cf      0x17f G:/WorK/Synesthesia/github/synesthesia_zen/wxp/dgn/sw/limbus_bsp/\libchibios_v240_bsp.a(alt_putchar.o)
 .debug_abbrev  0x0000094e      0x17f G:/WorK/Synesthesia/github/synesthesia_zen/wxp/dgn/sw/limbus_bsp/\libchibios_v240_bsp.a(alt_putstr.o)
 .debug_abbrev  0x00000acd      0x14b G:/WorK/Synesthesia/github/synesthesia_zen/wxp/dgn/sw/limbus_bsp/\libchibios_v240_bsp.a(alt_sys_init.o)
 .debug_abbrev  0x00000c18       0xf7 G:/WorK/Synesthesia/github/synesthesia_zen/wxp/dgn/sw/limbus_bsp/\libchibios_v240_bsp.a(altera_avalon_jtag_uart_fd.o)
 .debug_abbrev  0x00000d0f      0x17c G:/WorK/Synesthesia/github/synesthesia_zen/wxp/dgn/sw/limbus_bsp/\libchibios_v240_bsp.a(altera_avalon_jtag_uart_init.o)
 .debug_abbrev  0x00000e8b       0xf0 G:/WorK/Synesthesia/github/synesthesia_zen/wxp/dgn/sw/limbus_bsp/\libchibios_v240_bsp.a(altera_avalon_jtag_uart_ioctl.o)
 .debug_abbrev  0x00000f7b      0x191 G:/WorK/Synesthesia/github/synesthesia_zen/wxp/dgn/sw/limbus_bsp/\libchibios_v240_bsp.a(altera_avalon_jtag_uart_read.o)
 .debug_abbrev  0x0000110c      0x18d G:/WorK/Synesthesia/github/synesthesia_zen/wxp/dgn/sw/limbus_bsp/\libchibios_v240_bsp.a(altera_avalon_jtag_uart_write.o)
 .debug_abbrev  0x00001299      0x137 G:/WorK/Synesthesia/github/synesthesia_zen/wxp/dgn/sw/limbus_bsp/\libchibios_v240_bsp.a(altera_avalon_timer_sc.o)
 .debug_abbrev  0x000013d0       0xe8 G:/WorK/Synesthesia/github/synesthesia_zen/wxp/dgn/sw/limbus_bsp/\libchibios_v240_bsp.a(altera_avalon_uart_fd.o)
 .debug_abbrev  0x000014b8      0x148 G:/WorK/Synesthesia/github/synesthesia_zen/wxp/dgn/sw/limbus_bsp/\libchibios_v240_bsp.a(altera_avalon_uart_init.o)
 .debug_abbrev  0x00001600      0x174 G:/WorK/Synesthesia/github/synesthesia_zen/wxp/dgn/sw/limbus_bsp/\libchibios_v240_bsp.a(altera_avalon_uart_read.o)
 .debug_abbrev  0x00001774      0x17b G:/WorK/Synesthesia/github/synesthesia_zen/wxp/dgn/sw/limbus_bsp/\libchibios_v240_bsp.a(altera_avalon_uart_write.o)
 .debug_abbrev  0x000018ef      0x197 G:/WorK/Synesthesia/github/synesthesia_zen/wxp/dgn/sw/limbus_bsp/\libchibios_v240_bsp.a(chdynamic.o)
 .debug_abbrev  0x00001a86      0x14b G:/WorK/Synesthesia/github/synesthesia_zen/wxp/dgn/sw/limbus_bsp/\libchibios_v240_bsp.a(chheap.o)
 .debug_abbrev  0x00001bd1      0x139 G:/WorK/Synesthesia/github/synesthesia_zen/wxp/dgn/sw/limbus_bsp/\libchibios_v240_bsp.a(chmemcore.o)
 .debug_abbrev  0x00001d0a      0x157 G:/WorK/Synesthesia/github/synesthesia_zen/wxp/dgn/sw/limbus_bsp/\libchibios_v240_bsp.a(chmempools.o)
 .debug_abbrev  0x00001e61      0x21d G:/WorK/Synesthesia/github/synesthesia_zen/wxp/dgn/sw/limbus_bsp/\libchibios_v240_bsp.a(chmtx.o)
 .debug_abbrev  0x0000207e      0x1cc G:/WorK/Synesthesia/github/synesthesia_zen/wxp/dgn/sw/limbus_bsp/\libchibios_v240_bsp.a(chschd.o)
 .debug_abbrev  0x0000224a      0x174 G:/WorK/Synesthesia/github/synesthesia_zen/wxp/dgn/sw/limbus_bsp/\libchibios_v240_bsp.a(chsys.o)
 .debug_abbrev  0x000023be      0x172 G:/WorK/Synesthesia/github/synesthesia_zen/wxp/dgn/sw/limbus_bsp/\libchibios_v240_bsp.a(alt_alarm_start.o)
 .debug_abbrev  0x00002530       0xfb G:/WorK/Synesthesia/github/synesthesia_zen/wxp/dgn/sw/limbus_bsp/\libchibios_v240_bsp.a(alt_close.o)
 .debug_abbrev  0x0000262b       0x3f G:/WorK/Synesthesia/github/synesthesia_zen/wxp/dgn/sw/limbus_bsp/\libchibios_v240_bsp.a(alt_dcache_flush_all.o)
 .debug_abbrev  0x0000266a       0xc7 G:/WorK/Synesthesia/github/synesthesia_zen/wxp/dgn/sw/limbus_bsp/\libchibios_v240_bsp.a(alt_dev.o)
 .debug_abbrev  0x00002731       0xf6 G:/WorK/Synesthesia/github/synesthesia_zen/wxp/dgn/sw/limbus_bsp/\libchibios_v240_bsp.a(alt_dev_llist_insert.o)
 .debug_abbrev  0x00002827       0x76 G:/WorK/Synesthesia/github/synesthesia_zen/wxp/dgn/sw/limbus_bsp/\libchibios_v240_bsp.a(alt_do_ctors.o)
 .debug_abbrev  0x0000289d       0x76 G:/WorK/Synesthesia/github/synesthesia_zen/wxp/dgn/sw/limbus_bsp/\libchibios_v240_bsp.a(alt_do_dtors.o)
 .debug_abbrev  0x00002913       0x5e G:/WorK/Synesthesia/github/synesthesia_zen/wxp/dgn/sw/limbus_bsp/\libchibios_v240_bsp.a(alt_errno.o)
 .debug_abbrev  0x00002971       0x3f G:/WorK/Synesthesia/github/synesthesia_zen/wxp/dgn/sw/limbus_bsp/\libchibios_v240_bsp.a(alt_icache_flush_all.o)
 .debug_abbrev  0x000029b0      0x134 G:/WorK/Synesthesia/github/synesthesia_zen/wxp/dgn/sw/limbus_bsp/\libchibios_v240_bsp.a(alt_iic.o)
 .debug_abbrev  0x00002ae4      0x14e G:/WorK/Synesthesia/github/synesthesia_zen/wxp/dgn/sw/limbus_bsp/\libchibios_v240_bsp.a(alt_iic_isr_register.o)
 .debug_abbrev  0x00002c32       0xf0 G:/WorK/Synesthesia/github/synesthesia_zen/wxp/dgn/sw/limbus_bsp/\libchibios_v240_bsp.a(alt_io_redirect.o)
 .debug_abbrev  0x00002d22       0x12 G:/WorK/Synesthesia/github/synesthesia_zen/wxp/dgn/sw/limbus_bsp/\libchibios_v240_bsp.a(alt_irq_entry.o)
 .debug_abbrev  0x00002d34      0x10c G:/WorK/Synesthesia/github/synesthesia_zen/wxp/dgn/sw/limbus_bsp/\libchibios_v240_bsp.a(alt_irq_handler.o)
 .debug_abbrev  0x00002e40       0x44 G:/WorK/Synesthesia/github/synesthesia_zen/wxp/dgn/sw/limbus_bsp/\libchibios_v240_bsp.a(alt_irq_vars.o)
 .debug_abbrev  0x00002e84      0x112 G:/WorK/Synesthesia/github/synesthesia_zen/wxp/dgn/sw/limbus_bsp/\libchibios_v240_bsp.a(alt_open.o)
 .debug_abbrev  0x00002f96       0xc1 G:/WorK/Synesthesia/github/synesthesia_zen/wxp/dgn/sw/limbus_bsp/\libchibios_v240_bsp.a(alt_release_fd.o)
 .debug_abbrev  0x00003057      0x150 G:/WorK/Synesthesia/github/synesthesia_zen/wxp/dgn/sw/limbus_bsp/\libchibios_v240_bsp.a(alt_tick.o)
 .debug_abbrev  0x000031a7       0x3f G:/WorK/Synesthesia/github/synesthesia_zen/wxp/dgn/sw/limbus_bsp/\libchibios_v240_bsp.a(altera_nios2_qsys_irq.o)
 .debug_abbrev  0x000031e6       0xa4 G:/WorK/Synesthesia/github/synesthesia_zen/wxp/dgn/sw/limbus_bsp/\libchibios_v240_bsp.a(chcore.o)
 .debug_abbrev  0x0000328a       0x12 G:/WorK/Synesthesia/github/synesthesia_zen/wxp/dgn/sw/limbus_bsp/\libchibios_v240_bsp.a(alt_exception_entry.o)
 .debug_abbrev  0x0000329c       0xcf G:/WorK/Synesthesia/github/synesthesia_zen/wxp/dgn/sw/limbus_bsp/\libchibios_v240_bsp.a(alt_find_dev.o)
 .debug_abbrev  0x0000336b       0xcf G:/WorK/Synesthesia/github/synesthesia_zen/wxp/dgn/sw/limbus_bsp/\libchibios_v240_bsp.a(alt_find_file.o)
 .debug_abbrev  0x0000343a       0xfb G:/WorK/Synesthesia/github/synesthesia_zen/wxp/dgn/sw/limbus_bsp/\libchibios_v240_bsp.a(alt_get_fd.o)
 .debug_abbrev  0x00003535       0xb7 c:/altera/11.1sp2/nios2eds/bin/gnu/h-i686-mingw32/bin/../lib/gcc/nios2-elf/4.1.2/../../../../nios2-elf/lib/mno-hw-mul\libc.a(lib_a-atexit.o)
 .debug_abbrev  0x000035ec      0x16e c:/altera/11.1sp2/nios2eds/bin/gnu/h-i686-mingw32/bin/../lib/gcc/nios2-elf/4.1.2/../../../../nios2-elf/lib/mno-hw-mul\libc.a(lib_a-exit.o)
 .debug_abbrev  0x0000375a      0x1aa c:/altera/11.1sp2/nios2eds/bin/gnu/h-i686-mingw32/bin/../lib/gcc/nios2-elf/4.1.2/../../../../nios2-elf/lib/mno-hw-mul\libc.a(lib_a-fputs.o)
 .debug_abbrev  0x00003904      0x1a3 c:/altera/11.1sp2/nios2eds/bin/gnu/h-i686-mingw32/bin/../lib/gcc/nios2-elf/4.1.2/../../../../nios2-elf/lib/mno-hw-mul\libc.a(lib_a-fvwrite.o)
 .debug_abbrev  0x00003aa7      0x157 c:/altera/11.1sp2/nios2eds/bin/gnu/h-i686-mingw32/bin/../lib/gcc/nios2-elf/4.1.2/../../../../nios2-elf/lib/mno-hw-mul\libc.a(lib_a-impure.o)
 .debug_abbrev  0x00003bfe       0x3b c:/altera/11.1sp2/nios2eds/bin/gnu/h-i686-mingw32/bin/../lib/gcc/nios2-elf/4.1.2/../../../../nios2-elf/lib/mno-hw-mul\libc.a(lib_a-int_errno.o)
 .debug_abbrev  0x00003c39      0x216 c:/altera/11.1sp2/nios2eds/bin/gnu/h-i686-mingw32/bin/../lib/gcc/nios2-elf/4.1.2/../../../../nios2-elf/lib/mno-hw-mul\libc.a(lib_a-mallocr.o)
 .debug_abbrev  0x00003e4f       0xb5 c:/altera/11.1sp2/nios2eds/bin/gnu/h-i686-mingw32/bin/../lib/gcc/nios2-elf/4.1.2/../../../../nios2-elf/lib/mno-hw-mul\libc.a(lib_a-memchr.o)
 .debug_abbrev  0x00003f04       0x7c c:/altera/11.1sp2/nios2eds/bin/gnu/h-i686-mingw32/bin/../lib/gcc/nios2-elf/4.1.2/../../../../nios2-elf/lib/mno-hw-mul\libc.a(lib_a-memcmp.o)
 .debug_abbrev  0x00003f80       0xb5 c:/altera/11.1sp2/nios2eds/bin/gnu/h-i686-mingw32/bin/../lib/gcc/nios2-elf/4.1.2/../../../../nios2-elf/lib/mno-hw-mul\libc.a(lib_a-memcpy.o)
 .debug_abbrev  0x00004035       0xb5 c:/altera/11.1sp2/nios2eds/bin/gnu/h-i686-mingw32/bin/../lib/gcc/nios2-elf/4.1.2/../../../../nios2-elf/lib/mno-hw-mul\libc.a(lib_a-memmove.o)
 .debug_abbrev  0x000040ea      0x17f c:/altera/11.1sp2/nios2eds/bin/gnu/h-i686-mingw32/bin/../lib/gcc/nios2-elf/4.1.2/../../../../nios2-elf/lib/mno-hw-mul\libc.a(lib_a-putc.o)
 .debug_abbrev  0x00004269      0x1c3 c:/altera/11.1sp2/nios2eds/bin/gnu/h-i686-mingw32/bin/../lib/gcc/nios2-elf/4.1.2/../../../../nios2-elf/lib/mno-hw-mul\libc.a(lib_a-reallocr.o)
 .debug_abbrev  0x0000442c      0x18c c:/altera/11.1sp2/nios2eds/bin/gnu/h-i686-mingw32/bin/../lib/gcc/nios2-elf/4.1.2/../../../../nios2-elf/lib/mno-hw-mul\libc.a(lib_a-sbrkr.o)
 .debug_abbrev  0x000045b8       0x8b c:/altera/11.1sp2/nios2eds/bin/gnu/h-i686-mingw32/bin/../lib/gcc/nios2-elf/4.1.2/../../../../nios2-elf/lib/mno-hw-mul\libc.a(lib_a-strlen.o)
 .debug_abbrev  0x00004643      0x198 c:/altera/11.1sp2/nios2eds/bin/gnu/h-i686-mingw32/bin/../lib/gcc/nios2-elf/4.1.2/../../../../nios2-elf/lib/mno-hw-mul\libc.a(lib_a-wbuf.o)
 .debug_abbrev  0x000047db      0x170 c:/altera/11.1sp2/nios2eds/bin/gnu/h-i686-mingw32/bin/../lib/gcc/nios2-elf/4.1.2/../../../../nios2-elf/lib/mno-hw-mul\libc.a(lib_a-wsetup.o)
 .debug_abbrev  0x0000494b      0x1ae c:/altera/11.1sp2/nios2eds/bin/gnu/h-i686-mingw32/bin/../lib/gcc/nios2-elf/4.1.2/../../../../nios2-elf/lib/mno-hw-mul\libc.a(lib_a-__atexit.o)
 .debug_abbrev  0x00004af9      0x1de c:/altera/11.1sp2/nios2eds/bin/gnu/h-i686-mingw32/bin/../lib/gcc/nios2-elf/4.1.2/../../../../nios2-elf/lib/mno-hw-mul\libc.a(lib_a-__call_atexit.o)
 .debug_abbrev  0x00004cd7      0x1c6 c:/altera/11.1sp2/nios2eds/bin/gnu/h-i686-mingw32/bin/../lib/gcc/nios2-elf/4.1.2/../../../../nios2-elf/lib/mno-hw-mul\libc.a(lib_a-fflush.o)
 .debug_abbrev  0x00004e9d      0x24c c:/altera/11.1sp2/nios2eds/bin/gnu/h-i686-mingw32/bin/../lib/gcc/nios2-elf/4.1.2/../../../../nios2-elf/lib/mno-hw-mul\libc.a(lib_a-findfp.o)
 .debug_abbrev  0x000050e9      0x1d9 c:/altera/11.1sp2/nios2eds/bin/gnu/h-i686-mingw32/bin/../lib/gcc/nios2-elf/4.1.2/../../../../nios2-elf/lib/mno-hw-mul\libc.a(lib_a-freer.o)
 .debug_abbrev  0x000052c2      0x1e3 c:/altera/11.1sp2/nios2eds/bin/gnu/h-i686-mingw32/bin/../lib/gcc/nios2-elf/4.1.2/../../../../nios2-elf/lib/mno-hw-mul\libc.a(lib_a-fwalk.o)
 .debug_abbrev  0x000054a5      0x197 c:/altera/11.1sp2/nios2eds/bin/gnu/h-i686-mingw32/bin/../lib/gcc/nios2-elf/4.1.2/../../../../nios2-elf/lib/mno-hw-mul\libc.a(lib_a-makebuf.o)
 .debug_abbrev  0x0000563c       0xb8 c:/altera/11.1sp2/nios2eds/bin/gnu/h-i686-mingw32/bin/../lib/gcc/nios2-elf/4.1.2/../../../../nios2-elf/lib/mno-hw-mul\libc.a(lib_a-memset.o)
 .debug_abbrev  0x000056f4      0x1c9 c:/altera/11.1sp2/nios2eds/bin/gnu/h-i686-mingw32/bin/../lib/gcc/nios2-elf/4.1.2/../../../../nios2-elf/lib/mno-hw-mul\libc.a(lib_a-stdio.o)
 .debug_abbrev  0x000058bd      0x184 c:/altera/11.1sp2/nios2eds/bin/gnu/h-i686-mingw32/bin/../lib/gcc/nios2-elf/4.1.2/../../../../nios2-elf/lib/mno-hw-mul\libc.a(lib_a-writer.o)
 .debug_abbrev  0x00005a41      0x17f c:/altera/11.1sp2/nios2eds/bin/gnu/h-i686-mingw32/bin/../lib/gcc/nios2-elf/4.1.2/../../../../nios2-elf/lib/mno-hw-mul\libc.a(lib_a-closer.o)
 .debug_abbrev  0x00005bc0      0x1a7 c:/altera/11.1sp2/nios2eds/bin/gnu/h-i686-mingw32/bin/../lib/gcc/nios2-elf/4.1.2/../../../../nios2-elf/lib/mno-hw-mul\libc.a(lib_a-fclose.o)
 .debug_abbrev  0x00005d67      0x18e c:/altera/11.1sp2/nios2eds/bin/gnu/h-i686-mingw32/bin/../lib/gcc/nios2-elf/4.1.2/../../../../nios2-elf/lib/mno-hw-mul\libc.a(lib_a-fstatr.o)
 .debug_abbrev  0x00005ef5      0x17f c:/altera/11.1sp2/nios2eds/bin/gnu/h-i686-mingw32/bin/../lib/gcc/nios2-elf/4.1.2/../../../../nios2-elf/lib/mno-hw-mul\libc.a(lib_a-isattyr.o)
 .debug_abbrev  0x00006074      0x18e c:/altera/11.1sp2/nios2eds/bin/gnu/h-i686-mingw32/bin/../lib/gcc/nios2-elf/4.1.2/../../../../nios2-elf/lib/mno-hw-mul\libc.a(lib_a-lseekr.o)
 .debug_abbrev  0x00006202      0x17f c:/altera/11.1sp2/nios2eds/bin/gnu/h-i686-mingw32/bin/../lib/gcc/nios2-elf/4.1.2/../../../../nios2-elf/lib/mno-hw-mul\libc.a(lib_a-readr.o)
 .debug_abbrev  0x00006381       0x7b c:/altera/11.1sp2/nios2eds/bin/gnu/h-i686-mingw32/bin/../lib/gcc/nios2-elf/4.1.2/mno-hw-mul\libgcc.a(lib2-mul.o)
 .debug_abbrev  0x000063fc       0x72 G:/WorK/Synesthesia/github/synesthesia_zen/wxp/dgn/sw/limbus_bsp/\libchibios_v240_bsp.a(alt_exit.o)
 .debug_abbrev  0x0000646e       0xfb G:/WorK/Synesthesia/github/synesthesia_zen/wxp/dgn/sw/limbus_bsp/\libchibios_v240_bsp.a(alt_fstat.o)
 .debug_abbrev  0x00006569       0xfb G:/WorK/Synesthesia/github/synesthesia_zen/wxp/dgn/sw/limbus_bsp/\libchibios_v240_bsp.a(alt_isatty.o)
 .debug_abbrev  0x00006664       0xfb G:/WorK/Synesthesia/github/synesthesia_zen/wxp/dgn/sw/limbus_bsp/\libchibios_v240_bsp.a(alt_lseek.o)
 .debug_abbrev  0x0000675f      0x181 G:/WorK/Synesthesia/github/synesthesia_zen/wxp/dgn/sw/limbus_bsp/\libchibios_v240_bsp.a(alt_malloc_lock.o)
 .debug_abbrev  0x000068e0       0xfb G:/WorK/Synesthesia/github/synesthesia_zen/wxp/dgn/sw/limbus_bsp/\libchibios_v240_bsp.a(alt_read.o)
 .debug_abbrev  0x000069db      0x115 G:/WorK/Synesthesia/github/synesthesia_zen/wxp/dgn/sw/limbus_bsp/\libchibios_v240_bsp.a(alt_sbrk.o)
 .debug_abbrev  0x00006af0      0x100 G:/WorK/Synesthesia/github/synesthesia_zen/wxp/dgn/sw/limbus_bsp/\libchibios_v240_bsp.a(alt_write.o)

.debug_line     0x00000000    0x1224f
 *(.debug_line)
 .debug_line    0x00000000       0x66 G:/WorK/Synesthesia/github/synesthesia_zen/wxp/dgn/sw/limbus_bsp//obj/HAL/src/crt0.o
 .debug_line    0x00000066       0x24 obj/default/ledos/cortex/vcortex/gpu/gpu.o
 .debug_line    0x0000008a      0x117 obj/default/ledos/cortex/vcortex/vga/vga.o
 .debug_line    0x000001a1      0x695 obj/default/ledos/graphics/graphics.o
 .debug_line    0x00000836      0x53c obj/default/main.o
 .debug_line    0x00000d72      0x6df G:/WorK/Synesthesia/github/synesthesia_zen/wxp/dgn/sw/limbus_bsp/\libchibios_v240_bsp.a(chthreads.o)
 .debug_line    0x00001451      0x3e9 G:/WorK/Synesthesia/github/synesthesia_zen/wxp/dgn/sw/limbus_bsp/\libchibios_v240_bsp.a(chvt.o)
 .debug_line    0x0000183a       0x7d G:/WorK/Synesthesia/github/synesthesia_zen/wxp/dgn/sw/limbus_bsp/\libchibios_v240_bsp.a(chcoreasm.o)
 .debug_line    0x000018b7      0x217 G:/WorK/Synesthesia/github/synesthesia_zen/wxp/dgn/sw/limbus_bsp/\libchibios_v240_bsp.a(alt_load.o)
 .debug_line    0x00001ace      0x424 G:/WorK/Synesthesia/github/synesthesia_zen/wxp/dgn/sw/limbus_bsp/\libchibios_v240_bsp.a(alt_main.o)
 .debug_line    0x00001ef2      0x1da G:/WorK/Synesthesia/github/synesthesia_zen/wxp/dgn/sw/limbus_bsp/\libchibios_v240_bsp.a(alt_printf.o)
 .debug_line    0x000020cc      0x1ca G:/WorK/Synesthesia/github/synesthesia_zen/wxp/dgn/sw/limbus_bsp/\libchibios_v240_bsp.a(alt_putchar.o)
 .debug_line    0x00002296      0x1c9 G:/WorK/Synesthesia/github/synesthesia_zen/wxp/dgn/sw/limbus_bsp/\libchibios_v240_bsp.a(alt_putstr.o)
 .debug_line    0x0000245f      0x30f G:/WorK/Synesthesia/github/synesthesia_zen/wxp/dgn/sw/limbus_bsp/\libchibios_v240_bsp.a(alt_sys_init.o)
 .debug_line    0x0000276e      0x217 G:/WorK/Synesthesia/github/synesthesia_zen/wxp/dgn/sw/limbus_bsp/\libchibios_v240_bsp.a(altera_avalon_jtag_uart_fd.o)
 .debug_line    0x00002985      0x4ab G:/WorK/Synesthesia/github/synesthesia_zen/wxp/dgn/sw/limbus_bsp/\libchibios_v240_bsp.a(altera_avalon_jtag_uart_init.o)
 .debug_line    0x00002e30      0x317 G:/WorK/Synesthesia/github/synesthesia_zen/wxp/dgn/sw/limbus_bsp/\libchibios_v240_bsp.a(altera_avalon_jtag_uart_ioctl.o)
 .debug_line    0x00003147      0x3f7 G:/WorK/Synesthesia/github/synesthesia_zen/wxp/dgn/sw/limbus_bsp/\libchibios_v240_bsp.a(altera_avalon_jtag_uart_read.o)
 .debug_line    0x0000353e      0x405 G:/WorK/Synesthesia/github/synesthesia_zen/wxp/dgn/sw/limbus_bsp/\libchibios_v240_bsp.a(altera_avalon_jtag_uart_write.o)
 .debug_line    0x00003943      0x2b3 G:/WorK/Synesthesia/github/synesthesia_zen/wxp/dgn/sw/limbus_bsp/\libchibios_v240_bsp.a(altera_avalon_timer_sc.o)
 .debug_line    0x00003bf6      0x1d2 G:/WorK/Synesthesia/github/synesthesia_zen/wxp/dgn/sw/limbus_bsp/\libchibios_v240_bsp.a(altera_avalon_uart_fd.o)
 .debug_line    0x00003dc8      0x492 G:/WorK/Synesthesia/github/synesthesia_zen/wxp/dgn/sw/limbus_bsp/\libchibios_v240_bsp.a(altera_avalon_uart_init.o)
 .debug_line    0x0000425a      0x404 G:/WorK/Synesthesia/github/synesthesia_zen/wxp/dgn/sw/limbus_bsp/\libchibios_v240_bsp.a(altera_avalon_uart_read.o)
 .debug_line    0x0000465e      0x3e5 G:/WorK/Synesthesia/github/synesthesia_zen/wxp/dgn/sw/limbus_bsp/\libchibios_v240_bsp.a(altera_avalon_uart_write.o)
 .debug_line    0x00004a43      0x48f G:/WorK/Synesthesia/github/synesthesia_zen/wxp/dgn/sw/limbus_bsp/\libchibios_v240_bsp.a(chdynamic.o)
 .debug_line    0x00004ed2      0x565 G:/WorK/Synesthesia/github/synesthesia_zen/wxp/dgn/sw/limbus_bsp/\libchibios_v240_bsp.a(chheap.o)
 .debug_line    0x00005437      0x3b2 G:/WorK/Synesthesia/github/synesthesia_zen/wxp/dgn/sw/limbus_bsp/\libchibios_v240_bsp.a(chmemcore.o)
 .debug_line    0x000057e9      0x40d G:/WorK/Synesthesia/github/synesthesia_zen/wxp/dgn/sw/limbus_bsp/\libchibios_v240_bsp.a(chmempools.o)
 .debug_line    0x00005bf6      0x760 G:/WorK/Synesthesia/github/synesthesia_zen/wxp/dgn/sw/limbus_bsp/\libchibios_v240_bsp.a(chmtx.o)
 .debug_line    0x00006356      0x57f G:/WorK/Synesthesia/github/synesthesia_zen/wxp/dgn/sw/limbus_bsp/\libchibios_v240_bsp.a(chschd.o)
 .debug_line    0x000068d5      0x3a0 G:/WorK/Synesthesia/github/synesthesia_zen/wxp/dgn/sw/limbus_bsp/\libchibios_v240_bsp.a(chsys.o)
 .debug_line    0x00006c75      0x2dc G:/WorK/Synesthesia/github/synesthesia_zen/wxp/dgn/sw/limbus_bsp/\libchibios_v240_bsp.a(alt_alarm_start.o)
 .debug_line    0x00006f51      0x299 G:/WorK/Synesthesia/github/synesthesia_zen/wxp/dgn/sw/limbus_bsp/\libchibios_v240_bsp.a(alt_close.o)
 .debug_line    0x000071ea      0x1b5 G:/WorK/Synesthesia/github/synesthesia_zen/wxp/dgn/sw/limbus_bsp/\libchibios_v240_bsp.a(alt_dcache_flush_all.o)
 .debug_line    0x0000739f      0x254 G:/WorK/Synesthesia/github/synesthesia_zen/wxp/dgn/sw/limbus_bsp/\libchibios_v240_bsp.a(alt_dev.o)
 .debug_line    0x000075f3      0x25a G:/WorK/Synesthesia/github/synesthesia_zen/wxp/dgn/sw/limbus_bsp/\libchibios_v240_bsp.a(alt_dev_llist_insert.o)
 .debug_line    0x0000784d       0x83 G:/WorK/Synesthesia/github/synesthesia_zen/wxp/dgn/sw/limbus_bsp/\libchibios_v240_bsp.a(alt_do_ctors.o)
 .debug_line    0x000078d0       0x83 G:/WorK/Synesthesia/github/synesthesia_zen/wxp/dgn/sw/limbus_bsp/\libchibios_v240_bsp.a(alt_do_dtors.o)
 .debug_line    0x00007953      0x1aa G:/WorK/Synesthesia/github/synesthesia_zen/wxp/dgn/sw/limbus_bsp/\libchibios_v240_bsp.a(alt_errno.o)
 .debug_line    0x00007afd      0x1b5 G:/WorK/Synesthesia/github/synesthesia_zen/wxp/dgn/sw/limbus_bsp/\libchibios_v240_bsp.a(alt_icache_flush_all.o)
 .debug_line    0x00007cb2      0x2c8 G:/WorK/Synesthesia/github/synesthesia_zen/wxp/dgn/sw/limbus_bsp/\libchibios_v240_bsp.a(alt_iic.o)
 .debug_line    0x00007f7a      0x249 G:/WorK/Synesthesia/github/synesthesia_zen/wxp/dgn/sw/limbus_bsp/\libchibios_v240_bsp.a(alt_iic_isr_register.o)
 .debug_line    0x000081c3      0x2b4 G:/WorK/Synesthesia/github/synesthesia_zen/wxp/dgn/sw/limbus_bsp/\libchibios_v240_bsp.a(alt_io_redirect.o)
 .debug_line    0x00008477       0x6b G:/WorK/Synesthesia/github/synesthesia_zen/wxp/dgn/sw/limbus_bsp/\libchibios_v240_bsp.a(alt_irq_entry.o)
 .debug_line    0x000084e2      0x38c G:/WorK/Synesthesia/github/synesthesia_zen/wxp/dgn/sw/limbus_bsp/\libchibios_v240_bsp.a(alt_irq_handler.o)
 .debug_line    0x0000886e       0x72 G:/WorK/Synesthesia/github/synesthesia_zen/wxp/dgn/sw/limbus_bsp/\libchibios_v240_bsp.a(alt_irq_vars.o)
 .debug_line    0x000088e0      0x2ff G:/WorK/Synesthesia/github/synesthesia_zen/wxp/dgn/sw/limbus_bsp/\libchibios_v240_bsp.a(alt_open.o)
 .debug_line    0x00008bdf       0xed G:/WorK/Synesthesia/github/synesthesia_zen/wxp/dgn/sw/limbus_bsp/\libchibios_v240_bsp.a(alt_release_fd.o)
 .debug_line    0x00008ccc      0x420 G:/WorK/Synesthesia/github/synesthesia_zen/wxp/dgn/sw/limbus_bsp/\libchibios_v240_bsp.a(alt_tick.o)
 .debug_line    0x000090ec      0x1ce G:/WorK/Synesthesia/github/synesthesia_zen/wxp/dgn/sw/limbus_bsp/\libchibios_v240_bsp.a(altera_nios2_qsys_irq.o)
 .debug_line    0x000092ba      0x31a G:/WorK/Synesthesia/github/synesthesia_zen/wxp/dgn/sw/limbus_bsp/\libchibios_v240_bsp.a(chcore.o)
 .debug_line    0x000095d4       0xab G:/WorK/Synesthesia/github/synesthesia_zen/wxp/dgn/sw/limbus_bsp/\libchibios_v240_bsp.a(alt_exception_entry.o)
 .debug_line    0x0000967f      0x26b G:/WorK/Synesthesia/github/synesthesia_zen/wxp/dgn/sw/limbus_bsp/\libchibios_v240_bsp.a(alt_find_dev.o)
 .debug_line    0x000098ea      0x27c G:/WorK/Synesthesia/github/synesthesia_zen/wxp/dgn/sw/limbus_bsp/\libchibios_v240_bsp.a(alt_find_file.o)
 .debug_line    0x00009b66      0x297 G:/WorK/Synesthesia/github/synesthesia_zen/wxp/dgn/sw/limbus_bsp/\libchibios_v240_bsp.a(alt_get_fd.o)
 .debug_line    0x00009dfd      0x203 c:/altera/11.1sp2/nios2eds/bin/gnu/h-i686-mingw32/bin/../lib/gcc/nios2-elf/4.1.2/../../../../nios2-elf/lib/mno-hw-mul\libc.a(lib_a-atexit.o)
 .debug_line    0x0000a000      0x23b c:/altera/11.1sp2/nios2eds/bin/gnu/h-i686-mingw32/bin/../lib/gcc/nios2-elf/4.1.2/../../../../nios2-elf/lib/mno-hw-mul\libc.a(lib_a-exit.o)
 .debug_line    0x0000a23b      0x2cb c:/altera/11.1sp2/nios2eds/bin/gnu/h-i686-mingw32/bin/../lib/gcc/nios2-elf/4.1.2/../../../../nios2-elf/lib/mno-hw-mul\libc.a(lib_a-fputs.o)
 .debug_line    0x0000a506      0x644 c:/altera/11.1sp2/nios2eds/bin/gnu/h-i686-mingw32/bin/../lib/gcc/nios2-elf/4.1.2/../../../../nios2-elf/lib/mno-hw-mul\libc.a(lib_a-fvwrite.o)
 .debug_line    0x0000ab4a      0x230 c:/altera/11.1sp2/nios2eds/bin/gnu/h-i686-mingw32/bin/../lib/gcc/nios2-elf/4.1.2/../../../../nios2-elf/lib/mno-hw-mul\libc.a(lib_a-impure.o)
 .debug_line    0x0000ad7a      0x1e2 c:/altera/11.1sp2/nios2eds/bin/gnu/h-i686-mingw32/bin/../lib/gcc/nios2-elf/4.1.2/../../../../nios2-elf/lib/mno-hw-mul\libc.a(lib_a-int_errno.o)
 .debug_line    0x0000af5c      0x80d c:/altera/11.1sp2/nios2eds/bin/gnu/h-i686-mingw32/bin/../lib/gcc/nios2-elf/4.1.2/../../../../nios2-elf/lib/mno-hw-mul\libc.a(lib_a-mallocr.o)
 .debug_line    0x0000b769      0x306 c:/altera/11.1sp2/nios2eds/bin/gnu/h-i686-mingw32/bin/../lib/gcc/nios2-elf/4.1.2/../../../../nios2-elf/lib/mno-hw-mul\libc.a(lib_a-memchr.o)
 .debug_line    0x0000ba6f      0x2a2 c:/altera/11.1sp2/nios2eds/bin/gnu/h-i686-mingw32/bin/../lib/gcc/nios2-elf/4.1.2/../../../../nios2-elf/lib/mno-hw-mul\libc.a(lib_a-memcmp.o)
 .debug_line    0x0000bd11      0x1af c:/altera/11.1sp2/nios2eds/bin/gnu/h-i686-mingw32/bin/../lib/gcc/nios2-elf/4.1.2/../../../../nios2-elf/lib/mno-hw-mul\libc.a(lib_a-memcpy.o)
 .debug_line    0x0000bec0      0x30d c:/altera/11.1sp2/nios2eds/bin/gnu/h-i686-mingw32/bin/../lib/gcc/nios2-elf/4.1.2/../../../../nios2-elf/lib/mno-hw-mul\libc.a(lib_a-memmove.o)
 .debug_line    0x0000c1cd      0x2c7 c:/altera/11.1sp2/nios2eds/bin/gnu/h-i686-mingw32/bin/../lib/gcc/nios2-elf/4.1.2/../../../../nios2-elf/lib/mno-hw-mul\libc.a(lib_a-putc.o)
 .debug_line    0x0000c494      0x58d c:/altera/11.1sp2/nios2eds/bin/gnu/h-i686-mingw32/bin/../lib/gcc/nios2-elf/4.1.2/../../../../nios2-elf/lib/mno-hw-mul\libc.a(lib_a-reallocr.o)
 .debug_line    0x0000ca21      0x29c c:/altera/11.1sp2/nios2eds/bin/gnu/h-i686-mingw32/bin/../lib/gcc/nios2-elf/4.1.2/../../../../nios2-elf/lib/mno-hw-mul\libc.a(lib_a-sbrkr.o)
 .debug_line    0x0000ccbd      0x270 c:/altera/11.1sp2/nios2eds/bin/gnu/h-i686-mingw32/bin/../lib/gcc/nios2-elf/4.1.2/../../../../nios2-elf/lib/mno-hw-mul\libc.a(lib_a-strlen.o)
 .debug_line    0x0000cf2d      0x353 c:/altera/11.1sp2/nios2eds/bin/gnu/h-i686-mingw32/bin/../lib/gcc/nios2-elf/4.1.2/../../../../nios2-elf/lib/mno-hw-mul\libc.a(lib_a-wbuf.o)
 .debug_line    0x0000d280      0x2f3 c:/altera/11.1sp2/nios2eds/bin/gnu/h-i686-mingw32/bin/../lib/gcc/nios2-elf/4.1.2/../../../../nios2-elf/lib/mno-hw-mul\libc.a(lib_a-wsetup.o)
 .debug_line    0x0000d573      0x316 c:/altera/11.1sp2/nios2eds/bin/gnu/h-i686-mingw32/bin/../lib/gcc/nios2-elf/4.1.2/../../../../nios2-elf/lib/mno-hw-mul\libc.a(lib_a-__atexit.o)
 .debug_line    0x0000d889      0x36a c:/altera/11.1sp2/nios2eds/bin/gnu/h-i686-mingw32/bin/../lib/gcc/nios2-elf/4.1.2/../../../../nios2-elf/lib/mno-hw-mul\libc.a(lib_a-__call_atexit.o)
 .debug_line    0x0000dbf3      0x410 c:/altera/11.1sp2/nios2eds/bin/gnu/h-i686-mingw32/bin/../lib/gcc/nios2-elf/4.1.2/../../../../nios2-elf/lib/mno-hw-mul\libc.a(lib_a-fflush.o)
 .debug_line    0x0000e003      0x60c c:/altera/11.1sp2/nios2eds/bin/gnu/h-i686-mingw32/bin/../lib/gcc/nios2-elf/4.1.2/../../../../nios2-elf/lib/mno-hw-mul\libc.a(lib_a-findfp.o)
 .debug_line    0x0000e60f      0x5ee c:/altera/11.1sp2/nios2eds/bin/gnu/h-i686-mingw32/bin/../lib/gcc/nios2-elf/4.1.2/../../../../nios2-elf/lib/mno-hw-mul\libc.a(lib_a-freer.o)
 .debug_line    0x0000ebfd      0x34d c:/altera/11.1sp2/nios2eds/bin/gnu/h-i686-mingw32/bin/../lib/gcc/nios2-elf/4.1.2/../../../../nios2-elf/lib/mno-hw-mul\libc.a(lib_a-fwalk.o)
 .debug_line    0x0000ef4a      0x3c6 c:/altera/11.1sp2/nios2eds/bin/gnu/h-i686-mingw32/bin/../lib/gcc/nios2-elf/4.1.2/../../../../nios2-elf/lib/mno-hw-mul\libc.a(lib_a-makebuf.o)
 .debug_line    0x0000f310      0x304 c:/altera/11.1sp2/nios2eds/bin/gnu/h-i686-mingw32/bin/../lib/gcc/nios2-elf/4.1.2/../../../../nios2-elf/lib/mno-hw-mul\libc.a(lib_a-memset.o)
 .debug_line    0x0000f614      0x38f c:/altera/11.1sp2/nios2eds/bin/gnu/h-i686-mingw32/bin/../lib/gcc/nios2-elf/4.1.2/../../../../nios2-elf/lib/mno-hw-mul\libc.a(lib_a-stdio.o)
 .debug_line    0x0000f9a3      0x29d c:/altera/11.1sp2/nios2eds/bin/gnu/h-i686-mingw32/bin/../lib/gcc/nios2-elf/4.1.2/../../../../nios2-elf/lib/mno-hw-mul\libc.a(lib_a-writer.o)
 .debug_line    0x0000fc40      0x29d c:/altera/11.1sp2/nios2eds/bin/gnu/h-i686-mingw32/bin/../lib/gcc/nios2-elf/4.1.2/../../../../nios2-elf/lib/mno-hw-mul\libc.a(lib_a-closer.o)
 .debug_line    0x0000fedd      0x2eb c:/altera/11.1sp2/nios2eds/bin/gnu/h-i686-mingw32/bin/../lib/gcc/nios2-elf/4.1.2/../../../../nios2-elf/lib/mno-hw-mul\libc.a(lib_a-fclose.o)
 .debug_line    0x000101c8      0x267 c:/altera/11.1sp2/nios2eds/bin/gnu/h-i686-mingw32/bin/../lib/gcc/nios2-elf/4.1.2/../../../../nios2-elf/lib/mno-hw-mul\libc.a(lib_a-fstatr.o)
 .debug_line    0x0001042f      0x29e c:/altera/11.1sp2/nios2eds/bin/gnu/h-i686-mingw32/bin/../lib/gcc/nios2-elf/4.1.2/../../../../nios2-elf/lib/mno-hw-mul\libc.a(lib_a-isattyr.o)
 .debug_line    0x000106cd      0x29d c:/altera/11.1sp2/nios2eds/bin/gnu/h-i686-mingw32/bin/../lib/gcc/nios2-elf/4.1.2/../../../../nios2-elf/lib/mno-hw-mul\libc.a(lib_a-lseekr.o)
 .debug_line    0x0001096a      0x29c c:/altera/11.1sp2/nios2eds/bin/gnu/h-i686-mingw32/bin/../lib/gcc/nios2-elf/4.1.2/../../../../nios2-elf/lib/mno-hw-mul\libc.a(lib_a-readr.o)
 .debug_line    0x00010c06      0x11a c:/altera/11.1sp2/nios2eds/bin/gnu/h-i686-mingw32/bin/../lib/gcc/nios2-elf/4.1.2/mno-hw-mul\libgcc.a(lib2-mul.o)
 .debug_line    0x00010d20      0x34a G:/WorK/Synesthesia/github/synesthesia_zen/wxp/dgn/sw/limbus_bsp/\libchibios_v240_bsp.a(alt_exit.o)
 .debug_line    0x0001106a      0x2a1 G:/WorK/Synesthesia/github/synesthesia_zen/wxp/dgn/sw/limbus_bsp/\libchibios_v240_bsp.a(alt_fstat.o)
 .debug_line    0x0001130b      0x2a2 G:/WorK/Synesthesia/github/synesthesia_zen/wxp/dgn/sw/limbus_bsp/\libchibios_v240_bsp.a(alt_isatty.o)
 .debug_line    0x000115ad      0x2a1 G:/WorK/Synesthesia/github/synesthesia_zen/wxp/dgn/sw/limbus_bsp/\libchibios_v240_bsp.a(alt_lseek.o)
 .debug_line    0x0001184e      0x20f G:/WorK/Synesthesia/github/synesthesia_zen/wxp/dgn/sw/limbus_bsp/\libchibios_v240_bsp.a(alt_malloc_lock.o)
 .debug_line    0x00011a5d      0x2c8 G:/WorK/Synesthesia/github/synesthesia_zen/wxp/dgn/sw/limbus_bsp/\libchibios_v240_bsp.a(alt_read.o)
 .debug_line    0x00011d25      0x261 G:/WorK/Synesthesia/github/synesthesia_zen/wxp/dgn/sw/limbus_bsp/\libchibios_v240_bsp.a(alt_sbrk.o)
 .debug_line    0x00011f86      0x2c9 G:/WorK/Synesthesia/github/synesthesia_zen/wxp/dgn/sw/limbus_bsp/\libchibios_v240_bsp.a(alt_write.o)

.debug_frame    0x00000000     0x1b54
 *(.debug_frame)
 .debug_frame   0x00000000       0x40 obj/default/ledos/cortex/vcortex/vga/vga.o
 .debug_frame   0x00000040       0xd8 obj/default/ledos/graphics/graphics.o
 .debug_frame   0x00000118       0x34 obj/default/main.o
 .debug_frame   0x0000014c      0x198 G:/WorK/Synesthesia/github/synesthesia_zen/wxp/dgn/sw/limbus_bsp/\libchibios_v240_bsp.a(chthreads.o)
 .debug_frame   0x000002e4       0x80 G:/WorK/Synesthesia/github/synesthesia_zen/wxp/dgn/sw/limbus_bsp/\libchibios_v240_bsp.a(chvt.o)
 .debug_frame   0x00000364       0x48 G:/WorK/Synesthesia/github/synesthesia_zen/wxp/dgn/sw/limbus_bsp/\libchibios_v240_bsp.a(alt_load.o)
 .debug_frame   0x000003ac       0x2c G:/WorK/Synesthesia/github/synesthesia_zen/wxp/dgn/sw/limbus_bsp/\libchibios_v240_bsp.a(alt_main.o)
 .debug_frame   0x000003d8       0x2c G:/WorK/Synesthesia/github/synesthesia_zen/wxp/dgn/sw/limbus_bsp/\libchibios_v240_bsp.a(alt_printf.o)
 .debug_frame   0x00000404       0x2c G:/WorK/Synesthesia/github/synesthesia_zen/wxp/dgn/sw/limbus_bsp/\libchibios_v240_bsp.a(alt_putchar.o)
 .debug_frame   0x00000430       0x2c G:/WorK/Synesthesia/github/synesthesia_zen/wxp/dgn/sw/limbus_bsp/\libchibios_v240_bsp.a(alt_putstr.o)
 .debug_frame   0x0000045c       0x64 G:/WorK/Synesthesia/github/synesthesia_zen/wxp/dgn/sw/limbus_bsp/\libchibios_v240_bsp.a(alt_sys_init.o)
 .debug_frame   0x000004c0       0x80 G:/WorK/Synesthesia/github/synesthesia_zen/wxp/dgn/sw/limbus_bsp/\libchibios_v240_bsp.a(altera_avalon_jtag_uart_fd.o)
 .debug_frame   0x00000540       0x80 G:/WorK/Synesthesia/github/synesthesia_zen/wxp/dgn/sw/limbus_bsp/\libchibios_v240_bsp.a(altera_avalon_jtag_uart_init.o)
 .debug_frame   0x000005c0       0x2c G:/WorK/Synesthesia/github/synesthesia_zen/wxp/dgn/sw/limbus_bsp/\libchibios_v240_bsp.a(altera_avalon_jtag_uart_ioctl.o)
 .debug_frame   0x000005ec       0x2c G:/WorK/Synesthesia/github/synesthesia_zen/wxp/dgn/sw/limbus_bsp/\libchibios_v240_bsp.a(altera_avalon_jtag_uart_read.o)
 .debug_frame   0x00000618       0x2c G:/WorK/Synesthesia/github/synesthesia_zen/wxp/dgn/sw/limbus_bsp/\libchibios_v240_bsp.a(altera_avalon_jtag_uart_write.o)
 .debug_frame   0x00000644       0x48 G:/WorK/Synesthesia/github/synesthesia_zen/wxp/dgn/sw/limbus_bsp/\libchibios_v240_bsp.a(altera_avalon_timer_sc.o)
 .debug_frame   0x0000068c       0x64 G:/WorK/Synesthesia/github/synesthesia_zen/wxp/dgn/sw/limbus_bsp/\libchibios_v240_bsp.a(altera_avalon_uart_fd.o)
 .debug_frame   0x000006f0       0x9c G:/WorK/Synesthesia/github/synesthesia_zen/wxp/dgn/sw/limbus_bsp/\libchibios_v240_bsp.a(altera_avalon_uart_init.o)
 .debug_frame   0x0000078c       0x48 G:/WorK/Synesthesia/github/synesthesia_zen/wxp/dgn/sw/limbus_bsp/\libchibios_v240_bsp.a(altera_avalon_uart_read.o)
 .debug_frame   0x000007d4       0x48 G:/WorK/Synesthesia/github/synesthesia_zen/wxp/dgn/sw/limbus_bsp/\libchibios_v240_bsp.a(altera_avalon_uart_write.o)
 .debug_frame   0x0000081c       0x80 G:/WorK/Synesthesia/github/synesthesia_zen/wxp/dgn/sw/limbus_bsp/\libchibios_v240_bsp.a(chdynamic.o)
 .debug_frame   0x0000089c       0x9c G:/WorK/Synesthesia/github/synesthesia_zen/wxp/dgn/sw/limbus_bsp/\libchibios_v240_bsp.a(chheap.o)
 .debug_frame   0x00000938       0x80 G:/WorK/Synesthesia/github/synesthesia_zen/wxp/dgn/sw/limbus_bsp/\libchibios_v240_bsp.a(chmemcore.o)
 .debug_frame   0x000009b8       0x9c G:/WorK/Synesthesia/github/synesthesia_zen/wxp/dgn/sw/limbus_bsp/\libchibios_v240_bsp.a(chmempools.o)
 .debug_frame   0x00000a54      0x144 G:/WorK/Synesthesia/github/synesthesia_zen/wxp/dgn/sw/limbus_bsp/\libchibios_v240_bsp.a(chmtx.o)
 .debug_frame   0x00000b98      0x144 G:/WorK/Synesthesia/github/synesthesia_zen/wxp/dgn/sw/limbus_bsp/\libchibios_v240_bsp.a(chschd.o)
 .debug_frame   0x00000cdc       0x64 G:/WorK/Synesthesia/github/synesthesia_zen/wxp/dgn/sw/limbus_bsp/\libchibios_v240_bsp.a(chsys.o)
 .debug_frame   0x00000d40       0x2c G:/WorK/Synesthesia/github/synesthesia_zen/wxp/dgn/sw/limbus_bsp/\libchibios_v240_bsp.a(alt_alarm_start.o)
 .debug_frame   0x00000d6c       0x48 G:/WorK/Synesthesia/github/synesthesia_zen/wxp/dgn/sw/limbus_bsp/\libchibios_v240_bsp.a(alt_close.o)
 .debug_frame   0x00000db4       0x2c G:/WorK/Synesthesia/github/synesthesia_zen/wxp/dgn/sw/limbus_bsp/\libchibios_v240_bsp.a(alt_dcache_flush_all.o)
 .debug_frame   0x00000de0       0x2c G:/WorK/Synesthesia/github/synesthesia_zen/wxp/dgn/sw/limbus_bsp/\libchibios_v240_bsp.a(alt_dev.o)
 .debug_frame   0x00000e0c       0x48 G:/WorK/Synesthesia/github/synesthesia_zen/wxp/dgn/sw/limbus_bsp/\libchibios_v240_bsp.a(alt_dev_llist_insert.o)
 .debug_frame   0x00000e54       0x2c G:/WorK/Synesthesia/github/synesthesia_zen/wxp/dgn/sw/limbus_bsp/\libchibios_v240_bsp.a(alt_do_ctors.o)
 .debug_frame   0x00000e80       0x2c G:/WorK/Synesthesia/github/synesthesia_zen/wxp/dgn/sw/limbus_bsp/\libchibios_v240_bsp.a(alt_do_dtors.o)
 .debug_frame   0x00000eac       0x2c G:/WorK/Synesthesia/github/synesthesia_zen/wxp/dgn/sw/limbus_bsp/\libchibios_v240_bsp.a(alt_icache_flush_all.o)
 .debug_frame   0x00000ed8       0x80 G:/WorK/Synesthesia/github/synesthesia_zen/wxp/dgn/sw/limbus_bsp/\libchibios_v240_bsp.a(alt_iic.o)
 .debug_frame   0x00000f58       0x2c G:/WorK/Synesthesia/github/synesthesia_zen/wxp/dgn/sw/limbus_bsp/\libchibios_v240_bsp.a(alt_iic_isr_register.o)
 .debug_frame   0x00000f84       0x4c G:/WorK/Synesthesia/github/synesthesia_zen/wxp/dgn/sw/limbus_bsp/\libchibios_v240_bsp.a(alt_io_redirect.o)
 .debug_frame   0x00000fd0       0x2c G:/WorK/Synesthesia/github/synesthesia_zen/wxp/dgn/sw/limbus_bsp/\libchibios_v240_bsp.a(alt_irq_handler.o)
 .debug_frame   0x00000ffc       0x68 G:/WorK/Synesthesia/github/synesthesia_zen/wxp/dgn/sw/limbus_bsp/\libchibios_v240_bsp.a(alt_open.o)
 .debug_frame   0x00001064       0x30 G:/WorK/Synesthesia/github/synesthesia_zen/wxp/dgn/sw/limbus_bsp/\libchibios_v240_bsp.a(alt_release_fd.o)
 .debug_frame   0x00001094       0x48 G:/WorK/Synesthesia/github/synesthesia_zen/wxp/dgn/sw/limbus_bsp/\libchibios_v240_bsp.a(alt_tick.o)
 .debug_frame   0x000010dc       0x2c G:/WorK/Synesthesia/github/synesthesia_zen/wxp/dgn/sw/limbus_bsp/\libchibios_v240_bsp.a(altera_nios2_qsys_irq.o)
 .debug_frame   0x00001108       0x48 G:/WorK/Synesthesia/github/synesthesia_zen/wxp/dgn/sw/limbus_bsp/\libchibios_v240_bsp.a(chcore.o)
 .debug_frame   0x00001150       0x2c G:/WorK/Synesthesia/github/synesthesia_zen/wxp/dgn/sw/limbus_bsp/\libchibios_v240_bsp.a(alt_find_dev.o)
 .debug_frame   0x0000117c       0x2c G:/WorK/Synesthesia/github/synesthesia_zen/wxp/dgn/sw/limbus_bsp/\libchibios_v240_bsp.a(alt_find_file.o)
 .debug_frame   0x000011a8       0x30 G:/WorK/Synesthesia/github/synesthesia_zen/wxp/dgn/sw/limbus_bsp/\libchibios_v240_bsp.a(alt_get_fd.o)
 .debug_frame   0x000011d8       0x20 c:/altera/11.1sp2/nios2eds/bin/gnu/h-i686-mingw32/bin/../lib/gcc/nios2-elf/4.1.2/../../../../nios2-elf/lib/mno-hw-mul\libc.a(lib_a-atexit.o)
 .debug_frame   0x000011f8       0x28 c:/altera/11.1sp2/nios2eds/bin/gnu/h-i686-mingw32/bin/../lib/gcc/nios2-elf/4.1.2/../../../../nios2-elf/lib/mno-hw-mul\libc.a(lib_a-exit.o)
 .debug_frame   0x00001220       0x3c c:/altera/11.1sp2/nios2eds/bin/gnu/h-i686-mingw32/bin/../lib/gcc/nios2-elf/4.1.2/../../../../nios2-elf/lib/mno-hw-mul\libc.a(lib_a-fputs.o)
 .debug_frame   0x0000125c       0x38 c:/altera/11.1sp2/nios2eds/bin/gnu/h-i686-mingw32/bin/../lib/gcc/nios2-elf/4.1.2/../../../../nios2-elf/lib/mno-hw-mul\libc.a(lib_a-fvwrite.o)
 .debug_frame   0x00001294       0x38 c:/altera/11.1sp2/nios2eds/bin/gnu/h-i686-mingw32/bin/../lib/gcc/nios2-elf/4.1.2/../../../../nios2-elf/lib/mno-hw-mul\libc.a(lib_a-mallocr.o)
 .debug_frame   0x000012cc       0x20 c:/altera/11.1sp2/nios2eds/bin/gnu/h-i686-mingw32/bin/../lib/gcc/nios2-elf/4.1.2/../../../../nios2-elf/lib/mno-hw-mul\libc.a(lib_a-memchr.o)
 .debug_frame   0x000012ec       0x20 c:/altera/11.1sp2/nios2eds/bin/gnu/h-i686-mingw32/bin/../lib/gcc/nios2-elf/4.1.2/../../../../nios2-elf/lib/mno-hw-mul\libc.a(lib_a-memcmp.o)
 .debug_frame   0x0000130c       0x20 c:/altera/11.1sp2/nios2eds/bin/gnu/h-i686-mingw32/bin/../lib/gcc/nios2-elf/4.1.2/../../../../nios2-elf/lib/mno-hw-mul\libc.a(lib_a-memcpy.o)
 .debug_frame   0x0000132c       0x20 c:/altera/11.1sp2/nios2eds/bin/gnu/h-i686-mingw32/bin/../lib/gcc/nios2-elf/4.1.2/../../../../nios2-elf/lib/mno-hw-mul\libc.a(lib_a-memmove.o)
 .debug_frame   0x0000134c       0x4c c:/altera/11.1sp2/nios2eds/bin/gnu/h-i686-mingw32/bin/../lib/gcc/nios2-elf/4.1.2/../../../../nios2-elf/lib/mno-hw-mul\libc.a(lib_a-putc.o)
 .debug_frame   0x00001398       0x38 c:/altera/11.1sp2/nios2eds/bin/gnu/h-i686-mingw32/bin/../lib/gcc/nios2-elf/4.1.2/../../../../nios2-elf/lib/mno-hw-mul\libc.a(lib_a-reallocr.o)
 .debug_frame   0x000013d0       0x2c c:/altera/11.1sp2/nios2eds/bin/gnu/h-i686-mingw32/bin/../lib/gcc/nios2-elf/4.1.2/../../../../nios2-elf/lib/mno-hw-mul\libc.a(lib_a-sbrkr.o)
 .debug_frame   0x000013fc       0x20 c:/altera/11.1sp2/nios2eds/bin/gnu/h-i686-mingw32/bin/../lib/gcc/nios2-elf/4.1.2/../../../../nios2-elf/lib/mno-hw-mul\libc.a(lib_a-strlen.o)
 .debug_frame   0x0000141c       0x3c c:/altera/11.1sp2/nios2eds/bin/gnu/h-i686-mingw32/bin/../lib/gcc/nios2-elf/4.1.2/../../../../nios2-elf/lib/mno-hw-mul\libc.a(lib_a-wbuf.o)
 .debug_frame   0x00001458       0x2c c:/altera/11.1sp2/nios2eds/bin/gnu/h-i686-mingw32/bin/../lib/gcc/nios2-elf/4.1.2/../../../../nios2-elf/lib/mno-hw-mul\libc.a(lib_a-wsetup.o)
 .debug_frame   0x00001484       0x34 c:/altera/11.1sp2/nios2eds/bin/gnu/h-i686-mingw32/bin/../lib/gcc/nios2-elf/4.1.2/../../../../nios2-elf/lib/mno-hw-mul\libc.a(lib_a-__atexit.o)
 .debug_frame   0x000014b8       0x4c c:/altera/11.1sp2/nios2eds/bin/gnu/h-i686-mingw32/bin/../lib/gcc/nios2-elf/4.1.2/../../../../nios2-elf/lib/mno-hw-mul\libc.a(lib_a-__call_atexit.o)
 .debug_frame   0x00001504       0x40 c:/altera/11.1sp2/nios2eds/bin/gnu/h-i686-mingw32/bin/../lib/gcc/nios2-elf/4.1.2/../../../../nios2-elf/lib/mno-hw-mul\libc.a(lib_a-fflush.o)
 .debug_frame   0x00001544      0x118 c:/altera/11.1sp2/nios2eds/bin/gnu/h-i686-mingw32/bin/../lib/gcc/nios2-elf/4.1.2/../../../../nios2-elf/lib/mno-hw-mul\libc.a(lib_a-findfp.o)
 .debug_frame   0x0000165c       0x4c c:/altera/11.1sp2/nios2eds/bin/gnu/h-i686-mingw32/bin/../lib/gcc/nios2-elf/4.1.2/../../../../nios2-elf/lib/mno-hw-mul\libc.a(lib_a-freer.o)
 .debug_frame   0x000016a8       0x60 c:/altera/11.1sp2/nios2eds/bin/gnu/h-i686-mingw32/bin/../lib/gcc/nios2-elf/4.1.2/../../../../nios2-elf/lib/mno-hw-mul\libc.a(lib_a-fwalk.o)
 .debug_frame   0x00001708       0x2c c:/altera/11.1sp2/nios2eds/bin/gnu/h-i686-mingw32/bin/../lib/gcc/nios2-elf/4.1.2/../../../../nios2-elf/lib/mno-hw-mul\libc.a(lib_a-makebuf.o)
 .debug_frame   0x00001734       0x20 c:/altera/11.1sp2/nios2eds/bin/gnu/h-i686-mingw32/bin/../lib/gcc/nios2-elf/4.1.2/../../../../nios2-elf/lib/mno-hw-mul\libc.a(lib_a-memset.o)
 .debug_frame   0x00001754       0x78 c:/altera/11.1sp2/nios2eds/bin/gnu/h-i686-mingw32/bin/../lib/gcc/nios2-elf/4.1.2/../../../../nios2-elf/lib/mno-hw-mul\libc.a(lib_a-stdio.o)
 .debug_frame   0x000017cc       0x2c c:/altera/11.1sp2/nios2eds/bin/gnu/h-i686-mingw32/bin/../lib/gcc/nios2-elf/4.1.2/../../../../nios2-elf/lib/mno-hw-mul\libc.a(lib_a-writer.o)
 .debug_frame   0x000017f8       0x2c c:/altera/11.1sp2/nios2eds/bin/gnu/h-i686-mingw32/bin/../lib/gcc/nios2-elf/4.1.2/../../../../nios2-elf/lib/mno-hw-mul\libc.a(lib_a-closer.o)
 .debug_frame   0x00001824       0x3c c:/altera/11.1sp2/nios2eds/bin/gnu/h-i686-mingw32/bin/../lib/gcc/nios2-elf/4.1.2/../../../../nios2-elf/lib/mno-hw-mul\libc.a(lib_a-fclose.o)
 .debug_frame   0x00001860       0x2c c:/altera/11.1sp2/nios2eds/bin/gnu/h-i686-mingw32/bin/../lib/gcc/nios2-elf/4.1.2/../../../../nios2-elf/lib/mno-hw-mul\libc.a(lib_a-fstatr.o)
 .debug_frame   0x0000188c       0x2c c:/altera/11.1sp2/nios2eds/bin/gnu/h-i686-mingw32/bin/../lib/gcc/nios2-elf/4.1.2/../../../../nios2-elf/lib/mno-hw-mul\libc.a(lib_a-isattyr.o)
 .debug_frame   0x000018b8       0x2c c:/altera/11.1sp2/nios2eds/bin/gnu/h-i686-mingw32/bin/../lib/gcc/nios2-elf/4.1.2/../../../../nios2-elf/lib/mno-hw-mul\libc.a(lib_a-lseekr.o)
 .debug_frame   0x000018e4       0x2c c:/altera/11.1sp2/nios2eds/bin/gnu/h-i686-mingw32/bin/../lib/gcc/nios2-elf/4.1.2/../../../../nios2-elf/lib/mno-hw-mul\libc.a(lib_a-readr.o)
 .debug_frame   0x00001910       0x20 c:/altera/11.1sp2/nios2eds/bin/gnu/h-i686-mingw32/bin/../lib/gcc/nios2-elf/4.1.2/mno-hw-mul\libgcc.a(lib2-mul.o)
 .debug_frame   0x00001930       0x48 G:/WorK/Synesthesia/github/synesthesia_zen/wxp/dgn/sw/limbus_bsp/\libchibios_v240_bsp.a(alt_exit.o)
 .debug_frame   0x00001978       0x48 G:/WorK/Synesthesia/github/synesthesia_zen/wxp/dgn/sw/limbus_bsp/\libchibios_v240_bsp.a(alt_fstat.o)
 .debug_frame   0x000019c0       0x48 G:/WorK/Synesthesia/github/synesthesia_zen/wxp/dgn/sw/limbus_bsp/\libchibios_v240_bsp.a(alt_isatty.o)
 .debug_frame   0x00001a08       0x48 G:/WorK/Synesthesia/github/synesthesia_zen/wxp/dgn/sw/limbus_bsp/\libchibios_v240_bsp.a(alt_lseek.o)
 .debug_frame   0x00001a50       0x48 G:/WorK/Synesthesia/github/synesthesia_zen/wxp/dgn/sw/limbus_bsp/\libchibios_v240_bsp.a(alt_malloc_lock.o)
 .debug_frame   0x00001a98       0x48 G:/WorK/Synesthesia/github/synesthesia_zen/wxp/dgn/sw/limbus_bsp/\libchibios_v240_bsp.a(alt_read.o)
 .debug_frame   0x00001ae0       0x2c G:/WorK/Synesthesia/github/synesthesia_zen/wxp/dgn/sw/limbus_bsp/\libchibios_v240_bsp.a(alt_sbrk.o)
 .debug_frame   0x00001b0c       0x48 G:/WorK/Synesthesia/github/synesthesia_zen/wxp/dgn/sw/limbus_bsp/\libchibios_v240_bsp.a(alt_write.o)

.debug_str      0x00000000     0x1b83
 *(.debug_str)
 .debug_str     0x00000000       0xf6 obj/default/ledos/cortex/vcortex/vga/vga.o
                                0x122 (size before relaxing)
 .debug_str     0x000000f6      0x13b obj/default/ledos/graphics/graphics.o
                                0x21d (size before relaxing)
 .debug_str     0x00000231       0x1c obj/default/main.o
                                0x186 (size before relaxing)
 .debug_str     0x0000024d       0x2e G:/WorK/Synesthesia/github/synesthesia_zen/wxp/dgn/sw/limbus_bsp/\libchibios_v240_bsp.a(chthreads.o)
 .debug_str     0x0000027b       0x1f G:/WorK/Synesthesia/github/synesthesia_zen/wxp/dgn/sw/limbus_bsp/\libchibios_v240_bsp.a(chvt.o)
 .debug_str     0x0000029a       0x12 G:/WorK/Synesthesia/github/synesthesia_zen/wxp/dgn/sw/limbus_bsp/\libchibios_v240_bsp.a(alt_load.o)
 .debug_str     0x000002ac       0x12 G:/WorK/Synesthesia/github/synesthesia_zen/wxp/dgn/sw/limbus_bsp/\libchibios_v240_bsp.a(alt_main.o)
 .debug_str     0x000002be       0x20 G:/WorK/Synesthesia/github/synesthesia_zen/wxp/dgn/sw/limbus_bsp/\libchibios_v240_bsp.a(alt_putchar.o)
 .debug_str     0x000002de       0x20 G:/WorK/Synesthesia/github/synesthesia_zen/wxp/dgn/sw/limbus_bsp/\libchibios_v240_bsp.a(alt_putstr.o)
 .debug_str     0x000002fe       0x12 G:/WorK/Synesthesia/github/synesthesia_zen/wxp/dgn/sw/limbus_bsp/\libchibios_v240_bsp.a(alt_sys_init.o)
 .debug_str     0x00000310       0x12 G:/WorK/Synesthesia/github/synesthesia_zen/wxp/dgn/sw/limbus_bsp/\libchibios_v240_bsp.a(altera_avalon_jtag_uart_fd.o)
 .debug_str     0x00000322       0x1a G:/WorK/Synesthesia/github/synesthesia_zen/wxp/dgn/sw/limbus_bsp/\libchibios_v240_bsp.a(altera_avalon_jtag_uart_init.o)
 .debug_str     0x0000033c       0x12 G:/WorK/Synesthesia/github/synesthesia_zen/wxp/dgn/sw/limbus_bsp/\libchibios_v240_bsp.a(altera_avalon_jtag_uart_ioctl.o)
 .debug_str     0x0000034e       0x1a G:/WorK/Synesthesia/github/synesthesia_zen/wxp/dgn/sw/limbus_bsp/\libchibios_v240_bsp.a(altera_avalon_jtag_uart_read.o)
 .debug_str     0x00000368       0x1a G:/WorK/Synesthesia/github/synesthesia_zen/wxp/dgn/sw/limbus_bsp/\libchibios_v240_bsp.a(altera_avalon_jtag_uart_write.o)
 .debug_str     0x00000382       0x12 G:/WorK/Synesthesia/github/synesthesia_zen/wxp/dgn/sw/limbus_bsp/\libchibios_v240_bsp.a(altera_avalon_timer_sc.o)
 .debug_str     0x00000394       0x12 G:/WorK/Synesthesia/github/synesthesia_zen/wxp/dgn/sw/limbus_bsp/\libchibios_v240_bsp.a(altera_avalon_uart_fd.o)
 .debug_str     0x000003a6       0x19 G:/WorK/Synesthesia/github/synesthesia_zen/wxp/dgn/sw/limbus_bsp/\libchibios_v240_bsp.a(altera_avalon_uart_init.o)
 .debug_str     0x000003bf       0x1a G:/WorK/Synesthesia/github/synesthesia_zen/wxp/dgn/sw/limbus_bsp/\libchibios_v240_bsp.a(altera_avalon_uart_read.o)
 .debug_str     0x000003d9       0x1a G:/WorK/Synesthesia/github/synesthesia_zen/wxp/dgn/sw/limbus_bsp/\libchibios_v240_bsp.a(altera_avalon_uart_write.o)
 .debug_str     0x000003f3       0x21 G:/WorK/Synesthesia/github/synesthesia_zen/wxp/dgn/sw/limbus_bsp/\libchibios_v240_bsp.a(chdynamic.o)
 .debug_str     0x00000414       0x1f G:/WorK/Synesthesia/github/synesthesia_zen/wxp/dgn/sw/limbus_bsp/\libchibios_v240_bsp.a(chheap.o)
 .debug_str     0x00000433       0x1a G:/WorK/Synesthesia/github/synesthesia_zen/wxp/dgn/sw/limbus_bsp/\libchibios_v240_bsp.a(chmemcore.o)
 .debug_str     0x0000044d       0x1a G:/WorK/Synesthesia/github/synesthesia_zen/wxp/dgn/sw/limbus_bsp/\libchibios_v240_bsp.a(chmempools.o)
 .debug_str     0x00000467       0x21 G:/WorK/Synesthesia/github/synesthesia_zen/wxp/dgn/sw/limbus_bsp/\libchibios_v240_bsp.a(chmtx.o)
 .debug_str     0x00000488       0x2f G:/WorK/Synesthesia/github/synesthesia_zen/wxp/dgn/sw/limbus_bsp/\libchibios_v240_bsp.a(chschd.o)
 .debug_str     0x000004b7       0x26 G:/WorK/Synesthesia/github/synesthesia_zen/wxp/dgn/sw/limbus_bsp/\libchibios_v240_bsp.a(chsys.o)
 .debug_str     0x000004dd       0x23 G:/WorK/Synesthesia/github/synesthesia_zen/wxp/dgn/sw/limbus_bsp/\libchibios_v240_bsp.a(alt_alarm_start.o)
 .debug_str     0x00000500       0x12 G:/WorK/Synesthesia/github/synesthesia_zen/wxp/dgn/sw/limbus_bsp/\libchibios_v240_bsp.a(alt_close.o)
 .debug_str     0x00000512       0x12 G:/WorK/Synesthesia/github/synesthesia_zen/wxp/dgn/sw/limbus_bsp/\libchibios_v240_bsp.a(alt_dcache_flush_all.o)
 .debug_str     0x00000524       0x12 G:/WorK/Synesthesia/github/synesthesia_zen/wxp/dgn/sw/limbus_bsp/\libchibios_v240_bsp.a(alt_dev.o)
 .debug_str     0x00000536       0x12 G:/WorK/Synesthesia/github/synesthesia_zen/wxp/dgn/sw/limbus_bsp/\libchibios_v240_bsp.a(alt_dev_llist_insert.o)
 .debug_str     0x00000548       0x12 G:/WorK/Synesthesia/github/synesthesia_zen/wxp/dgn/sw/limbus_bsp/\libchibios_v240_bsp.a(alt_errno.o)
 .debug_str     0x0000055a       0x12 G:/WorK/Synesthesia/github/synesthesia_zen/wxp/dgn/sw/limbus_bsp/\libchibios_v240_bsp.a(alt_icache_flush_all.o)
 .debug_str     0x0000056c       0x18 G:/WorK/Synesthesia/github/synesthesia_zen/wxp/dgn/sw/limbus_bsp/\libchibios_v240_bsp.a(alt_iic.o)
 .debug_str     0x00000584       0x1a G:/WorK/Synesthesia/github/synesthesia_zen/wxp/dgn/sw/limbus_bsp/\libchibios_v240_bsp.a(alt_iic_isr_register.o)
 .debug_str     0x0000059e       0x12 G:/WorK/Synesthesia/github/synesthesia_zen/wxp/dgn/sw/limbus_bsp/\libchibios_v240_bsp.a(alt_io_redirect.o)
 .debug_str     0x000005b0       0x12 G:/WorK/Synesthesia/github/synesthesia_zen/wxp/dgn/sw/limbus_bsp/\libchibios_v240_bsp.a(alt_irq_handler.o)
 .debug_str     0x000005c2       0x12 G:/WorK/Synesthesia/github/synesthesia_zen/wxp/dgn/sw/limbus_bsp/\libchibios_v240_bsp.a(alt_open.o)
 .debug_str     0x000005d4       0x1a G:/WorK/Synesthesia/github/synesthesia_zen/wxp/dgn/sw/limbus_bsp/\libchibios_v240_bsp.a(alt_tick.o)
 .debug_str     0x000005ee       0x12 G:/WorK/Synesthesia/github/synesthesia_zen/wxp/dgn/sw/limbus_bsp/\libchibios_v240_bsp.a(altera_nios2_qsys_irq.o)
 .debug_str     0x00000600       0x12 G:/WorK/Synesthesia/github/synesthesia_zen/wxp/dgn/sw/limbus_bsp/\libchibios_v240_bsp.a(chcore.o)
 .debug_str     0x00000612       0x12 G:/WorK/Synesthesia/github/synesthesia_zen/wxp/dgn/sw/limbus_bsp/\libchibios_v240_bsp.a(alt_find_dev.o)
 .debug_str     0x00000624       0x12 G:/WorK/Synesthesia/github/synesthesia_zen/wxp/dgn/sw/limbus_bsp/\libchibios_v240_bsp.a(alt_find_file.o)
 .debug_str     0x00000636       0x12 G:/WorK/Synesthesia/github/synesthesia_zen/wxp/dgn/sw/limbus_bsp/\libchibios_v240_bsp.a(alt_get_fd.o)
 .debug_str     0x00000648      0x12b c:/altera/11.1sp2/nios2eds/bin/gnu/h-i686-mingw32/bin/../lib/gcc/nios2-elf/4.1.2/../../../../nios2-elf/lib/mno-hw-mul\libc.a(lib_a-atexit.o)
                                0x1cd (size before relaxing)
 .debug_str     0x00000773      0x365 c:/altera/11.1sp2/nios2eds/bin/gnu/h-i686-mingw32/bin/../lib/gcc/nios2-elf/4.1.2/../../../../nios2-elf/lib/mno-hw-mul\libc.a(lib_a-exit.o)
                                0x51a (size before relaxing)
 .debug_str     0x00000ad8      0x11d c:/altera/11.1sp2/nios2eds/bin/gnu/h-i686-mingw32/bin/../lib/gcc/nios2-elf/4.1.2/../../../../nios2-elf/lib/mno-hw-mul\libc.a(lib_a-fputs.o)
                                0x566 (size before relaxing)
 .debug_str     0x00000bf5       0x69 c:/altera/11.1sp2/nios2eds/bin/gnu/h-i686-mingw32/bin/../lib/gcc/nios2-elf/4.1.2/../../../../nios2-elf/lib/mno-hw-mul\libc.a(lib_a-fvwrite.o)
                                0x571 (size before relaxing)
 .debug_str     0x00000c5e       0xdf c:/altera/11.1sp2/nios2eds/bin/gnu/h-i686-mingw32/bin/../lib/gcc/nios2-elf/4.1.2/../../../../nios2-elf/lib/mno-hw-mul\libc.a(lib_a-impure.o)
                                0x528 (size before relaxing)
 .debug_str     0x00000d3d       0x40 c:/altera/11.1sp2/nios2eds/bin/gnu/h-i686-mingw32/bin/../lib/gcc/nios2-elf/4.1.2/../../../../nios2-elf/lib/mno-hw-mul\libc.a(lib_a-int_errno.o)
                                0x171 (size before relaxing)
 .debug_str     0x00000d7d      0x211 c:/altera/11.1sp2/nios2eds/bin/gnu/h-i686-mingw32/bin/../lib/gcc/nios2-elf/4.1.2/../../../../nios2-elf/lib/mno-hw-mul\libc.a(lib_a-mallocr.o)
                                0x6ff (size before relaxing)
 .debug_str     0x00000f8e       0xfd c:/altera/11.1sp2/nios2eds/bin/gnu/h-i686-mingw32/bin/../lib/gcc/nios2-elf/4.1.2/../../../../nios2-elf/lib/mno-hw-mul\libc.a(lib_a-memchr.o)
                                0x199 (size before relaxing)
 .debug_str     0x0000108b       0x45 c:/altera/11.1sp2/nios2eds/bin/gnu/h-i686-mingw32/bin/../lib/gcc/nios2-elf/4.1.2/../../../../nios2-elf/lib/mno-hw-mul\libc.a(lib_a-memcmp.o)
                                0x178 (size before relaxing)
 .debug_str     0x000010d0       0x6c c:/altera/11.1sp2/nios2eds/bin/gnu/h-i686-mingw32/bin/../lib/gcc/nios2-elf/4.1.2/../../../../nios2-elf/lib/mno-hw-mul\libc.a(lib_a-memcpy.o)
                                0x136 (size before relaxing)
 .debug_str     0x0000113c       0x50 c:/altera/11.1sp2/nios2eds/bin/gnu/h-i686-mingw32/bin/../lib/gcc/nios2-elf/4.1.2/../../../../nios2-elf/lib/mno-hw-mul\libc.a(lib_a-memmove.o)
                                0x1ab (size before relaxing)
 .debug_str     0x0000118c       0x48 c:/altera/11.1sp2/nios2eds/bin/gnu/h-i686-mingw32/bin/../lib/gcc/nios2-elf/4.1.2/../../../../nios2-elf/lib/mno-hw-mul\libc.a(lib_a-putc.o)
                                0x520 (size before relaxing)
 .debug_str     0x000011d4       0x59 c:/altera/11.1sp2/nios2eds/bin/gnu/h-i686-mingw32/bin/../lib/gcc/nios2-elf/4.1.2/../../../../nios2-elf/lib/mno-hw-mul\libc.a(lib_a-reallocr.o)
                                0x5d1 (size before relaxing)
 .debug_str     0x0000122d       0x53 c:/altera/11.1sp2/nios2eds/bin/gnu/h-i686-mingw32/bin/../lib/gcc/nios2-elf/4.1.2/../../../../nios2-elf/lib/mno-hw-mul\libc.a(lib_a-sbrkr.o)
                                0x519 (size before relaxing)
 .debug_str     0x00001280       0x52 c:/altera/11.1sp2/nios2eds/bin/gnu/h-i686-mingw32/bin/../lib/gcc/nios2-elf/4.1.2/../../../../nios2-elf/lib/mno-hw-mul\libc.a(lib_a-strlen.o)
                                0x18b (size before relaxing)
 .debug_str     0x000012d2       0x4d c:/altera/11.1sp2/nios2eds/bin/gnu/h-i686-mingw32/bin/../lib/gcc/nios2-elf/4.1.2/../../../../nios2-elf/lib/mno-hw-mul\libc.a(lib_a-wbuf.o)
                                0x51e (size before relaxing)
 .debug_str     0x0000131f       0x49 c:/altera/11.1sp2/nios2eds/bin/gnu/h-i686-mingw32/bin/../lib/gcc/nios2-elf/4.1.2/../../../../nios2-elf/lib/mno-hw-mul\libc.a(lib_a-wsetup.o)
                                0x51a (size before relaxing)
 .debug_str     0x00001368       0x54 c:/altera/11.1sp2/nios2eds/bin/gnu/h-i686-mingw32/bin/../lib/gcc/nios2-elf/4.1.2/../../../../nios2-elf/lib/mno-hw-mul\libc.a(lib_a-__atexit.o)
                                0x532 (size before relaxing)
 .debug_str     0x000013bc       0x7e c:/altera/11.1sp2/nios2eds/bin/gnu/h-i686-mingw32/bin/../lib/gcc/nios2-elf/4.1.2/../../../../nios2-elf/lib/mno-hw-mul\libc.a(lib_a-__call_atexit.o)
                                0x55c (size before relaxing)
 .debug_str     0x0000143a       0x55 c:/altera/11.1sp2/nios2eds/bin/gnu/h-i686-mingw32/bin/../lib/gcc/nios2-elf/4.1.2/../../../../nios2-elf/lib/mno-hw-mul\libc.a(lib_a-fflush.o)
                                0x540 (size before relaxing)
 .debug_str     0x0000148f      0x105 c:/altera/11.1sp2/nios2eds/bin/gnu/h-i686-mingw32/bin/../lib/gcc/nios2-elf/4.1.2/../../../../nios2-elf/lib/mno-hw-mul\libc.a(lib_a-findfp.o)
                                0x602 (size before relaxing)
 .debug_str     0x00001594       0x3c c:/altera/11.1sp2/nios2eds/bin/gnu/h-i686-mingw32/bin/../lib/gcc/nios2-elf/4.1.2/../../../../nios2-elf/lib/mno-hw-mul\libc.a(lib_a-freer.o)
                                0x651 (size before relaxing)
 .debug_str     0x000015d0       0x61 c:/altera/11.1sp2/nios2eds/bin/gnu/h-i686-mingw32/bin/../lib/gcc/nios2-elf/4.1.2/../../../../nios2-elf/lib/mno-hw-mul\libc.a(lib_a-fwalk.o)
                                0x543 (size before relaxing)
 .debug_str     0x00001631      0x126 c:/altera/11.1sp2/nios2eds/bin/gnu/h-i686-mingw32/bin/../lib/gcc/nios2-elf/4.1.2/../../../../nios2-elf/lib/mno-hw-mul\libc.a(lib_a-makebuf.o)
                                0x614 (size before relaxing)
 .debug_str     0x00001757       0x45 c:/altera/11.1sp2/nios2eds/bin/gnu/h-i686-mingw32/bin/../lib/gcc/nios2-elf/4.1.2/../../../../nios2-elf/lib/mno-hw-mul\libc.a(lib_a-memset.o)
                                0x18c (size before relaxing)
 .debug_str     0x0000179c       0x65 c:/altera/11.1sp2/nios2eds/bin/gnu/h-i686-mingw32/bin/../lib/gcc/nios2-elf/4.1.2/../../../../nios2-elf/lib/mno-hw-mul\libc.a(lib_a-stdio.o)
                                0x53f (size before relaxing)
 .debug_str     0x00001801       0x4f c:/altera/11.1sp2/nios2eds/bin/gnu/h-i686-mingw32/bin/../lib/gcc/nios2-elf/4.1.2/../../../../nios2-elf/lib/mno-hw-mul\libc.a(lib_a-writer.o)
                                0x51c (size before relaxing)
 .debug_str     0x00001850       0x46 c:/altera/11.1sp2/nios2eds/bin/gnu/h-i686-mingw32/bin/../lib/gcc/nios2-elf/4.1.2/../../../../nios2-elf/lib/mno-hw-mul\libc.a(lib_a-closer.o)
                                0x50c (size before relaxing)
 .debug_str     0x00001896       0x53 c:/altera/11.1sp2/nios2eds/bin/gnu/h-i686-mingw32/bin/../lib/gcc/nios2-elf/4.1.2/../../../../nios2-elf/lib/mno-hw-mul\libc.a(lib_a-fclose.o)
                                0x524 (size before relaxing)
 .debug_str     0x000018e9       0x4c c:/altera/11.1sp2/nios2eds/bin/gnu/h-i686-mingw32/bin/../lib/gcc/nios2-elf/4.1.2/../../../../nios2-elf/lib/mno-hw-mul\libc.a(lib_a-fstatr.o)
                                0x5ff (size before relaxing)
 .debug_str     0x00001935       0x48 c:/altera/11.1sp2/nios2eds/bin/gnu/h-i686-mingw32/bin/../lib/gcc/nios2-elf/4.1.2/../../../../nios2-elf/lib/mno-hw-mul\libc.a(lib_a-isattyr.o)
                                0x50e (size before relaxing)
 .debug_str     0x0000197d       0x46 c:/altera/11.1sp2/nios2eds/bin/gnu/h-i686-mingw32/bin/../lib/gcc/nios2-elf/4.1.2/../../../../nios2-elf/lib/mno-hw-mul\libc.a(lib_a-lseekr.o)
                                0x51a (size before relaxing)
 .debug_str     0x000019c3       0x44 c:/altera/11.1sp2/nios2eds/bin/gnu/h-i686-mingw32/bin/../lib/gcc/nios2-elf/4.1.2/../../../../nios2-elf/lib/mno-hw-mul\libc.a(lib_a-readr.o)
                                0x51a (size before relaxing)
 .debug_str     0x00001a07       0xcc c:/altera/11.1sp2/nios2eds/bin/gnu/h-i686-mingw32/bin/../lib/gcc/nios2-elf/4.1.2/mno-hw-mul\libgcc.a(lib2-mul.o)
                                0x175 (size before relaxing)
 .debug_str     0x00001ad3       0x1c G:/WorK/Synesthesia/github/synesthesia_zen/wxp/dgn/sw/limbus_bsp/\libchibios_v240_bsp.a(alt_exit.o)
 .debug_str     0x00001aef       0x12 G:/WorK/Synesthesia/github/synesthesia_zen/wxp/dgn/sw/limbus_bsp/\libchibios_v240_bsp.a(alt_fstat.o)
 .debug_str     0x00001b01       0x12 G:/WorK/Synesthesia/github/synesthesia_zen/wxp/dgn/sw/limbus_bsp/\libchibios_v240_bsp.a(alt_isatty.o)
 .debug_str     0x00001b13       0x12 G:/WorK/Synesthesia/github/synesthesia_zen/wxp/dgn/sw/limbus_bsp/\libchibios_v240_bsp.a(alt_lseek.o)
 .debug_str     0x00001b25       0x20 G:/WorK/Synesthesia/github/synesthesia_zen/wxp/dgn/sw/limbus_bsp/\libchibios_v240_bsp.a(alt_malloc_lock.o)
 .debug_str     0x00001b45       0x12 G:/WorK/Synesthesia/github/synesthesia_zen/wxp/dgn/sw/limbus_bsp/\libchibios_v240_bsp.a(alt_read.o)
 .debug_str     0x00001b57       0x1a G:/WorK/Synesthesia/github/synesthesia_zen/wxp/dgn/sw/limbus_bsp/\libchibios_v240_bsp.a(alt_sbrk.o)
 .debug_str     0x00001b71       0x12 G:/WorK/Synesthesia/github/synesthesia_zen/wxp/dgn/sw/limbus_bsp/\libchibios_v240_bsp.a(alt_write.o)

.debug_loc      0x00000000     0x5070
 *(.debug_loc)
 .debug_loc     0x00000000       0x13 obj/default/ledos/cortex/vcortex/vga/vga.o
 .debug_loc     0x00000013      0x152 obj/default/ledos/graphics/graphics.o
 .debug_loc     0x00000165       0x20 obj/default/main.o
 .debug_loc     0x00000185      0x25a G:/WorK/Synesthesia/github/synesthesia_zen/wxp/dgn/sw/limbus_bsp/\libchibios_v240_bsp.a(chthreads.o)
 .debug_loc     0x000003df       0xac G:/WorK/Synesthesia/github/synesthesia_zen/wxp/dgn/sw/limbus_bsp/\libchibios_v240_bsp.a(chvt.o)
 .debug_loc     0x0000048b       0x56 G:/WorK/Synesthesia/github/synesthesia_zen/wxp/dgn/sw/limbus_bsp/\libchibios_v240_bsp.a(alt_load.o)
 .debug_loc     0x000004e1       0x2b G:/WorK/Synesthesia/github/synesthesia_zen/wxp/dgn/sw/limbus_bsp/\libchibios_v240_bsp.a(alt_main.o)
 .debug_loc     0x0000050c       0x2b G:/WorK/Synesthesia/github/synesthesia_zen/wxp/dgn/sw/limbus_bsp/\libchibios_v240_bsp.a(alt_printf.o)
 .debug_loc     0x00000537       0x2b G:/WorK/Synesthesia/github/synesthesia_zen/wxp/dgn/sw/limbus_bsp/\libchibios_v240_bsp.a(alt_putchar.o)
 .debug_loc     0x00000562       0x2b G:/WorK/Synesthesia/github/synesthesia_zen/wxp/dgn/sw/limbus_bsp/\libchibios_v240_bsp.a(alt_putstr.o)
 .debug_loc     0x0000058d       0x81 G:/WorK/Synesthesia/github/synesthesia_zen/wxp/dgn/sw/limbus_bsp/\libchibios_v240_bsp.a(alt_sys_init.o)
 .debug_loc     0x0000060e       0xac G:/WorK/Synesthesia/github/synesthesia_zen/wxp/dgn/sw/limbus_bsp/\libchibios_v240_bsp.a(altera_avalon_jtag_uart_fd.o)
 .debug_loc     0x000006ba       0xac G:/WorK/Synesthesia/github/synesthesia_zen/wxp/dgn/sw/limbus_bsp/\libchibios_v240_bsp.a(altera_avalon_jtag_uart_init.o)
 .debug_loc     0x00000766       0x2b G:/WorK/Synesthesia/github/synesthesia_zen/wxp/dgn/sw/limbus_bsp/\libchibios_v240_bsp.a(altera_avalon_jtag_uart_ioctl.o)
 .debug_loc     0x00000791       0x2b G:/WorK/Synesthesia/github/synesthesia_zen/wxp/dgn/sw/limbus_bsp/\libchibios_v240_bsp.a(altera_avalon_jtag_uart_read.o)
 .debug_loc     0x000007bc       0x2b G:/WorK/Synesthesia/github/synesthesia_zen/wxp/dgn/sw/limbus_bsp/\libchibios_v240_bsp.a(altera_avalon_jtag_uart_write.o)
 .debug_loc     0x000007e7       0x56 G:/WorK/Synesthesia/github/synesthesia_zen/wxp/dgn/sw/limbus_bsp/\libchibios_v240_bsp.a(altera_avalon_timer_sc.o)
 .debug_loc     0x0000083d       0x81 G:/WorK/Synesthesia/github/synesthesia_zen/wxp/dgn/sw/limbus_bsp/\libchibios_v240_bsp.a(altera_avalon_uart_fd.o)
 .debug_loc     0x000008be       0xd7 G:/WorK/Synesthesia/github/synesthesia_zen/wxp/dgn/sw/limbus_bsp/\libchibios_v240_bsp.a(altera_avalon_uart_init.o)
 .debug_loc     0x00000995       0x57 G:/WorK/Synesthesia/github/synesthesia_zen/wxp/dgn/sw/limbus_bsp/\libchibios_v240_bsp.a(altera_avalon_uart_read.o)
 .debug_loc     0x000009ec       0x56 G:/WorK/Synesthesia/github/synesthesia_zen/wxp/dgn/sw/limbus_bsp/\libchibios_v240_bsp.a(altera_avalon_uart_write.o)
 .debug_loc     0x00000a42       0xac G:/WorK/Synesthesia/github/synesthesia_zen/wxp/dgn/sw/limbus_bsp/\libchibios_v240_bsp.a(chdynamic.o)
 .debug_loc     0x00000aee       0xd7 G:/WorK/Synesthesia/github/synesthesia_zen/wxp/dgn/sw/limbus_bsp/\libchibios_v240_bsp.a(chheap.o)
 .debug_loc     0x00000bc5       0xac G:/WorK/Synesthesia/github/synesthesia_zen/wxp/dgn/sw/limbus_bsp/\libchibios_v240_bsp.a(chmemcore.o)
 .debug_loc     0x00000c71       0xd7 G:/WorK/Synesthesia/github/synesthesia_zen/wxp/dgn/sw/limbus_bsp/\libchibios_v240_bsp.a(chmempools.o)
 .debug_loc     0x00000d48      0x1d9 G:/WorK/Synesthesia/github/synesthesia_zen/wxp/dgn/sw/limbus_bsp/\libchibios_v240_bsp.a(chmtx.o)
 .debug_loc     0x00000f21      0x1d9 G:/WorK/Synesthesia/github/synesthesia_zen/wxp/dgn/sw/limbus_bsp/\libchibios_v240_bsp.a(chschd.o)
 .debug_loc     0x000010fa       0x81 G:/WorK/Synesthesia/github/synesthesia_zen/wxp/dgn/sw/limbus_bsp/\libchibios_v240_bsp.a(chsys.o)
 .debug_loc     0x0000117b       0x2b G:/WorK/Synesthesia/github/synesthesia_zen/wxp/dgn/sw/limbus_bsp/\libchibios_v240_bsp.a(alt_alarm_start.o)
 .debug_loc     0x000011a6       0x56 G:/WorK/Synesthesia/github/synesthesia_zen/wxp/dgn/sw/limbus_bsp/\libchibios_v240_bsp.a(alt_close.o)
 .debug_loc     0x000011fc       0x2b G:/WorK/Synesthesia/github/synesthesia_zen/wxp/dgn/sw/limbus_bsp/\libchibios_v240_bsp.a(alt_dcache_flush_all.o)
 .debug_loc     0x00001227       0x2b G:/WorK/Synesthesia/github/synesthesia_zen/wxp/dgn/sw/limbus_bsp/\libchibios_v240_bsp.a(alt_dev.o)
 .debug_loc     0x00001252       0x56 G:/WorK/Synesthesia/github/synesthesia_zen/wxp/dgn/sw/limbus_bsp/\libchibios_v240_bsp.a(alt_dev_llist_insert.o)
 .debug_loc     0x000012a8       0x2b G:/WorK/Synesthesia/github/synesthesia_zen/wxp/dgn/sw/limbus_bsp/\libchibios_v240_bsp.a(alt_do_ctors.o)
 .debug_loc     0x000012d3       0x2b G:/WorK/Synesthesia/github/synesthesia_zen/wxp/dgn/sw/limbus_bsp/\libchibios_v240_bsp.a(alt_do_dtors.o)
 .debug_loc     0x000012fe       0x2b G:/WorK/Synesthesia/github/synesthesia_zen/wxp/dgn/sw/limbus_bsp/\libchibios_v240_bsp.a(alt_icache_flush_all.o)
 .debug_loc     0x00001329       0xac G:/WorK/Synesthesia/github/synesthesia_zen/wxp/dgn/sw/limbus_bsp/\libchibios_v240_bsp.a(alt_iic.o)
 .debug_loc     0x000013d5       0x2b G:/WorK/Synesthesia/github/synesthesia_zen/wxp/dgn/sw/limbus_bsp/\libchibios_v240_bsp.a(alt_iic_isr_register.o)
 .debug_loc     0x00001400       0x56 G:/WorK/Synesthesia/github/synesthesia_zen/wxp/dgn/sw/limbus_bsp/\libchibios_v240_bsp.a(alt_io_redirect.o)
 .debug_loc     0x00001456       0x2b G:/WorK/Synesthesia/github/synesthesia_zen/wxp/dgn/sw/limbus_bsp/\libchibios_v240_bsp.a(alt_irq_handler.o)
 .debug_loc     0x00001481       0x81 G:/WorK/Synesthesia/github/synesthesia_zen/wxp/dgn/sw/limbus_bsp/\libchibios_v240_bsp.a(alt_open.o)
 .debug_loc     0x00001502       0x2b G:/WorK/Synesthesia/github/synesthesia_zen/wxp/dgn/sw/limbus_bsp/\libchibios_v240_bsp.a(alt_release_fd.o)
 .debug_loc     0x0000152d       0x56 G:/WorK/Synesthesia/github/synesthesia_zen/wxp/dgn/sw/limbus_bsp/\libchibios_v240_bsp.a(alt_tick.o)
 .debug_loc     0x00001583       0x2b G:/WorK/Synesthesia/github/synesthesia_zen/wxp/dgn/sw/limbus_bsp/\libchibios_v240_bsp.a(altera_nios2_qsys_irq.o)
 .debug_loc     0x000015ae       0x56 G:/WorK/Synesthesia/github/synesthesia_zen/wxp/dgn/sw/limbus_bsp/\libchibios_v240_bsp.a(chcore.o)
 .debug_loc     0x00001604       0x2b G:/WorK/Synesthesia/github/synesthesia_zen/wxp/dgn/sw/limbus_bsp/\libchibios_v240_bsp.a(alt_find_dev.o)
 .debug_loc     0x0000162f       0x2b G:/WorK/Synesthesia/github/synesthesia_zen/wxp/dgn/sw/limbus_bsp/\libchibios_v240_bsp.a(alt_find_file.o)
 .debug_loc     0x0000165a       0x2b G:/WorK/Synesthesia/github/synesthesia_zen/wxp/dgn/sw/limbus_bsp/\libchibios_v240_bsp.a(alt_get_fd.o)
 .debug_loc     0x00001685       0x1e c:/altera/11.1sp2/nios2eds/bin/gnu/h-i686-mingw32/bin/../lib/gcc/nios2-elf/4.1.2/../../../../nios2-elf/lib/mno-hw-mul\libc.a(lib_a-atexit.o)
 .debug_loc     0x000016a3       0x3d c:/altera/11.1sp2/nios2eds/bin/gnu/h-i686-mingw32/bin/../lib/gcc/nios2-elf/4.1.2/../../../../nios2-elf/lib/mno-hw-mul\libc.a(lib_a-exit.o)
 .debug_loc     0x000016e0       0xcb c:/altera/11.1sp2/nios2eds/bin/gnu/h-i686-mingw32/bin/../lib/gcc/nios2-elf/4.1.2/../../../../nios2-elf/lib/mno-hw-mul\libc.a(lib_a-fputs.o)
 .debug_loc     0x000017ab      0x4e4 c:/altera/11.1sp2/nios2eds/bin/gnu/h-i686-mingw32/bin/../lib/gcc/nios2-elf/4.1.2/../../../../nios2-elf/lib/mno-hw-mul\libc.a(lib_a-fvwrite.o)
 .debug_loc     0x00001c8f      0xaeb c:/altera/11.1sp2/nios2eds/bin/gnu/h-i686-mingw32/bin/../lib/gcc/nios2-elf/4.1.2/../../../../nios2-elf/lib/mno-hw-mul\libc.a(lib_a-mallocr.o)
 .debug_loc     0x0000277a      0x106 c:/altera/11.1sp2/nios2eds/bin/gnu/h-i686-mingw32/bin/../lib/gcc/nios2-elf/4.1.2/../../../../nios2-elf/lib/mno-hw-mul\libc.a(lib_a-memchr.o)
 .debug_loc     0x00002880      0x114 c:/altera/11.1sp2/nios2eds/bin/gnu/h-i686-mingw32/bin/../lib/gcc/nios2-elf/4.1.2/../../../../nios2-elf/lib/mno-hw-mul\libc.a(lib_a-memcmp.o)
 .debug_loc     0x00002994       0xca c:/altera/11.1sp2/nios2eds/bin/gnu/h-i686-mingw32/bin/../lib/gcc/nios2-elf/4.1.2/../../../../nios2-elf/lib/mno-hw-mul\libc.a(lib_a-memcpy.o)
 .debug_loc     0x00002a5e      0x117 c:/altera/11.1sp2/nios2eds/bin/gnu/h-i686-mingw32/bin/../lib/gcc/nios2-elf/4.1.2/../../../../nios2-elf/lib/mno-hw-mul\libc.a(lib_a-memmove.o)
 .debug_loc     0x00002b75      0x20d c:/altera/11.1sp2/nios2eds/bin/gnu/h-i686-mingw32/bin/../lib/gcc/nios2-elf/4.1.2/../../../../nios2-elf/lib/mno-hw-mul\libc.a(lib_a-putc.o)
 .debug_loc     0x00002d82      0x8c0 c:/altera/11.1sp2/nios2eds/bin/gnu/h-i686-mingw32/bin/../lib/gcc/nios2-elf/4.1.2/../../../../nios2-elf/lib/mno-hw-mul\libc.a(lib_a-reallocr.o)
 .debug_loc     0x00003642       0x5b c:/altera/11.1sp2/nios2eds/bin/gnu/h-i686-mingw32/bin/../lib/gcc/nios2-elf/4.1.2/../../../../nios2-elf/lib/mno-hw-mul\libc.a(lib_a-sbrkr.o)
 .debug_loc     0x0000369d       0x3c c:/altera/11.1sp2/nios2eds/bin/gnu/h-i686-mingw32/bin/../lib/gcc/nios2-elf/4.1.2/../../../../nios2-elf/lib/mno-hw-mul\libc.a(lib_a-strlen.o)
 .debug_loc     0x000036d9      0x157 c:/altera/11.1sp2/nios2eds/bin/gnu/h-i686-mingw32/bin/../lib/gcc/nios2-elf/4.1.2/../../../../nios2-elf/lib/mno-hw-mul\libc.a(lib_a-wbuf.o)
 .debug_loc     0x00003830       0x7c c:/altera/11.1sp2/nios2eds/bin/gnu/h-i686-mingw32/bin/../lib/gcc/nios2-elf/4.1.2/../../../../nios2-elf/lib/mno-hw-mul\libc.a(lib_a-wsetup.o)
 .debug_loc     0x000038ac      0x120 c:/altera/11.1sp2/nios2eds/bin/gnu/h-i686-mingw32/bin/../lib/gcc/nios2-elf/4.1.2/../../../../nios2-elf/lib/mno-hw-mul\libc.a(lib_a-__atexit.o)
 .debug_loc     0x000039cc      0x1cb c:/altera/11.1sp2/nios2eds/bin/gnu/h-i686-mingw32/bin/../lib/gcc/nios2-elf/4.1.2/../../../../nios2-elf/lib/mno-hw-mul\libc.a(lib_a-__call_atexit.o)
 .debug_loc     0x00003b97      0x1f6 c:/altera/11.1sp2/nios2eds/bin/gnu/h-i686-mingw32/bin/../lib/gcc/nios2-elf/4.1.2/../../../../nios2-elf/lib/mno-hw-mul\libc.a(lib_a-fflush.o)
 .debug_loc     0x00003d8d      0x1e1 c:/altera/11.1sp2/nios2eds/bin/gnu/h-i686-mingw32/bin/../lib/gcc/nios2-elf/4.1.2/../../../../nios2-elf/lib/mno-hw-mul\libc.a(lib_a-findfp.o)
 .debug_loc     0x00003f6e      0x4a7 c:/altera/11.1sp2/nios2eds/bin/gnu/h-i686-mingw32/bin/../lib/gcc/nios2-elf/4.1.2/../../../../nios2-elf/lib/mno-hw-mul\libc.a(lib_a-freer.o)
 .debug_loc     0x00004415      0x1d2 c:/altera/11.1sp2/nios2eds/bin/gnu/h-i686-mingw32/bin/../lib/gcc/nios2-elf/4.1.2/../../../../nios2-elf/lib/mno-hw-mul\libc.a(lib_a-fwalk.o)
 .debug_loc     0x000045e7      0x11c c:/altera/11.1sp2/nios2eds/bin/gnu/h-i686-mingw32/bin/../lib/gcc/nios2-elf/4.1.2/../../../../nios2-elf/lib/mno-hw-mul\libc.a(lib_a-makebuf.o)
 .debug_loc     0x00004703       0xa1 c:/altera/11.1sp2/nios2eds/bin/gnu/h-i686-mingw32/bin/../lib/gcc/nios2-elf/4.1.2/../../../../nios2-elf/lib/mno-hw-mul\libc.a(lib_a-memset.o)
 .debug_loc     0x000047a4      0x21f c:/altera/11.1sp2/nios2eds/bin/gnu/h-i686-mingw32/bin/../lib/gcc/nios2-elf/4.1.2/../../../../nios2-elf/lib/mno-hw-mul\libc.a(lib_a-stdio.o)
 .debug_loc     0x000049c3       0x97 c:/altera/11.1sp2/nios2eds/bin/gnu/h-i686-mingw32/bin/../lib/gcc/nios2-elf/4.1.2/../../../../nios2-elf/lib/mno-hw-mul\libc.a(lib_a-writer.o)
 .debug_loc     0x00004a5a       0x5b c:/altera/11.1sp2/nios2eds/bin/gnu/h-i686-mingw32/bin/../lib/gcc/nios2-elf/4.1.2/../../../../nios2-elf/lib/mno-hw-mul\libc.a(lib_a-closer.o)
 .debug_loc     0x00004ab5       0xe4 c:/altera/11.1sp2/nios2eds/bin/gnu/h-i686-mingw32/bin/../lib/gcc/nios2-elf/4.1.2/../../../../nios2-elf/lib/mno-hw-mul\libc.a(lib_a-fclose.o)
 .debug_loc     0x00004b99       0x79 c:/altera/11.1sp2/nios2eds/bin/gnu/h-i686-mingw32/bin/../lib/gcc/nios2-elf/4.1.2/../../../../nios2-elf/lib/mno-hw-mul\libc.a(lib_a-fstatr.o)
 .debug_loc     0x00004c12       0x5b c:/altera/11.1sp2/nios2eds/bin/gnu/h-i686-mingw32/bin/../lib/gcc/nios2-elf/4.1.2/../../../../nios2-elf/lib/mno-hw-mul\libc.a(lib_a-isattyr.o)
 .debug_loc     0x00004c6d       0x97 c:/altera/11.1sp2/nios2eds/bin/gnu/h-i686-mingw32/bin/../lib/gcc/nios2-elf/4.1.2/../../../../nios2-elf/lib/mno-hw-mul\libc.a(lib_a-lseekr.o)
 .debug_loc     0x00004d04       0x97 c:/altera/11.1sp2/nios2eds/bin/gnu/h-i686-mingw32/bin/../lib/gcc/nios2-elf/4.1.2/../../../../nios2-elf/lib/mno-hw-mul\libc.a(lib_a-readr.o)
 .debug_loc     0x00004d9b       0x4f c:/altera/11.1sp2/nios2eds/bin/gnu/h-i686-mingw32/bin/../lib/gcc/nios2-elf/4.1.2/mno-hw-mul\libgcc.a(lib2-mul.o)
 .debug_loc     0x00004dea       0x56 G:/WorK/Synesthesia/github/synesthesia_zen/wxp/dgn/sw/limbus_bsp/\libchibios_v240_bsp.a(alt_exit.o)
 .debug_loc     0x00004e40       0x56 G:/WorK/Synesthesia/github/synesthesia_zen/wxp/dgn/sw/limbus_bsp/\libchibios_v240_bsp.a(alt_fstat.o)
 .debug_loc     0x00004e96       0x57 G:/WorK/Synesthesia/github/synesthesia_zen/wxp/dgn/sw/limbus_bsp/\libchibios_v240_bsp.a(alt_isatty.o)
 .debug_loc     0x00004eed       0x56 G:/WorK/Synesthesia/github/synesthesia_zen/wxp/dgn/sw/limbus_bsp/\libchibios_v240_bsp.a(alt_lseek.o)
 .debug_loc     0x00004f43       0x56 G:/WorK/Synesthesia/github/synesthesia_zen/wxp/dgn/sw/limbus_bsp/\libchibios_v240_bsp.a(alt_malloc_lock.o)
 .debug_loc     0x00004f99       0x56 G:/WorK/Synesthesia/github/synesthesia_zen/wxp/dgn/sw/limbus_bsp/\libchibios_v240_bsp.a(alt_read.o)
 .debug_loc     0x00004fef       0x2b G:/WorK/Synesthesia/github/synesthesia_zen/wxp/dgn/sw/limbus_bsp/\libchibios_v240_bsp.a(alt_sbrk.o)
 .debug_loc     0x0000501a       0x56 G:/WorK/Synesthesia/github/synesthesia_zen/wxp/dgn/sw/limbus_bsp/\libchibios_v240_bsp.a(alt_write.o)

.debug_macinfo
 *(.debug_macinfo)

.debug_weaknames
 *(.debug_weaknames)

.debug_funcnames
 *(.debug_funcnames)

.debug_typenames
 *(.debug_typenames)

.debug_varnames
 *(.debug_varnames)

.debug_alt_sim_info
                0x00000000       0x10
 *(.debug_alt_sim_info)
 .debug_alt_sim_info
                0x00000000       0x10 G:/WorK/Synesthesia/github/synesthesia_zen/wxp/dgn/sw/limbus_bsp//obj/HAL/src/crt0.o
                0x02000000                __alt_data_end = 0x2000000
                0x02000000                PROVIDE (__alt_stack_pointer, __alt_data_end)
                0x0180cfb4                PROVIDE (__alt_stack_limit, __alt_stack_base)
                0x0180cfb4                PROVIDE (__alt_heap_start, end)
                0x02000000                PROVIDE (__alt_heap_limit, 0x2000000)
OUTPUT(ledos.elf elf32-littlenios2)

.debug_ranges   0x00000000      0x2f8
 .debug_ranges  0x00000000       0x20 G:/WorK/Synesthesia/github/synesthesia_zen/wxp/dgn/sw/limbus_bsp//obj/HAL/src/crt0.o
 .debug_ranges  0x00000020       0x28 G:/WorK/Synesthesia/github/synesthesia_zen/wxp/dgn/sw/limbus_bsp/\libchibios_v240_bsp.a(alt_irq_entry.o)
 .debug_ranges  0x00000048       0x30 G:/WorK/Synesthesia/github/synesthesia_zen/wxp/dgn/sw/limbus_bsp/\libchibios_v240_bsp.a(alt_exception_entry.o)
 .debug_ranges  0x00000078       0x28 c:/altera/11.1sp2/nios2eds/bin/gnu/h-i686-mingw32/bin/../lib/gcc/nios2-elf/4.1.2/../../../../nios2-elf/lib/mno-hw-mul\libc.a(lib_a-fvwrite.o)
 .debug_ranges  0x000000a0       0x70 c:/altera/11.1sp2/nios2eds/bin/gnu/h-i686-mingw32/bin/../lib/gcc/nios2-elf/4.1.2/../../../../nios2-elf/lib/mno-hw-mul\libc.a(lib_a-mallocr.o)
 .debug_ranges  0x00000110      0x110 c:/altera/11.1sp2/nios2eds/bin/gnu/h-i686-mingw32/bin/../lib/gcc/nios2-elf/4.1.2/../../../../nios2-elf/lib/mno-hw-mul\libc.a(lib_a-reallocr.o)
 .debug_ranges  0x00000220       0x18 c:/altera/11.1sp2/nios2eds/bin/gnu/h-i686-mingw32/bin/../lib/gcc/nios2-elf/4.1.2/../../../../nios2-elf/lib/mno-hw-mul\libc.a(lib_a-__call_atexit.o)
 .debug_ranges  0x00000238       0x20 c:/altera/11.1sp2/nios2eds/bin/gnu/h-i686-mingw32/bin/../lib/gcc/nios2-elf/4.1.2/../../../../nios2-elf/lib/mno-hw-mul\libc.a(lib_a-fflush.o)
 .debug_ranges  0x00000258       0xa0 c:/altera/11.1sp2/nios2eds/bin/gnu/h-i686-mingw32/bin/../lib/gcc/nios2-elf/4.1.2/../../../../nios2-elf/lib/mno-hw-mul\libc.a(lib_a-fwalk.o)
